
========================================================================

** ELF Header Information

    File Name: .\obj\MyProject.axf

    Machine class: ELFCLASS32 (32-bit)
    Data encoding: ELFDATA2LSB (Little endian)
    Header version: EV_CURRENT (Current version)
    Operating System ABI: none
    ABI Version: 0
    File Type: ET_EXEC (Executable) (2)
    Machine: EM_ARM (ARM)

    Image Entry point: 0x000000f5
    Flags: EF_ARM_HASENTRY + EF_ARM_ABI_FLOAT_SOFT (0x05000202)

    ARM ELF revision: 5 (ABI version 2)

    Conforms to Soft float procedure-call standard

    Built with
    Component: ARM Compiler 5.06 update 7 (build 960) Tool: armasm [4d35fa]
    Component: ARM Compiler 5.06 update 7 (build 960) Tool: armlink [4d3601]

    Header size: 52 bytes (0x34)
    Program header entry size: 32 bytes (0x20)
    Section header entry size: 40 bytes (0x28)

    Program header entries: 1
    Section header entries: 16

    Program header offset: 200584 (0x00030f88)
    Section header offset: 200616 (0x00030fa8)

    Section header string table index: 15

========================================================================

** Program header #0 (PT_LOAD) [PF_X + PF_W + PF_R + PF_ARM_ENTRY]
    Size : 9408 bytes (8788 bytes in file)
    Virtual address: 0x00000000 (Alignment 8)


========================================================================

** Section #1 'ER_RO' (SHT_PROGBITS) [SHF_ALLOC + SHF_EXECINSTR]
    Size   : 8680 bytes (alignment 4)
    Address: 0x00000000

    $d.realdata
    RESET
    __Vectors
        0x00000000:    200002d8    ...     DCD    536871640
        0x00000004:    000000f5    ....    DCD    245
        0x00000008:    0000011b    ....    DCD    283
        0x0000000c:    000000d9    ....    DCD    217
        0x00000010:    00000000    ....    DCD    0
        0x00000014:    00000000    ....    DCD    0
        0x00000018:    00000000    ....    DCD    0
        0x0000001c:    00000000    ....    DCD    0
        0x00000020:    00000000    ....    DCD    0
        0x00000024:    00000000    ....    DCD    0
        0x00000028:    00000000    ....    DCD    0
        0x0000002c:    0000011f    ....    DCD    287
        0x00000030:    00000000    ....    DCD    0
        0x00000034:    00000000    ....    DCD    0
        0x00000038:    00000121    !...    DCD    289
        0x0000003c:    00000123    #...    DCD    291
        0x00000040:    00000125    %...    DCD    293
        0x00000044:    00000125    %...    DCD    293
        0x00000048:    00000125    %...    DCD    293
        0x0000004c:    00000125    %...    DCD    293
        0x00000050:    00000125    %...    DCD    293
        0x00000054:    00000125    %...    DCD    293
        0x00000058:    00000125    %...    DCD    293
        0x0000005c:    00000125    %...    DCD    293
        0x00000060:    0000093d    =...    DCD    2365
        0x00000064:    00000125    %...    DCD    293
        0x00000068:    00000125    %...    DCD    293
        0x0000006c:    00000125    %...    DCD    293
        0x00000070:    00000959    Y...    DCD    2393
        0x00000074:    00000125    %...    DCD    293
        0x00000078:    00000125    %...    DCD    293
        0x0000007c:    00000125    %...    DCD    293
        0x00000080:    00000125    %...    DCD    293
        0x00000084:    00000125    %...    DCD    293
        0x00000088:    00000125    %...    DCD    293
        0x0000008c:    00000125    %...    DCD    293
        0x00000090:    00000125    %...    DCD    293
        0x00000094:    00000125    %...    DCD    293
        0x00000098:    00000125    %...    DCD    293
        0x0000009c:    00000125    %...    DCD    293
        0x000000a0:    00000125    %...    DCD    293
        0x000000a4:    00000125    %...    DCD    293
        0x000000a8:    00000125    %...    DCD    293
        0x000000ac:    00000125    %...    DCD    293
        0x000000b0:    00000125    %...    DCD    293
        0x000000b4:    00000125    %...    DCD    293
        0x000000b8:    00000125    %...    DCD    293
        0x000000bc:    00000125    %...    DCD    293
    $t
    .ARM.Collect$$$$00000000
    .ARM.Collect$$$$00000001
    __main
    _main_stk
        0x000000c0:    4804        .H      LDR      r0,__lit__00000000 ; [0xd4] = 0x200002d8
        0x000000c2:    4685        .F      MOV      sp,r0
    .ARM.Collect$$$$00000004
    _main_scatterload
        0x000000c4:    f000f89c    ....    BL       __scatterload ; 0x200
    .ARM.Collect$$$$00000008
    .ARM.Collect$$$$0000000A
    .ARM.Collect$$$$0000000B
    __main_after_scatterload
    _main_clock
    _main_cpp_init
    _main_init
        0x000000c8:    4800        .H      LDR      r0,[pc,#0] ; [0xcc] = 0x1cfd
        0x000000ca:    4700        .G      BX       r0
    $d
        0x000000cc:    00001cfd    ....    DCD    7421
    $t
    .ARM.Collect$$$$0000000E
    __rt_lib_shutdown_fini
        0x000000d0:    46c0        .F      MOV      r8,r8
        0x000000d2:    46c0        .F      MOV      r8,r8
    $d
    .ARM.Collect$$$$00002712
    __lit__00000000
    .ARM.Collect$$$$0000000F
    .ARM.Collect$$$$00000011
    __rt_final_cpp
    __rt_final_exit
        0x000000d4:    200002d8    ...     DCD    536871640
    $t
    .emb_text
    HardFault_Handler
        0x000000d8:    2004        .       MOVS     r0,#4
        0x000000da:    4671        qF      MOV      r1,lr
        0x000000dc:    4208        .B      TST      r0,r1
        0x000000de:    d002        ..      BEQ      0xe6 ; HardFault_Handler + 14
        0x000000e0:    f3ef8009    ....    MRS      r0,PSP
        0x000000e4:    e001        ..      B        0xea ; HardFault_Handler + 18
        0x000000e6:    f3ef8008    ....    MRS      r0,MSP
        0x000000ea:    4671        qF      MOV      r1,lr
        0x000000ec:    4a00        .J      LDR      r2,[pc,#0] ; [0xf0] = 0x595
        0x000000ee:    4710        .G      BX       r2
    $d
        0x000000f0:    00000595    ....    DCD    1429
    $t
    .text
    Reset_Handler
        0x000000f4:    480c        .H      LDR      r0,[pc,#48] ; [0x128] = 0x40000100
        0x000000f6:    490d        .I      LDR      r1,[pc,#52] ; [0x12c] = 0x59
        0x000000f8:    6001        .`      STR      r1,[r0,#0]
        0x000000fa:    490d        .I      LDR      r1,[pc,#52] ; [0x130] = 0x16
        0x000000fc:    6001        .`      STR      r1,[r0,#0]
        0x000000fe:    490d        .I      LDR      r1,[pc,#52] ; [0x134] = 0x88
        0x00000100:    6001        .`      STR      r1,[r0,#0]
        0x00000102:    4a0d        .J      LDR      r2,[pc,#52] ; [0x138] = 0x40000024
        0x00000104:    490d        .I      LDR      r1,[pc,#52] ; [0x13c] = 0x5aa5
        0x00000106:    6011        .`      STR      r1,[r2,#0]
        0x00000108:    4a0d        .J      LDR      r2,[pc,#52] ; [0x140] = 0x40000280
        0x0000010a:    490e        .I      LDR      r1,[pc,#56] ; [0x144] = 0x1
        0x0000010c:    6011        .`      STR      r1,[r2,#0]
        0x0000010e:    2100        .!      MOVS     r1,#0
        0x00000110:    6001        .`      STR      r1,[r0,#0]
        0x00000112:    480d        .H      LDR      r0,[pc,#52] ; [0x148] = 0x7bd
        0x00000114:    4780        .G      BLX      r0
        0x00000116:    480d        .H      LDR      r0,[pc,#52] ; [0x14c] = 0xc1
        0x00000118:    4700        .G      BX       r0
    NMI_Handler
        0x0000011a:    e7fe        ..      B        NMI_Handler ; 0x11a
        0x0000011c:    e7fe        ..      B        0x11c ; NMI_Handler + 2
    SVC_Handler
        0x0000011e:    e7fe        ..      B        SVC_Handler ; 0x11e
    PendSV_Handler
        0x00000120:    e7fe        ..      B        PendSV_Handler ; 0x120
    SysTick_Handler
        0x00000122:    e7fe        ..      B        SysTick_Handler ; 0x122
    Default_Handler
    ACMP01_IRQHandler
    ADC_IRQHandler
    BOD_IRQHandler
    BPWM0_IRQHandler
    BPWM1_IRQHandler
    CKFAIL_IRQHandler
    EINT024_IRQHandler
    EINT135_IRQHandler
    GPABGH_IRQHandler
    GPCDEF_IRQHandler
    I2C0_IRQHandler
    I2C1_IRQHandler
    ISP_IRQHandler
    PDMA_IRQHandler
    PWM0_IRQHandler
    PWM1_IRQHandler
    PWRWU_IRQHandler
    QSPI0_IRQHandler
    RTC_IRQHandler
    SPI0_IRQHandler
    TMR1_IRQHandler
    TMR2_IRQHandler
    TMR3_IRQHandler
    UART13_IRQHandler
    UART46_IRQHandler
    UART57_IRQHandler
    USBD_IRQHandler
    USCI01_IRQHandler
    WDT_IRQHandler
        0x00000124:    e7fe        ..      B        Default_Handler ; 0x124
    $d
        0x00000126:    0000        ..      DCW    0
        0x00000128:    40000100    ...@    DCD    1073742080
        0x0000012c:    00000059    Y...    DCD    89
        0x00000130:    00000016    ....    DCD    22
        0x00000134:    00000088    ....    DCD    136
        0x00000138:    40000024    $..@    DCD    1073741860
        0x0000013c:    00005aa5    .Z..    DCD    23205
        0x00000140:    40000280    ...@    DCD    1073742464
        0x00000144:    00000001    ....    DCD    1
        0x00000148:    000007bd    ....    DCD    1981
        0x0000014c:    000000c1    ....    DCD    193
    $t
    .text
    __aeabi_uidiv
    __aeabi_uidivmod
        0x00000150:    b530        0.      PUSH     {r4,r5,lr}
        0x00000152:    460b        .F      MOV      r3,r1
        0x00000154:    4601        .F      MOV      r1,r0
        0x00000156:    2000        .       MOVS     r0,#0
        0x00000158:    2220         "      MOVS     r2,#0x20
        0x0000015a:    2401        .$      MOVS     r4,#1
        0x0000015c:    e009        ..      B        0x172 ; __aeabi_uidiv + 34
        0x0000015e:    460d        .F      MOV      r5,r1
        0x00000160:    40d5        .@      LSRS     r5,r5,r2
        0x00000162:    429d        .B      CMP      r5,r3
        0x00000164:    d305        ..      BCC      0x172 ; __aeabi_uidiv + 34
        0x00000166:    461d        .F      MOV      r5,r3
        0x00000168:    4095        .@      LSLS     r5,r5,r2
        0x0000016a:    1b49        I.      SUBS     r1,r1,r5
        0x0000016c:    4625        %F      MOV      r5,r4
        0x0000016e:    4095        .@      LSLS     r5,r5,r2
        0x00000170:    1940        @.      ADDS     r0,r0,r5
        0x00000172:    4615        .F      MOV      r5,r2
        0x00000174:    1e52        R.      SUBS     r2,r2,#1
        0x00000176:    2d00        .-      CMP      r5,#0
        0x00000178:    dcf1        ..      BGT      0x15e ; __aeabi_uidiv + 14
        0x0000017a:    bd30        0.      POP      {r4,r5,pc}
    .text
    __aeabi_memcpy
    __aeabi_memcpy4
    __aeabi_memcpy8
        0x0000017c:    4603        .F      MOV      r3,r0
        0x0000017e:    430b        .C      ORRS     r3,r3,r1
        0x00000180:    079b        ..      LSLS     r3,r3,#30
        0x00000182:    d003        ..      BEQ      0x18c ; __aeabi_memcpy + 16
        0x00000184:    e009        ..      B        0x19a ; __aeabi_memcpy + 30
        0x00000186:    c908        ..      LDM      r1!,{r3}
        0x00000188:    1f12        ..      SUBS     r2,r2,#4
        0x0000018a:    c008        ..      STM      r0!,{r3}
        0x0000018c:    2a04        .*      CMP      r2,#4
        0x0000018e:    d2fa        ..      BCS      0x186 ; __aeabi_memcpy + 10
        0x00000190:    e003        ..      B        0x19a ; __aeabi_memcpy + 30
        0x00000192:    780b        .x      LDRB     r3,[r1,#0]
        0x00000194:    7003        .p      STRB     r3,[r0,#0]
        0x00000196:    1c40        @.      ADDS     r0,r0,#1
        0x00000198:    1c49        I.      ADDS     r1,r1,#1
        0x0000019a:    1e52        R.      SUBS     r2,r2,#1
        0x0000019c:    d2f9        ..      BCS      0x192 ; __aeabi_memcpy + 22
        0x0000019e:    4770        pG      BX       lr
    .text
    __aeabi_uldivmod
        0x000001a0:    b5f0        ..      PUSH     {r4-r7,lr}
        0x000001a2:    b41f        ..      PUSH     {r0-r4}
        0x000001a4:    4606        .F      MOV      r6,r0
        0x000001a6:    2000        .       MOVS     r0,#0
        0x000001a8:    b082        ..      SUB      sp,sp,#8
        0x000001aa:    4605        .F      MOV      r5,r0
        0x000001ac:    2440        @$      MOVS     r4,#0x40
        0x000001ae:    9101        ..      STR      r1,[sp,#4]
        0x000001b0:    9000        ..      STR      r0,[sp,#0]
        0x000001b2:    e01b        ..      B        0x1ec ; __aeabi_uldivmod + 76
        0x000001b4:    9901        ..      LDR      r1,[sp,#4]
        0x000001b6:    4622        "F      MOV      r2,r4
        0x000001b8:    460f        .F      MOV      r7,r1
        0x000001ba:    4630        0F      MOV      r0,r6
        0x000001bc:    f000f842    ..B.    BL       __aeabi_llsr ; 0x244
        0x000001c0:    9a04        ..      LDR      r2,[sp,#0x10]
        0x000001c2:    9b05        ..      LDR      r3,[sp,#0x14]
        0x000001c4:    1a80        ..      SUBS     r0,r0,r2
        0x000001c6:    4199        .A      SBCS     r1,r1,r3
        0x000001c8:    d310        ..      BCC      0x1ec ; __aeabi_uldivmod + 76
        0x000001ca:    4610        .F      MOV      r0,r2
        0x000001cc:    4619        .F      MOV      r1,r3
        0x000001ce:    4622        "F      MOV      r2,r4
        0x000001d0:    f000f828    ..(.    BL       __aeabi_llsl ; 0x224
        0x000001d4:    1a36        6.      SUBS     r6,r6,r0
        0x000001d6:    418f        .A      SBCS     r7,r7,r1
        0x000001d8:    9701        ..      STR      r7,[sp,#4]
        0x000001da:    4622        "F      MOV      r2,r4
        0x000001dc:    2001        .       MOVS     r0,#1
        0x000001de:    2100        .!      MOVS     r1,#0
        0x000001e0:    9f00        ..      LDR      r7,[sp,#0]
        0x000001e2:    f000f81f    ....    BL       __aeabi_llsl ; 0x224
        0x000001e6:    1838        8.      ADDS     r0,r7,r0
        0x000001e8:    414d        MA      ADCS     r5,r5,r1
        0x000001ea:    9000        ..      STR      r0,[sp,#0]
        0x000001ec:    4620         F      MOV      r0,r4
        0x000001ee:    1e64        d.      SUBS     r4,r4,#1
        0x000001f0:    2800        .(      CMP      r0,#0
        0x000001f2:    dcdf        ..      BGT      0x1b4 ; __aeabi_uldivmod + 20
        0x000001f4:    9b01        ..      LDR      r3,[sp,#4]
        0x000001f6:    9800        ..      LDR      r0,[sp,#0]
        0x000001f8:    4629        )F      MOV      r1,r5
        0x000001fa:    4632        2F      MOV      r2,r6
        0x000001fc:    b007        ..      ADD      sp,sp,#0x1c
        0x000001fe:    bdf0        ..      POP      {r4-r7,pc}
    .text
    __scatterload
    __scatterload_rt2
        0x00000200:    4c06        .L      LDR      r4,[pc,#24] ; [0x21c] = 0x21c8
        0x00000202:    2501        .%      MOVS     r5,#1
        0x00000204:    4e06        .N      LDR      r6,[pc,#24] ; [0x220] = 0x21e8
        0x00000206:    e005        ..      B        0x214 ; __scatterload + 20
        0x00000208:    68e3        .h      LDR      r3,[r4,#0xc]
        0x0000020a:    cc07        ..      LDM      r4!,{r0-r2}
        0x0000020c:    432b        +C      ORRS     r3,r3,r5
        0x0000020e:    3c0c        .<      SUBS     r4,r4,#0xc
        0x00000210:    4798        .G      BLX      r3
        0x00000212:    3410        .4      ADDS     r4,r4,#0x10
        0x00000214:    42b4        .B      CMP      r4,r6
        0x00000216:    d3f7        ..      BCC      0x208 ; __scatterload + 8
        0x00000218:    f7ffff56    ..V.    BL       __main_after_scatterload ; 0xc8
    $d
        0x0000021c:    000021c8    .!..    DCD    8648
        0x00000220:    000021e8    .!..    DCD    8680
    $t
    .text
    __aeabi_llsl
    _ll_shift_l
        0x00000224:    b510        ..      PUSH     {r4,lr}
        0x00000226:    2a20         *      CMP      r2,#0x20
        0x00000228:    db04        ..      BLT      0x234 ; __aeabi_llsl + 16
        0x0000022a:    4601        .F      MOV      r1,r0
        0x0000022c:    3a20         :      SUBS     r2,r2,#0x20
        0x0000022e:    4091        .@      LSLS     r1,r1,r2
        0x00000230:    2000        .       MOVS     r0,#0
        0x00000232:    bd10        ..      POP      {r4,pc}
        0x00000234:    4091        .@      LSLS     r1,r1,r2
        0x00000236:    2320         #      MOVS     r3,#0x20
        0x00000238:    1a9c        ..      SUBS     r4,r3,r2
        0x0000023a:    4603        .F      MOV      r3,r0
        0x0000023c:    40e3        .@      LSRS     r3,r3,r4
        0x0000023e:    4319        .C      ORRS     r1,r1,r3
        0x00000240:    4090        .@      LSLS     r0,r0,r2
        0x00000242:    bd10        ..      POP      {r4,pc}
    .text
    __aeabi_llsr
    _ll_ushift_r
        0x00000244:    b510        ..      PUSH     {r4,lr}
        0x00000246:    2a20         *      CMP      r2,#0x20
        0x00000248:    db04        ..      BLT      0x254 ; __aeabi_llsr + 16
        0x0000024a:    4608        .F      MOV      r0,r1
        0x0000024c:    3a20         :      SUBS     r2,r2,#0x20
        0x0000024e:    40d0        .@      LSRS     r0,r0,r2
        0x00000250:    2100        .!      MOVS     r1,#0
        0x00000252:    bd10        ..      POP      {r4,pc}
        0x00000254:    460b        .F      MOV      r3,r1
        0x00000256:    40d3        .@      LSRS     r3,r3,r2
        0x00000258:    40d0        .@      LSRS     r0,r0,r2
        0x0000025a:    2420         $      MOVS     r4,#0x20
        0x0000025c:    1aa2        ..      SUBS     r2,r4,r2
        0x0000025e:    4091        .@      LSLS     r1,r1,r2
        0x00000260:    4308        .C      ORRS     r0,r0,r1
        0x00000262:    4619        .F      MOV      r1,r3
        0x00000264:    bd10        ..      POP      {r4,pc}
        0x00000266:    0000        ..      MOVS     r0,r0
    i.CLK_EnableModuleClock
    CLK_EnableModuleClock
        0x00000268:    b50e        ..      PUSH     {r1-r3,lr}
        0x0000026a:    4909        .I      LDR      r1,[pc,#36] ; [0x290] = 0x2148
        0x0000026c:    c90e        ..      LDM      r1,{r1-r3}
        0x0000026e:    9100        ..      STR      r1,[sp,#0]
        0x00000270:    9201        ..      STR      r2,[sp,#4]
        0x00000272:    0f81        ..      LSRS     r1,r0,#30
        0x00000274:    008a        ..      LSLS     r2,r1,#2
        0x00000276:    9302        ..      STR      r3,[sp,#8]
        0x00000278:    4669        iF      MOV      r1,sp
        0x0000027a:    588a        .X      LDR      r2,[r1,r2]
        0x0000027c:    4905        .I      LDR      r1,[pc,#20] ; [0x294] = 0x40000200
        0x0000027e:    1851        Q.      ADDS     r1,r2,r1
        0x00000280:    684a        Jh      LDR      r2,[r1,#4]
        0x00000282:    06c3        ..      LSLS     r3,r0,#27
        0x00000284:    0edb        ..      LSRS     r3,r3,#27
        0x00000286:    2001        .       MOVS     r0,#1
        0x00000288:    4098        .@      LSLS     r0,r0,r3
        0x0000028a:    4302        .C      ORRS     r2,r2,r0
        0x0000028c:    604a        J`      STR      r2,[r1,#4]
        0x0000028e:    bd0e        ..      POP      {r1-r3,pc}
    $d
        0x00000290:    00002148    H!..    DCD    8520
        0x00000294:    40000200    ...@    DCD    1073742336
    $t
    i.CLK_EnableXtalRC
    CLK_EnableXtalRC
        0x00000298:    4902        .I      LDR      r1,[pc,#8] ; [0x2a4] = 0x40000200
        0x0000029a:    680a        .h      LDR      r2,[r1,#0]
        0x0000029c:    4302        .C      ORRS     r2,r2,r0
        0x0000029e:    600a        .`      STR      r2,[r1,#0]
        0x000002a0:    4770        pG      BX       lr
    $d
        0x000002a2:    0000        ..      DCW    0
        0x000002a4:    40000200    ...@    DCD    1073742336
    $t
    i.CLK_GetPCLK0Freq
    CLK_GetPCLK0Freq
        0x000002a8:    b510        ..      PUSH     {r4,lr}
        0x000002aa:    f000fa3d    ..=.    BL       SystemCoreClockUpdate ; 0x728
        0x000002ae:    4804        .H      LDR      r0,[pc,#16] ; [0x2c0] = 0x40000200
        0x000002b0:    6b40        @k      LDR      r0,[r0,#0x34]
        0x000002b2:    0741        A.      LSLS     r1,r0,#29
        0x000002b4:    4803        .H      LDR      r0,[pc,#12] ; [0x2c4] = 0x20000000
        0x000002b6:    0f49        I.      LSRS     r1,r1,#29
        0x000002b8:    6800        .h      LDR      r0,[r0,#0]
        0x000002ba:    40c8        .@      LSRS     r0,r0,r1
        0x000002bc:    bd10        ..      POP      {r4,pc}
    $d
        0x000002be:    0000        ..      DCW    0
        0x000002c0:    40000200    ...@    DCD    1073742336
        0x000002c4:    20000000    ...     DCD    536870912
    $t
    i.CLK_GetPCLK1Freq
    CLK_GetPCLK1Freq
        0x000002c8:    b510        ..      PUSH     {r4,lr}
        0x000002ca:    f000fa2d    ..-.    BL       SystemCoreClockUpdate ; 0x728
        0x000002ce:    4804        .H      LDR      r0,[pc,#16] ; [0x2e0] = 0x40000200
        0x000002d0:    6b40        @k      LDR      r0,[r0,#0x34]
        0x000002d2:    0640        @.      LSLS     r0,r0,#25
        0x000002d4:    0f41        A.      LSRS     r1,r0,#29
        0x000002d6:    4803        .H      LDR      r0,[pc,#12] ; [0x2e4] = 0x20000000
        0x000002d8:    6800        .h      LDR      r0,[r0,#0]
        0x000002da:    40c8        .@      LSRS     r0,r0,r1
        0x000002dc:    bd10        ..      POP      {r4,pc}
    $d
        0x000002de:    0000        ..      DCW    0
        0x000002e0:    40000200    ...@    DCD    1073742336
        0x000002e4:    20000000    ...     DCD    536870912
    $t
    i.CLK_GetPLLClockFreq
    CLK_GetPLLClockFreq
        0x000002e8:    b508        ..      PUSH     {r3,lr}
        0x000002ea:    a011        ..      ADR      r0,{pc}+0x46 ; 0x330
        0x000002ec:    6800        .h      LDR      r0,[r0,#0]
        0x000002ee:    4911        .I      LDR      r1,[pc,#68] ; [0x334] = 0x40000240
        0x000002f0:    9000        ..      STR      r0,[sp,#0]
        0x000002f2:    6809        .h      LDR      r1,[r1,#0]
        0x000002f4:    2000        .       MOVS     r0,#0
        0x000002f6:    2205        ."      MOVS     r2,#5
        0x000002f8:    0412        ..      LSLS     r2,r2,#16
        0x000002fa:    4211        .B      TST      r1,r2
        0x000002fc:    d116        ..      BNE      0x32c ; CLK_GetPLLClockFreq + 68
        0x000002fe:    0308        ..      LSLS     r0,r1,#12
        0x00000300:    d501        ..      BPL      0x306 ; CLK_GetPLLClockFreq + 30
        0x00000302:    480d        .H      LDR      r0,[pc,#52] ; [0x338] = 0xb71b00
        0x00000304:    e000        ..      B        0x308 ; CLK_GetPLLClockFreq + 32
        0x00000306:    480d        .H      LDR      r0,[pc,#52] ; [0x33c] = 0x1e84800
        0x00000308:    038a        ..      LSLS     r2,r1,#14
        0x0000030a:    d40f        ..      BMI      0x32c ; CLK_GetPLLClockFreq + 68
        0x0000030c:    040a        ..      LSLS     r2,r1,#16
        0x0000030e:    0f92        ..      LSRS     r2,r2,#30
        0x00000310:    466b        kF      MOV      r3,sp
        0x00000312:    5c9b        .\      LDRB     r3,[r3,r2]
        0x00000314:    05ca        ..      LSLS     r2,r1,#23
        0x00000316:    0489        ..      LSLS     r1,r1,#18
        0x00000318:    0dd2        ..      LSRS     r2,r2,#23
        0x0000031a:    0ec9        ..      LSRS     r1,r1,#27
        0x0000031c:    1c89        ..      ADDS     r1,r1,#2
        0x0000031e:    0880        ..      LSRS     r0,r0,#2
        0x00000320:    1c92        ..      ADDS     r2,r2,#2
        0x00000322:    4359        YC      MULS     r1,r3,r1
        0x00000324:    4350        PC      MULS     r0,r2,r0
        0x00000326:    f7ffff13    ....    BL       __aeabi_uidiv ; 0x150
        0x0000032a:    0080        ..      LSLS     r0,r0,#2
        0x0000032c:    bd08        ..      POP      {r3,pc}
    $d
        0x0000032e:    0000        ..      DCW    0
        0x00000330:    04020201    ....    DCD    67240449
        0x00000334:    40000240    @..@    DCD    1073742400
        0x00000338:    00b71b00    ....    DCD    12000000
        0x0000033c:    01e84800    .H..    DCD    32000000
    $t
    i.CLK_SetHCLK
    CLK_SetHCLK
        0x00000340:    b5f3        ..      PUSH     {r0,r1,r4-r7,lr}
        0x00000342:    4812        .H      LDR      r0,[pc,#72] ; [0x38c] = 0x40000240
        0x00000344:    b081        ..      SUB      sp,sp,#4
        0x00000346:    6905        .i      LDR      r5,[r0,#0x10]
        0x00000348:    460f        .F      MOV      r7,r1
        0x0000034a:    2010        .       MOVS     r0,#0x10
        0x0000034c:    4c0f        .L      LDR      r4,[pc,#60] ; [0x38c] = 0x40000240
        0x0000034e:    4005        .@      ANDS     r5,r5,r0
        0x00000350:    3c40        @<      SUBS     r4,r4,#0x40
        0x00000352:    6820         h      LDR      r0,[r4,#0]
        0x00000354:    2604        .&      MOVS     r6,#4
        0x00000356:    4330        0C      ORRS     r0,r0,r6
        0x00000358:    6020         `      STR      r0,[r4,#0]
        0x0000035a:    2010        .       MOVS     r0,#0x10
        0x0000035c:    f000f850    ..P.    BL       CLK_WaitClockReady ; 0x400
        0x00000360:    6920         i      LDR      r0,[r4,#0x10]
        0x00000362:    2107        .!      MOVS     r1,#7
        0x00000364:    4308        .C      ORRS     r0,r0,r1
        0x00000366:    6120         a      STR      r0,[r4,#0x10]
        0x00000368:    6a20         j      LDR      r0,[r4,#0x20]
        0x0000036a:    0900        ..      LSRS     r0,r0,#4
        0x0000036c:    0100        ..      LSLS     r0,r0,#4
        0x0000036e:    4338        8C      ORRS     r0,r0,r7
        0x00000370:    6220         b      STR      r0,[r4,#0x20]
        0x00000372:    6920         i      LDR      r0,[r4,#0x10]
        0x00000374:    4388        .C      BICS     r0,r0,r1
        0x00000376:    9901        ..      LDR      r1,[sp,#4]
        0x00000378:    4308        .C      ORRS     r0,r0,r1
        0x0000037a:    6120         a      STR      r0,[r4,#0x10]
        0x0000037c:    f000f9d4    ....    BL       SystemCoreClockUpdate ; 0x728
        0x00000380:    2d00        .-      CMP      r5,#0
        0x00000382:    d102        ..      BNE      0x38a ; CLK_SetHCLK + 74
        0x00000384:    6820         h      LDR      r0,[r4,#0]
        0x00000386:    43b0        .C      BICS     r0,r0,r6
        0x00000388:    6020         `      STR      r0,[r4,#0]
        0x0000038a:    bdfe        ..      POP      {r1-r7,pc}
    $d
        0x0000038c:    40000240    @..@    DCD    1073742400
    $t
    i.CLK_SetModuleClock
    CLK_SetModuleClock
        0x00000390:    b5f0        ..      PUSH     {r4-r7,lr}
        0x00000392:    4b19        .K      LDR      r3,[pc,#100] ; [0x3f8] = 0x2128
        0x00000394:    b088        ..      SUB      sp,sp,#0x20
        0x00000396:    cbf0        ..      LDM      r3!,{r4-r7}
        0x00000398:    9400        ..      STR      r4,[sp,#0]
        0x0000039a:    ac01        ..      ADD      r4,sp,#4
        0x0000039c:    c4e0        ..      STM      r4!,{r5-r7}
        0x0000039e:    cb78        x.      LDM      r3,{r3-r6}
        0x000003a0:    af04        ..      ADD      r7,sp,#0x10
        0x000003a2:    c778        x.      STM      r7!,{r3-r6}
        0x000003a4:    0a84        ..      LSRS     r4,r0,#10
        0x000003a6:    0623        #.      LSLS     r3,r4,#24
        0x000003a8:    0e1b        ..      LSRS     r3,r3,#24
        0x000003aa:    d00e        ..      BEQ      0x3ca ; CLK_SetModuleClock + 58
        0x000003ac:    0303        ..      LSLS     r3,r0,#12
        0x000003ae:    0f9b        ..      LSRS     r3,r3,#30
        0x000003b0:    009b        ..      LSLS     r3,r3,#2
        0x000003b2:    ad04        ..      ADD      r5,sp,#0x10
        0x000003b4:    58eb        .X      LDR      r3,[r5,r3]
        0x000003b6:    4d11        .M      LDR      r5,[pc,#68] ; [0x3fc] = 0x40000220
        0x000003b8:    195b        [.      ADDS     r3,r3,r5
        0x000003ba:    b2e5        ..      UXTB     r5,r4
        0x000003bc:    0584        ..      LSLS     r4,r0,#22
        0x000003be:    0ee4        ..      LSRS     r4,r4,#27
        0x000003c0:    40a5        .@      LSLS     r5,r5,r4
        0x000003c2:    681c        .h      LDR      r4,[r3,#0]
        0x000003c4:    43ac        .C      BICS     r4,r4,r5
        0x000003c6:    4314        .C      ORRS     r4,r4,r2
        0x000003c8:    601c        .`      STR      r4,[r3,#0]
        0x000003ca:    0e42        B.      LSRS     r2,r0,#25
        0x000003cc:    0752        R.      LSLS     r2,r2,#29
        0x000003ce:    d010        ..      BEQ      0x3f2 ; CLK_SetModuleClock + 98
        0x000003d0:    0082        ..      LSLS     r2,r0,#2
        0x000003d2:    0f92        ..      LSRS     r2,r2,#30
        0x000003d4:    0092        ..      LSLS     r2,r2,#2
        0x000003d6:    466b        kF      MOV      r3,sp
        0x000003d8:    589a        .X      LDR      r2,[r3,r2]
        0x000003da:    4b08        .K      LDR      r3,[pc,#32] ; [0x3fc] = 0x40000220
        0x000003dc:    3b10        .;      SUBS     r3,r3,#0x10
        0x000003de:    18d2        ..      ADDS     r2,r2,r3
        0x000003e0:    0103        ..      LSLS     r3,r0,#4
        0x000003e2:    0f5b        [.      LSRS     r3,r3,#29
        0x000003e4:    01c0        ..      LSLS     r0,r0,#7
        0x000003e6:    0ec0        ..      LSRS     r0,r0,#27
        0x000003e8:    4083        .@      LSLS     r3,r3,r0
        0x000003ea:    6810        .h      LDR      r0,[r2,#0]
        0x000003ec:    4398        .C      BICS     r0,r0,r3
        0x000003ee:    4308        .C      ORRS     r0,r0,r1
        0x000003f0:    6010        .`      STR      r0,[r2,#0]
        0x000003f2:    b008        ..      ADD      sp,sp,#0x20
        0x000003f4:    bdf0        ..      POP      {r4-r7,pc}
    $d
        0x000003f6:    0000        ..      DCW    0
        0x000003f8:    00002128    (!..    DCD    8488
        0x000003fc:    40000220     ..@    DCD    1073742368
    $t
    i.CLK_WaitClockReady
    CLK_WaitClockReady
        0x00000400:    b570        p.      PUSH     {r4-r6,lr}
        0x00000402:    4605        .F      MOV      r5,r0
        0x00000404:    480b        .H      LDR      r0,[pc,#44] ; [0x434] = 0x20000000
        0x00000406:    2201        ."      MOVS     r2,#1
        0x00000408:    6800        .h      LDR      r0,[r0,#0]
        0x0000040a:    4b0b        .K      LDR      r3,[pc,#44] ; [0x438] = 0x2000000c
        0x0000040c:    0841        A.      LSRS     r1,r0,#1
        0x0000040e:    2000        .       MOVS     r0,#0
        0x00000410:    4c0a        .L      LDR      r4,[pc,#40] ; [0x43c] = 0x40000240
        0x00000412:    6018        .`      STR      r0,[r3,#0]
        0x00000414:    e001        ..      B        0x41a ; CLK_WaitClockReady + 26
        0x00000416:    1e49        I.      SUBS     r1,r1,#1
        0x00000418:    d006        ..      BEQ      0x428 ; CLK_WaitClockReady + 40
        0x0000041a:    6926        &i      LDR      r6,[r4,#0x10]
        0x0000041c:    4628        (F      MOV      r0,r5
        0x0000041e:    43b0        .C      BICS     r0,r0,r6
        0x00000420:    d1f9        ..      BNE      0x416 ; CLK_WaitClockReady + 22
        0x00000422:    2900        .)      CMP      r1,#0
        0x00000424:    d001        ..      BEQ      0x42a ; CLK_WaitClockReady + 42
        0x00000426:    e003        ..      B        0x430 ; CLK_WaitClockReady + 48
        0x00000428:    2200        ."      MOVS     r2,#0
        0x0000042a:    2000        .       MOVS     r0,#0
        0x0000042c:    43c0        .C      MVNS     r0,r0
        0x0000042e:    6018        .`      STR      r0,[r3,#0]
        0x00000430:    4610        .F      MOV      r0,r2
        0x00000432:    bd70        p.      POP      {r4-r6,pc}
    $d
        0x00000434:    20000000    ...     DCD    536870912
        0x00000438:    2000000c    ...     DCD    536870924
        0x0000043c:    40000240    @..@    DCD    1073742400
    $t
    i.Clock_Init
    Clock_Init
        0x00000440:    b510        ..      PUSH     {r4,lr}
        0x00000442:    f000f8bb    ....    BL       MyProject_init_base ; 0x5bc
        0x00000446:    2002        .       MOVS     r0,#2
        0x00000448:    f7ffff0e    ....    BL       CLK_EnableModuleClock ; 0x268
        0x0000044c:    f000f91a    ....    BL       MyProject_init_tmr0 ; 0x684
        0x00000450:    f000f926    ..&.    BL       MyProject_init_uart0 ; 0x6a0
        0x00000454:    f000f968    ..h.    BL       SystemCoreClockUpdate ; 0x728
        0x00000458:    bd10        ..      POP      {r4,pc}
        0x0000045a:    0000        ..      MOVS     r0,r0
    i.GPIO_Init
    GPIO_Init
        0x0000045c:    b508        ..      PUSH     {r3,lr}
        0x0000045e:    2000        .       MOVS     r0,#0
        0x00000460:    4a21        !J      LDR      r2,[pc,#132] ; [0x4e8] = 0x40004440
        0x00000462:    212f        /!      MOVS     r1,#0x2f
        0x00000464:    9000        ..      STR      r0,[sp,#0]
        0x00000466:    6011        .`      STR      r1,[r2,#0]
        0x00000468:    4920         I      LDR      r1,[pc,#128] ; [0x4ec] = 0x40004000
        0x0000046a:    6048        H`      STR      r0,[r1,#4]
        0x0000046c:    6088        .`      STR      r0,[r1,#8]
        0x0000046e:    4a20         J      LDR      r2,[pc,#128] ; [0x4f0] = 0xcff
        0x00000470:    60ca        .`      STR      r2,[r1,#0xc]
        0x00000472:    4a20         J      LDR      r2,[pc,#128] ; [0x4f4] = 0x505555
        0x00000474:    600a        .`      STR      r2,[r1,#0]
        0x00000476:    6148        Ha      STR      r0,[r1,#0x14]
        0x00000478:    6188        .a      STR      r0,[r1,#0x18]
        0x0000047a:    61c8        .a      STR      r0,[r1,#0x1c]
        0x0000047c:    69ca        .i      LDR      r2,[r1,#0x1c]
        0x0000047e:    61ca        .a      STR      r2,[r1,#0x1c]
        0x00000480:    491a        .I      LDR      r1,[pc,#104] ; [0x4ec] = 0x40004000
        0x00000482:    3140        @1      ADDS     r1,r1,#0x40
        0x00000484:    6048        H`      STR      r0,[r1,#4]
        0x00000486:    6088        .`      STR      r0,[r1,#8]
        0x00000488:    4a1b        .J      LDR      r2,[pc,#108] ; [0x4f8] = 0xffff
        0x0000048a:    60ca        .`      STR      r2,[r1,#0xc]
        0x0000048c:    4a1b        .J      LDR      r2,[pc,#108] ; [0x4fc] = 0x55555555
        0x0000048e:    600a        .`      STR      r2,[r1,#0]
        0x00000490:    6148        Ha      STR      r0,[r1,#0x14]
        0x00000492:    6188        .a      STR      r0,[r1,#0x18]
        0x00000494:    61c8        .a      STR      r0,[r1,#0x1c]
        0x00000496:    69ca        .i      LDR      r2,[r1,#0x1c]
        0x00000498:    61ca        .a      STR      r2,[r1,#0x1c]
        0x0000049a:    4914        .I      LDR      r1,[pc,#80] ; [0x4ec] = 0x40004000
        0x0000049c:    3180        .1      ADDS     r1,r1,#0x80
        0x0000049e:    6048        H`      STR      r0,[r1,#4]
        0x000004a0:    2203        ."      MOVS     r2,#3
        0x000004a2:    608a        .`      STR      r2,[r1,#8]
        0x000004a4:    23c8        .#      MOVS     r3,#0xc8
        0x000004a6:    60cb        .`      STR      r3,[r1,#0xc]
        0x000004a8:    4b15        .K      LDR      r3,[pc,#84] ; [0x500] = 0x5040
        0x000004aa:    600b        .`      STR      r3,[r1,#0]
        0x000004ac:    614a        Ja      STR      r2,[r1,#0x14]
        0x000004ae:    6188        .a      STR      r0,[r1,#0x18]
        0x000004b0:    61c8        .a      STR      r0,[r1,#0x1c]
        0x000004b2:    69ca        .i      LDR      r2,[r1,#0x1c]
        0x000004b4:    61ca        .a      STR      r2,[r1,#0x1c]
        0x000004b6:    490d        .I      LDR      r1,[pc,#52] ; [0x4ec] = 0x40004000
        0x000004b8:    31c0        .1      ADDS     r1,r1,#0xc0
        0x000004ba:    6048        H`      STR      r0,[r1,#4]
        0x000004bc:    220f        ."      MOVS     r2,#0xf
        0x000004be:    608a        .`      STR      r2,[r1,#8]
        0x000004c0:    60c8        .`      STR      r0,[r1,#0xc]
        0x000004c2:    6008        .`      STR      r0,[r1,#0]
        0x000004c4:    614a        Ja      STR      r2,[r1,#0x14]
        0x000004c6:    6188        .a      STR      r0,[r1,#0x18]
        0x000004c8:    61c8        .a      STR      r0,[r1,#0x1c]
        0x000004ca:    69ca        .i      LDR      r2,[r1,#0x1c]
        0x000004cc:    61ca        .a      STR      r2,[r1,#0x1c]
        0x000004ce:    490d        .I      LDR      r1,[pc,#52] ; [0x504] = 0x40004140
        0x000004d0:    6048        H`      STR      r0,[r1,#4]
        0x000004d2:    6088        .`      STR      r0,[r1,#8]
        0x000004d4:    4a0c        .J      LDR      r2,[pc,#48] ; [0x508] = 0x4070
        0x000004d6:    60ca        .`      STR      r2,[r1,#0xc]
        0x000004d8:    4a0c        .J      LDR      r2,[pc,#48] ; [0x50c] = 0x10001500
        0x000004da:    600a        .`      STR      r2,[r1,#0]
        0x000004dc:    6148        Ha      STR      r0,[r1,#0x14]
        0x000004de:    6188        .a      STR      r0,[r1,#0x18]
        0x000004e0:    61c8        .a      STR      r0,[r1,#0x1c]
        0x000004e2:    69c8        .i      LDR      r0,[r1,#0x1c]
        0x000004e4:    61c8        .a      STR      r0,[r1,#0x1c]
        0x000004e6:    bd08        ..      POP      {r3,pc}
    $d
        0x000004e8:    40004440    @D.@    DCD    1073759296
        0x000004ec:    40004000    .@.@    DCD    1073758208
        0x000004f0:    00000cff    ....    DCD    3327
        0x000004f4:    00505555    UUP.    DCD    5264725
        0x000004f8:    0000ffff    ....    DCD    65535
        0x000004fc:    55555555    UUUU    DCD    1431655765
        0x00000500:    00005040    @P..    DCD    20544
        0x00000504:    40004140    @A.@    DCD    1073758528
        0x00000508:    00004070    p@..    DCD    16496
        0x0000050c:    10001500    ....    DCD    268440832
    $t
    i.GetBoardID
    GetBoardID
        0x00000510:    b510        ..      PUSH     {r4,lr}
        0x00000512:    491d        .I      LDR      r1,[pc,#116] ; [0x588] = 0x400048c0
        0x00000514:    680b        .h      LDR      r3,[r1,#0]
        0x00000516:    2201        ."      MOVS     r2,#1
        0x00000518:    481c        .H      LDR      r0,[pc,#112] ; [0x58c] = 0x20000014
        0x0000051a:    2b00        .+      CMP      r3,#0
        0x0000051c:    d102        ..      BNE      0x524 ; GetBoardID + 20
        0x0000051e:    78c3        .x      LDRB     r3,[r0,#3]
        0x00000520:    4313        .C      ORRS     r3,r3,r2
        0x00000522:    70c3        .p      STRB     r3,[r0,#3]
        0x00000524:    684b        Kh      LDR      r3,[r1,#4]
        0x00000526:    2b00        .+      CMP      r3,#0
        0x00000528:    d103        ..      BNE      0x532 ; GetBoardID + 34
        0x0000052a:    78c3        .x      LDRB     r3,[r0,#3]
        0x0000052c:    2402        .$      MOVS     r4,#2
        0x0000052e:    4323        #C      ORRS     r3,r3,r4
        0x00000530:    70c3        .p      STRB     r3,[r0,#3]
        0x00000532:    688b        .h      LDR      r3,[r1,#8]
        0x00000534:    2b00        .+      CMP      r3,#0
        0x00000536:    d103        ..      BNE      0x540 ; GetBoardID + 48
        0x00000538:    78c3        .x      LDRB     r3,[r0,#3]
        0x0000053a:    2404        .$      MOVS     r4,#4
        0x0000053c:    4323        #C      ORRS     r3,r3,r4
        0x0000053e:    70c3        .p      STRB     r3,[r0,#3]
        0x00000540:    68c9        .h      LDR      r1,[r1,#0xc]
        0x00000542:    2900        .)      CMP      r1,#0
        0x00000544:    d103        ..      BNE      0x54e ; GetBoardID + 62
        0x00000546:    78c1        .x      LDRB     r1,[r0,#3]
        0x00000548:    2308        .#      MOVS     r3,#8
        0x0000054a:    4319        .C      ORRS     r1,r1,r3
        0x0000054c:    70c1        .p      STRB     r1,[r0,#3]
        0x0000054e:    490e        .I      LDR      r1,[pc,#56] ; [0x588] = 0x400048c0
        0x00000550:    3940        @9      SUBS     r1,r1,#0x40
        0x00000552:    680b        .h      LDR      r3,[r1,#0]
        0x00000554:    2b00        .+      CMP      r3,#0
        0x00000556:    d103        ..      BNE      0x560 ; GetBoardID + 80
        0x00000558:    78c3        .x      LDRB     r3,[r0,#3]
        0x0000055a:    2410        .$      MOVS     r4,#0x10
        0x0000055c:    4323        #C      ORRS     r3,r3,r4
        0x0000055e:    70c3        .p      STRB     r3,[r0,#3]
        0x00000560:    6849        Ih      LDR      r1,[r1,#4]
        0x00000562:    2900        .)      CMP      r1,#0
        0x00000564:    d103        ..      BNE      0x56e ; GetBoardID + 94
        0x00000566:    78c1        .x      LDRB     r1,[r0,#3]
        0x00000568:    2320         #      MOVS     r3,#0x20
        0x0000056a:    4319        .C      ORRS     r1,r1,r3
        0x0000056c:    70c1        .p      STRB     r1,[r0,#3]
        0x0000056e:    7801        .x      LDRB     r1,[r0,#0]
        0x00000570:    0049        I.      LSLS     r1,r1,#1
        0x00000572:    7041        Ap      STRB     r1,[r0,#1]
        0x00000574:    7841        Ax      LDRB     r1,[r0,#1]
        0x00000576:    1cc9        ..      ADDS     r1,r1,#3
        0x00000578:    7081        .p      STRB     r1,[r0,#2]
        0x0000057a:    70c2        .p      STRB     r2,[r0,#3]
        0x0000057c:    78c1        .x      LDRB     r1,[r0,#3]
        0x0000057e:    a004        ..      ADR      r0,{pc}+0x12 ; 0x590
        0x00000580:    f000fc74    ..t.    BL       __0printf$5 ; 0xe6c
        0x00000584:    bd10        ..      POP      {r4,pc}
    $d
        0x00000586:    0000        ..      DCW    0
        0x00000588:    400048c0    .H.@    DCD    1073760448
        0x0000058c:    20000014    ...     DCD    536870932
        0x00000590:    00006425    %d..    DCD    25637
    $t
    i.Hard_Fault_Handler
    Hard_Fault_Handler
    __tagsym$$used
        0x00000594:    4604        .F      MOV      r4,r0
        0x00000596:    a003        ..      ADR      r0,{pc}+0xe ; 0x5a4
        0x00000598:    f000fc68    ..h.    BL       __0printf$5 ; 0xe6c
        0x0000059c:    4620         F      MOV      r0,r4
        0x0000059e:    f001fd5f    .._.    BL       stackDump ; 0x2060
        0x000005a2:    e7fe        ..      B        0x5a2 ; Hard_Fault_Handler + 14
    $d
        0x000005a4:    48206e49    In H    DCD    1210084937
        0x000005a8:    20647261    ard     DCD    543453793
        0x000005ac:    6c756146    Faul    DCD    1819631942
        0x000005b0:    61482074    t Ha    DCD    1632116852
        0x000005b4:    656c646e    ndle    DCD    1701602414
        0x000005b8:    00000a72    r...    DCD    2674
    $t
    i.MyProject_init_base
    MyProject_init_base
        0x000005bc:    b510        ..      PUSH     {r4,lr}
        0x000005be:    2004        .       MOVS     r0,#4
        0x000005c0:    f7fffe6a    ..j.    BL       CLK_EnableXtalRC ; 0x298
        0x000005c4:    2010        .       MOVS     r0,#0x10
        0x000005c6:    f7ffff1b    ....    BL       CLK_WaitClockReady ; 0x400
        0x000005ca:    2100        .!      MOVS     r1,#0
        0x000005cc:    2007        .       MOVS     r0,#7
        0x000005ce:    f7fffeb7    ....    BL       CLK_SetHCLK ; 0x340
        0x000005d2:    4902        .I      LDR      r1,[pc,#8] ; [0x5dc] = 0x40000200
        0x000005d4:    2000        .       MOVS     r0,#0
        0x000005d6:    6348        Hc      STR      r0,[r1,#0x34]
        0x000005d8:    bd10        ..      POP      {r4,pc}
    $d
        0x000005da:    0000        ..      DCW    0
        0x000005dc:    40000200    ...@    DCD    1073742336
    $t
    i.MyProject_init_ice
    MyProject_init_ice
        0x000005e0:    4804        .H      LDR      r0,[pc,#16] ; [0x5f4] = 0x40000040
        0x000005e2:    6981        .i      LDR      r1,[r0,#0x18]
        0x000005e4:    0a09        ..      LSRS     r1,r1,#8
        0x000005e6:    0209        ..      LSLS     r1,r1,#8
        0x000005e8:    6181        .a      STR      r1,[r0,#0x18]
        0x000005ea:    6981        .i      LDR      r1,[r0,#0x18]
        0x000005ec:    22ee        ."      MOVS     r2,#0xee
        0x000005ee:    4311        .C      ORRS     r1,r1,r2
        0x000005f0:    6181        .a      STR      r1,[r0,#0x18]
        0x000005f2:    4770        pG      BX       lr
    $d
        0x000005f4:    40000040    @..@    DCD    1073741888
    $t
    i.MyProject_init_pa
    MyProject_init_pa
        0x000005f8:    2001        .       MOVS     r0,#1
        0x000005fa:    0780        ..      LSLS     r0,r0,#30
        0x000005fc:    6b41        Ak      LDR      r1,[r0,#0x34]
        0x000005fe:    22ff        ."      MOVS     r2,#0xff
        0x00000600:    0212        ..      LSLS     r2,r2,#8
        0x00000602:    4391        .C      BICS     r1,r1,r2
        0x00000604:    6341        Ac      STR      r1,[r0,#0x34]
        0x00000606:    6b41        Ak      LDR      r1,[r0,#0x34]
        0x00000608:    6341        Ac      STR      r1,[r0,#0x34]
        0x0000060a:    6b01        .k      LDR      r1,[r0,#0x30]
        0x0000060c:    2100        .!      MOVS     r1,#0
        0x0000060e:    6301        .c      STR      r1,[r0,#0x30]
        0x00000610:    6b01        .k      LDR      r1,[r0,#0x30]
        0x00000612:    6301        .c      STR      r1,[r0,#0x30]
        0x00000614:    4770        pG      BX       lr
    i.MyProject_init_pb
    MyProject_init_pb
        0x00000616:    2001        .       MOVS     r0,#1
        0x00000618:    0780        ..      LSLS     r0,r0,#30
        0x0000061a:    6bc1        .k      LDR      r1,[r0,#0x3c]
        0x0000061c:    2100        .!      MOVS     r1,#0
        0x0000061e:    63c1        .c      STR      r1,[r0,#0x3c]
        0x00000620:    6bc2        .k      LDR      r2,[r0,#0x3c]
        0x00000622:    63c2        .c      STR      r2,[r0,#0x3c]
        0x00000624:    6b82        .k      LDR      r2,[r0,#0x38]
        0x00000626:    6381        .c      STR      r1,[r0,#0x38]
        0x00000628:    6b81        .k      LDR      r1,[r0,#0x38]
        0x0000062a:    6381        .c      STR      r1,[r0,#0x38]
        0x0000062c:    4770        pG      BX       lr
        0x0000062e:    0000        ..      MOVS     r0,r0
    i.MyProject_init_pc
    MyProject_init_pc
        0x00000630:    4803        .H      LDR      r0,[pc,#12] ; [0x640] = 0x40000040
        0x00000632:    6801        .h      LDR      r1,[r0,#0]
        0x00000634:    4a03        .J      LDR      r2,[pc,#12] ; [0x644] = 0xff0f00
        0x00000636:    4011        .@      ANDS     r1,r1,r2
        0x00000638:    6001        .`      STR      r1,[r0,#0]
        0x0000063a:    6801        .h      LDR      r1,[r0,#0]
        0x0000063c:    6001        .`      STR      r1,[r0,#0]
        0x0000063e:    4770        pG      BX       lr
    $d
        0x00000640:    40000040    @..@    DCD    1073741888
        0x00000644:    00ff0f00    ....    DCD    16715520
    $t
    i.MyProject_init_pd
    MyProject_init_pd
        0x00000648:    4803        .H      LDR      r0,[pc,#12] ; [0x658] = 0x40000040
        0x0000064a:    6881        .h      LDR      r1,[r0,#8]
        0x0000064c:    0c09        ..      LSRS     r1,r1,#16
        0x0000064e:    0409        ..      LSLS     r1,r1,#16
        0x00000650:    6081        .`      STR      r1,[r0,#8]
        0x00000652:    6881        .h      LDR      r1,[r0,#8]
        0x00000654:    6081        .`      STR      r1,[r0,#8]
        0x00000656:    4770        pG      BX       lr
    $d
        0x00000658:    40000040    @..@    DCD    1073741888
    $t
    i.MyProject_init_pf
    MyProject_init_pf
        0x0000065c:    4807        .H      LDR      r0,[pc,#28] ; [0x67c] = 0x40000040
        0x0000065e:    69c1        .i      LDR      r1,[r0,#0x1c]
        0x00000660:    220f        ."      MOVS     r2,#0xf
        0x00000662:    0612        ..      LSLS     r2,r2,#24
        0x00000664:    4391        .C      BICS     r1,r1,r2
        0x00000666:    61c1        .a      STR      r1,[r0,#0x1c]
        0x00000668:    69c1        .i      LDR      r1,[r0,#0x1c]
        0x0000066a:    61c1        .a      STR      r1,[r0,#0x1c]
        0x0000066c:    6981        .i      LDR      r1,[r0,#0x18]
        0x0000066e:    4a04        .J      LDR      r2,[pc,#16] ; [0x680] = 0xf000ffff
        0x00000670:    4011        .@      ANDS     r1,r1,r2
        0x00000672:    6181        .a      STR      r1,[r0,#0x18]
        0x00000674:    6981        .i      LDR      r1,[r0,#0x18]
        0x00000676:    6181        .a      STR      r1,[r0,#0x18]
        0x00000678:    4770        pG      BX       lr
    $d
        0x0000067a:    0000        ..      DCW    0
        0x0000067c:    40000040    @..@    DCD    1073741888
        0x00000680:    f000ffff    ....    DCD    4026597375
    $t
    i.MyProject_init_tmr0
    MyProject_init_tmr0
        0x00000684:    b510        ..      PUSH     {r4,lr}
        0x00000686:    4c05        .L      LDR      r4,[pc,#20] ; [0x69c] = 0x5e800002
        0x00000688:    4620         F      MOV      r0,r4
        0x0000068a:    f7fffded    ....    BL       CLK_EnableModuleClock ; 0x268
        0x0000068e:    2107        .!      MOVS     r1,#7
        0x00000690:    2200        ."      MOVS     r2,#0
        0x00000692:    0209        ..      LSLS     r1,r1,#8
        0x00000694:    4620         F      MOV      r0,r4
        0x00000696:    f7fffe7b    ..{.    BL       CLK_SetModuleClock ; 0x390
        0x0000069a:    bd10        ..      POP      {r4,pc}
    $d
        0x0000069c:    5e800002    ...^    DCD    1585446914
    $t
    i.MyProject_init_uart0
    MyProject_init_uart0
        0x000006a0:    b510        ..      PUSH     {r4,lr}
        0x000006a2:    4c05        .L      LDR      r4,[pc,#20] ; [0x6b8] = 0x5f803d10
        0x000006a4:    4620         F      MOV      r0,r4
        0x000006a6:    f7fffddf    ....    BL       CLK_EnableModuleClock ; 0x268
        0x000006aa:    2101        .!      MOVS     r1,#1
        0x000006ac:    2200        ."      MOVS     r2,#0
        0x000006ae:    0689        ..      LSLS     r1,r1,#26
        0x000006b0:    4620         F      MOV      r0,r4
        0x000006b2:    f7fffe6d    ..m.    BL       CLK_SetModuleClock ; 0x390
        0x000006b6:    bd10        ..      POP      {r4,pc}
    $d
        0x000006b8:    5f803d10    .=._    DCD    1602239760
    $t
    i.MyProject_pin_init_uart0
    MyProject_pin_init_uart0
        0x000006bc:    4805        .H      LDR      r0,[pc,#20] ; [0x6d4] = 0x40000040
        0x000006be:    6981        .i      LDR      r1,[r0,#0x18]
        0x000006c0:    22ff        ."      MOVS     r2,#0xff
        0x000006c2:    0212        ..      LSLS     r2,r2,#8
        0x000006c4:    4391        .C      BICS     r1,r1,r2
        0x000006c6:    6181        .a      STR      r1,[r0,#0x18]
        0x000006c8:    6981        .i      LDR      r1,[r0,#0x18]
        0x000006ca:    2233        3"      MOVS     r2,#0x33
        0x000006cc:    0212        ..      LSLS     r2,r2,#8
        0x000006ce:    4311        .C      ORRS     r1,r1,r2
        0x000006d0:    6181        .a      STR      r1,[r0,#0x18]
        0x000006d2:    4770        pG      BX       lr
    $d
        0x000006d4:    40000040    @..@    DCD    1073741888
    $t
    i.Periph_Init
    Periph_Init
        0x000006d8:    b510        ..      PUSH     {r4,lr}
        0x000006da:    f000f9c5    ....    BL       UART0_Init ; 0xa68
        0x000006de:    f7fffebd    ....    BL       GPIO_Init ; 0x45c
        0x000006e2:    f000f89d    ....    BL       TIMER0_Init ; 0x820
        0x000006e6:    bd10        ..      POP      {r4,pc}
    i.Pin_Init
    Pin_Init
        0x000006e8:    b500        ..      PUSH     {lr}
        0x000006ea:    f7ffff79    ..y.    BL       MyProject_init_ice ; 0x5e0
        0x000006ee:    f7ffff83    ....    BL       MyProject_init_pa ; 0x5f8
        0x000006f2:    f7ffff90    ....    BL       MyProject_init_pb ; 0x616
        0x000006f6:    f7ffff9b    ....    BL       MyProject_init_pc ; 0x630
        0x000006fa:    f7ffffa5    ....    BL       MyProject_init_pd ; 0x648
        0x000006fe:    f7ffffad    ....    BL       MyProject_init_pf ; 0x65c
        0x00000702:    f7ffffdb    ....    BL       MyProject_pin_init_uart0 ; 0x6bc
        0x00000706:    bd00        ..      POP      {pc}
    i.SendChar
    SendChar
        0x00000708:    4906        .I      LDR      r1,[pc,#24] ; [0x724] = 0x40070000
        0x0000070a:    698a        .i      LDR      r2,[r1,#0x18]
        0x0000070c:    0212        ..      LSLS     r2,r2,#8
        0x0000070e:    d4fc        ..      BMI      0x70a ; SendChar + 2
        0x00000710:    280a        .(      CMP      r0,#0xa
        0x00000712:    d104        ..      BNE      0x71e ; SendChar + 22
        0x00000714:    220d        ."      MOVS     r2,#0xd
        0x00000716:    600a        .`      STR      r2,[r1,#0]
        0x00000718:    698a        .i      LDR      r2,[r1,#0x18]
        0x0000071a:    0212        ..      LSLS     r2,r2,#8
        0x0000071c:    d4fc        ..      BMI      0x718 ; SendChar + 16
        0x0000071e:    6008        .`      STR      r0,[r1,#0]
        0x00000720:    4770        pG      BX       lr
    $d
        0x00000722:    0000        ..      DCW    0
        0x00000724:    40070000    ...@    DCD    1074200576
    $t
    i.SystemCoreClockUpdate
    SystemCoreClockUpdate
        0x00000728:    b5f8        ..      PUSH     {r3-r7,lr}
        0x0000072a:    4d1d        .M      LDR      r5,[pc,#116] ; [0x7a0] = 0x40000200
        0x0000072c:    6928        (i      LDR      r0,[r5,#0x10]
        0x0000072e:    491c        .I      LDR      r1,[pc,#112] ; [0x7a0] = 0x40000200
        0x00000730:    0744        D.      LSLS     r4,r0,#29
        0x00000732:    a01c        ..      ADR      r0,{pc}+0x72 ; 0x7a4
        0x00000734:    6800        .h      LDR      r0,[r0,#0]
        0x00000736:    9000        ..      STR      r0,[sp,#0]
        0x00000738:    0f64        d.      LSRS     r4,r4,#29
        0x0000073a:    2000        .       MOVS     r0,#0
        0x0000073c:    3140        @1      ADDS     r1,r1,#0x40
        0x0000073e:    6809        .h      LDR      r1,[r1,#0]
        0x00000740:    2205        ."      MOVS     r2,#5
        0x00000742:    0412        ..      LSLS     r2,r2,#16
        0x00000744:    4211        .B      TST      r1,r2
        0x00000746:    d116        ..      BNE      0x776 ; SystemCoreClockUpdate + 78
        0x00000748:    0308        ..      LSLS     r0,r1,#12
        0x0000074a:    d501        ..      BPL      0x750 ; SystemCoreClockUpdate + 40
        0x0000074c:    4816        .H      LDR      r0,[pc,#88] ; [0x7a8] = 0xb71b00
        0x0000074e:    e000        ..      B        0x752 ; SystemCoreClockUpdate + 42
        0x00000750:    4816        .H      LDR      r0,[pc,#88] ; [0x7ac] = 0x1e84800
        0x00000752:    038a        ..      LSLS     r2,r1,#14
        0x00000754:    d40f        ..      BMI      0x776 ; SystemCoreClockUpdate + 78
        0x00000756:    040a        ..      LSLS     r2,r1,#16
        0x00000758:    0f92        ..      LSRS     r2,r2,#30
        0x0000075a:    466b        kF      MOV      r3,sp
        0x0000075c:    5c9b        .\      LDRB     r3,[r3,r2]
        0x0000075e:    05ca        ..      LSLS     r2,r1,#23
        0x00000760:    0489        ..      LSLS     r1,r1,#18
        0x00000762:    0dd2        ..      LSRS     r2,r2,#23
        0x00000764:    0ec9        ..      LSRS     r1,r1,#27
        0x00000766:    1c89        ..      ADDS     r1,r1,#2
        0x00000768:    0880        ..      LSRS     r0,r0,#2
        0x0000076a:    1c92        ..      ADDS     r2,r2,#2
        0x0000076c:    4359        YC      MULS     r1,r3,r1
        0x0000076e:    4350        PC      MULS     r0,r2,r0
        0x00000770:    f7fffcee    ....    BL       __aeabi_uidiv ; 0x150
        0x00000774:    0080        ..      LSLS     r0,r0,#2
        0x00000776:    4e0e        .N      LDR      r6,[pc,#56] ; [0x7b0] = 0x20000000
        0x00000778:    2c02        .,      CMP      r4,#2
        0x0000077a:    60b0        .`      STR      r0,[r6,#8]
        0x0000077c:    d002        ..      BEQ      0x784 ; SystemCoreClockUpdate + 92
        0x0000077e:    490d        .I      LDR      r1,[pc,#52] ; [0x7b4] = 0x2108
        0x00000780:    00a0        ..      LSLS     r0,r4,#2
        0x00000782:    5808        .X      LDR      r0,[r1,r0]
        0x00000784:    6a29        )j      LDR      r1,[r5,#0x20]
        0x00000786:    0709        ..      LSLS     r1,r1,#28
        0x00000788:    0f09        ..      LSRS     r1,r1,#28
        0x0000078a:    1c49        I.      ADDS     r1,r1,#1
        0x0000078c:    f7fffce0    ....    BL       __aeabi_uidiv ; 0x150
        0x00000790:    4909        .I      LDR      r1,[pc,#36] ; [0x7b8] = 0xf4240
        0x00000792:    6030        0`      STR      r0,[r6,#0]
        0x00000794:    104a        J.      ASRS     r2,r1,#1
        0x00000796:    1880        ..      ADDS     r0,r0,r2
        0x00000798:    f7fffcda    ....    BL       __aeabi_uidiv ; 0x150
        0x0000079c:    6070        p`      STR      r0,[r6,#4]
        0x0000079e:    bdf8        ..      POP      {r3-r7,pc}
    $d
        0x000007a0:    40000200    ...@    DCD    1073742336
        0x000007a4:    04020201    ....    DCD    67240449
        0x000007a8:    00b71b00    ....    DCD    12000000
        0x000007ac:    01e84800    .H..    DCD    32000000
        0x000007b0:    20000000    ...     DCD    536870912
        0x000007b4:    00002108    .!..    DCD    8456
        0x000007b8:    000f4240    @B..    DCD    1000000
    $t
    i.SystemInit
    SystemInit
        0x000007bc:    b510        ..      PUSH     {r4,lr}
        0x000007be:    2159        Y!      MOVS     r1,#0x59
        0x000007c0:    480a        .H      LDR      r0,[pc,#40] ; [0x7ec] = 0x40000100
        0x000007c2:    2316        .#      MOVS     r3,#0x16
        0x000007c4:    2288        ."      MOVS     r2,#0x88
        0x000007c6:    6001        .`      STR      r1,[r0,#0]
        0x000007c8:    6003        .`      STR      r3,[r0,#0]
        0x000007ca:    6002        .`      STR      r2,[r0,#0]
        0x000007cc:    6804        .h      LDR      r4,[r0,#0]
        0x000007ce:    2c00        .,      CMP      r4,#0
        0x000007d0:    d0f9        ..      BEQ      0x7c6 ; SystemInit + 10
        0x000007d2:    4907        .I      LDR      r1,[pc,#28] ; [0x7f0] = 0x40000200
        0x000007d4:    680b        .h      LDR      r3,[r1,#0]
        0x000007d6:    2207        ."      MOVS     r2,#7
        0x000007d8:    0512        ..      LSLS     r2,r2,#20
        0x000007da:    4393        .C      BICS     r3,r3,r2
        0x000007dc:    600b        .`      STR      r3,[r1,#0]
        0x000007de:    680b        .h      LDR      r3,[r1,#0]
        0x000007e0:    4313        .C      ORRS     r3,r3,r2
        0x000007e2:    600b        .`      STR      r3,[r1,#0]
        0x000007e4:    2100        .!      MOVS     r1,#0
        0x000007e6:    6001        .`      STR      r1,[r0,#0]
        0x000007e8:    bd10        ..      POP      {r4,pc}
    $d
        0x000007ea:    0000        ..      DCW    0
        0x000007ec:    40000100    ...@    DCD    1073742080
        0x000007f0:    40000200    ...@    DCD    1073742336
    $t
    i.System_Init
    System_Init
        0x000007f4:    b510        ..      PUSH     {r4,lr}
        0x000007f6:    2059        Y       MOVS     r0,#0x59
        0x000007f8:    4c08        .L      LDR      r4,[pc,#32] ; [0x81c] = 0x40000100
        0x000007fa:    2216        ."      MOVS     r2,#0x16
        0x000007fc:    2188        .!      MOVS     r1,#0x88
        0x000007fe:    6020         `      STR      r0,[r4,#0]
        0x00000800:    6022        "`      STR      r2,[r4,#0]
        0x00000802:    6021        !`      STR      r1,[r4,#0]
        0x00000804:    6823        #h      LDR      r3,[r4,#0]
        0x00000806:    2b00        .+      CMP      r3,#0
        0x00000808:    d0f9        ..      BEQ      0x7fe ; System_Init + 10
        0x0000080a:    f7fffe19    ....    BL       Clock_Init ; 0x440
        0x0000080e:    f7ffff6b    ..k.    BL       Pin_Init ; 0x6e8
        0x00000812:    f7ffff61    ..a.    BL       Periph_Init ; 0x6d8
        0x00000816:    2000        .       MOVS     r0,#0
        0x00000818:    6020         `      STR      r0,[r4,#0]
        0x0000081a:    bd10        ..      POP      {r4,pc}
    $d
        0x0000081c:    40000100    ...@    DCD    1073742080
    $t
    i.TIMER0_Init
    TIMER0_Init
        0x00000820:    b510        ..      PUSH     {r4,lr}
        0x00000822:    4c07        .L      LDR      r4,[pc,#28] ; [0x840] = 0x40050000
        0x00000824:    2204        ."      MOVS     r2,#4
        0x00000826:    0651        Q.      LSLS     r1,r2,#25
        0x00000828:    4620         F      MOV      r0,r4
        0x0000082a:    f000f867    ..g.    BL       TIMER_Open ; 0x8fc
        0x0000082e:    6821        !h      LDR      r1,[r4,#0]
        0x00000830:    2201        ."      MOVS     r2,#1
        0x00000832:    0752        R.      LSLS     r2,r2,#29
        0x00000834:    4311        .C      ORRS     r1,r1,r2
        0x00000836:    6021        !`      STR      r1,[r4,#0]
        0x00000838:    4902        .I      LDR      r1,[pc,#8] ; [0x844] = 0xe000e100
        0x0000083a:    1550        P.      ASRS     r0,r2,#21
        0x0000083c:    6008        .`      STR      r0,[r1,#0]
        0x0000083e:    bd10        ..      POP      {r4,pc}
    $d
        0x00000840:    40050000    ...@    DCD    1074069504
        0x00000844:    e000e100    ....    DCD    3758153984
    $t
    i.TIMER0_LOGIC
    TIMER0_LOGIC
        0x00000848:    b570        p.      PUSH     {r4-r6,lr}
        0x0000084a:    4c0f        .L      LDR      r4,[pc,#60] ; [0x888] = 0x20000014
        0x0000084c:    6960        `i      LDR      r0,[r4,#0x14]
        0x0000084e:    1c40        @.      ADDS     r0,r0,#1
        0x00000850:    6160        `a      STR      r0,[r4,#0x14]
        0x00000852:    6960        `i      LDR      r0,[r4,#0x14]
        0x00000854:    2500        .%      MOVS     r5,#0
        0x00000856:    2802        .(      CMP      r0,#2
        0x00000858:    d108        ..      BNE      0x86c ; TIMER0_LOGIC + 36
        0x0000085a:    f000fc91    ....    BL       changePort1 ; 0x1180
        0x0000085e:    f000fdff    ....    BL       changePort2 ; 0x1460
        0x00000862:    f000ff6d    ..m.    BL       changePort3 ; 0x1740
        0x00000866:    f001f8d7    ....    BL       changePort4 ; 0x1a18
        0x0000086a:    6165        ea      STR      r5,[r4,#0x14]
        0x0000086c:    68e0        .h      LDR      r0,[r4,#0xc]
        0x0000086e:    2800        .(      CMP      r0,#0
        0x00000870:    d008        ..      BEQ      0x884 ; TIMER0_LOGIC + 60
        0x00000872:    6920         i      LDR      r0,[r4,#0x10]
        0x00000874:    1c40        @.      ADDS     r0,r0,#1
        0x00000876:    6120         a      STR      r0,[r4,#0x10]
        0x00000878:    6920         i      LDR      r0,[r4,#0x10]
        0x0000087a:    2804        .(      CMP      r0,#4
        0x0000087c:    d902        ..      BLS      0x884 ; TIMER0_LOGIC + 60
        0x0000087e:    6125        %a      STR      r5,[r4,#0x10]
        0x00000880:    60e5        .`      STR      r5,[r4,#0xc]
        0x00000882:    60a5        .`      STR      r5,[r4,#8]
        0x00000884:    bd70        p.      POP      {r4-r6,pc}
    $d
        0x00000886:    0000        ..      DCW    0
        0x00000888:    20000014    ...     DCD    536870932
    $t
    i.TIMER_GetModuleClock
    TIMER_GetModuleClock
        0x0000088c:    b510        ..      PUSH     {r4,lr}
        0x0000088e:    b088        ..      SUB      sp,sp,#0x20
        0x00000890:    4604        .F      MOV      r4,r0
        0x00000892:    2220         "      MOVS     r2,#0x20
        0x00000894:    4915        .I      LDR      r1,[pc,#84] ; [0x8ec] = 0x2160
        0x00000896:    4668        hF      MOV      r0,sp
        0x00000898:    f7fffc70    ..p.    BL       __aeabi_memcpy ; 0x17c
        0x0000089c:    4b14        .K      LDR      r3,[pc,#80] ; [0x8f0] = 0x40050000
        0x0000089e:    4a14        .J      LDR      r2,[pc,#80] ; [0x8f0] = 0x40050000
        0x000008a0:    4814        .H      LDR      r0,[pc,#80] ; [0x8f4] = 0x40000200
        0x000008a2:    3320         3      ADDS     r3,r3,#0x20
        0x000008a4:    4294        .B      CMP      r4,r2
        0x000008a6:    d102        ..      BNE      0x8ae ; TIMER_GetModuleClock + 34
        0x000008a8:    6940        @i      LDR      r0,[r0,#0x14]
        0x000008aa:    0a00        ..      LSRS     r0,r0,#8
        0x000008ac:    e00b        ..      B        0x8c6 ; TIMER_GetModuleClock + 58
        0x000008ae:    429c        .B      CMP      r4,r3
        0x000008b0:    d102        ..      BNE      0x8b8 ; TIMER_GetModuleClock + 44
        0x000008b2:    6940        @i      LDR      r0,[r0,#0x14]
        0x000008b4:    0b00        ..      LSRS     r0,r0,#12
        0x000008b6:    e006        ..      B        0x8c6 ; TIMER_GetModuleClock + 58
        0x000008b8:    490f        .I      LDR      r1,[pc,#60] ; [0x8f8] = 0x40051000
        0x000008ba:    6940        @i      LDR      r0,[r0,#0x14]
        0x000008bc:    428c        .B      CMP      r4,r1
        0x000008be:    d101        ..      BNE      0x8c4 ; TIMER_GetModuleClock + 56
        0x000008c0:    0c00        ..      LSRS     r0,r0,#16
        0x000008c2:    e000        ..      B        0x8c6 ; TIMER_GetModuleClock + 58
        0x000008c4:    0d00        ..      LSRS     r0,r0,#20
        0x000008c6:    0741        A.      LSLS     r1,r0,#29
        0x000008c8:    0f49        I.      LSRS     r1,r1,#29
        0x000008ca:    2902        .)      CMP      r1,#2
        0x000008cc:    d004        ..      BEQ      0x8d8 ; TIMER_GetModuleClock + 76
        0x000008ce:    0088        ..      LSLS     r0,r1,#2
        0x000008d0:    4669        iF      MOV      r1,sp
        0x000008d2:    5808        .X      LDR      r0,[r1,r0]
        0x000008d4:    b008        ..      ADD      sp,sp,#0x20
        0x000008d6:    bd10        ..      POP      {r4,pc}
        0x000008d8:    4294        .B      CMP      r4,r2
        0x000008da:    d001        ..      BEQ      0x8e0 ; TIMER_GetModuleClock + 84
        0x000008dc:    429c        .B      CMP      r4,r3
        0x000008de:    d102        ..      BNE      0x8e6 ; TIMER_GetModuleClock + 90
        0x000008e0:    f7fffce2    ....    BL       CLK_GetPCLK0Freq ; 0x2a8
        0x000008e4:    e7f6        ..      B        0x8d4 ; TIMER_GetModuleClock + 72
        0x000008e6:    f7fffcef    ....    BL       CLK_GetPCLK1Freq ; 0x2c8
        0x000008ea:    e7f3        ..      B        0x8d4 ; TIMER_GetModuleClock + 72
    $d
        0x000008ec:    00002160    `!..    DCD    8544
        0x000008f0:    40050000    ...@    DCD    1074069504
        0x000008f4:    40000200    ...@    DCD    1073742336
        0x000008f8:    40051000    ...@    DCD    1074073600
    $t
    i.TIMER_Open
    TIMER_Open
        0x000008fc:    b5f7        ..      PUSH     {r0-r2,r4-r7,lr}
        0x000008fe:    4617        .F      MOV      r7,r2
        0x00000900:    4606        .F      MOV      r6,r0
        0x00000902:    f7ffffc3    ....    BL       TIMER_GetModuleClock ; 0x88c
        0x00000906:    4605        .F      MOV      r5,r0
        0x00000908:    2400        .$      MOVS     r4,#0
        0x0000090a:    0840        @.      LSRS     r0,r0,#1
        0x0000090c:    42b8        .B      CMP      r0,r7
        0x0000090e:    d801        ..      BHI      0x914 ; TIMER_Open + 24
        0x00000910:    2002        .       MOVS     r0,#2
        0x00000912:    e008        ..      B        0x926 ; TIMER_Open + 42
        0x00000914:    4639        9F      MOV      r1,r7
        0x00000916:    4628        (F      MOV      r0,r5
        0x00000918:    f7fffc1a    ....    BL       __aeabi_uidiv ; 0x150
        0x0000091c:    0e04        ..      LSRS     r4,r0,#24
        0x0000091e:    d002        ..      BEQ      0x926 ; TIMER_Open + 42
        0x00000920:    1c61        a.      ADDS     r1,r4,#1
        0x00000922:    f7fffc15    ....    BL       __aeabi_uidiv ; 0x150
        0x00000926:    9901        ..      LDR      r1,[sp,#4]
        0x00000928:    4321        !C      ORRS     r1,r1,r4
        0x0000092a:    6031        1`      STR      r1,[r6,#0]
        0x0000092c:    6070        p`      STR      r0,[r6,#4]
        0x0000092e:    1c64        d.      ADDS     r4,r4,#1
        0x00000930:    4360        `C      MULS     r0,r4,r0
        0x00000932:    4601        .F      MOV      r1,r0
        0x00000934:    4628        (F      MOV      r0,r5
        0x00000936:    f7fffc0b    ....    BL       __aeabi_uidiv ; 0x150
        0x0000093a:    bdfe        ..      POP      {r1-r7,pc}
    i.TMR0_IRQHandler
    TMR0_IRQHandler
        0x0000093c:    b510        ..      PUSH     {r4,lr}
        0x0000093e:    4805        .H      LDR      r0,[pc,#20] ; [0x954] = 0x40050000
        0x00000940:    6881        .h      LDR      r1,[r0,#8]
        0x00000942:    07c9        ..      LSLS     r1,r1,#31
        0x00000944:    0fc9        ..      LSRS     r1,r1,#31
        0x00000946:    d003        ..      BEQ      0x950 ; TMR0_IRQHandler + 20
        0x00000948:    2101        .!      MOVS     r1,#1
        0x0000094a:    6081        .`      STR      r1,[r0,#8]
        0x0000094c:    f7ffff7c    ..|.    BL       TIMER0_LOGIC ; 0x848
        0x00000950:    bd10        ..      POP      {r4,pc}
    $d
        0x00000952:    0000        ..      DCW    0
        0x00000954:    40050000    ...@    DCD    1074069504
    $t
    i.UART02_IRQHandler
    UART02_IRQHandler
        0x00000958:    b510        ..      PUSH     {r4,lr}
        0x0000095a:    f000f801    ....    BL       UART0_IRQHandler ; 0x960
        0x0000095e:    bd10        ..      POP      {r4,pc}
    i.UART0_IRQHandler
    UART0_IRQHandler
        0x00000960:    b538        8.      PUSH     {r3-r5,lr}
        0x00000962:    4d2a        *M      LDR      r5,[pc,#168] ; [0xa0c] = 0x40070000
        0x00000964:    69ec        .i      LDR      r4,[r5,#0x1c]
        0x00000966:    4829        )H      LDR      r0,[pc,#164] ; [0xa0c] = 0x40070000
        0x00000968:    3040        @0      ADDS     r0,r0,#0x40
        0x0000096a:    6840        @h      LDR      r0,[r0,#4]
        0x0000096c:    20ff        .       MOVS     r0,#0xff
        0x0000096e:    4669        iF      MOV      r1,sp
        0x00000970:    7008        .p      STRB     r0,[r1,#0]
        0x00000972:    2c00        .,      CMP      r4,#0
        0x00000974:    da01        ..      BGE      0x97a ; UART0_IRQHandler + 26
        0x00000976:    2006        .       MOVS     r0,#6
        0x00000978:    61a8        .a      STR      r0,[r5,#0x18]
        0x0000097a:    0720         .      LSLS     r0,r4,#28
        0x0000097c:    d504        ..      BPL      0x988 ; UART0_IRQHandler + 40
        0x0000097e:    2101        .!      MOVS     r1,#1
        0x00000980:    02c9        ..      LSLS     r1,r1,#11
        0x00000982:    4628        (F      MOV      r0,r5
        0x00000984:    f000f890    ....    BL       UART_ClearIntFlag ; 0xaa8
        0x00000988:    0760        `.      LSLS     r0,r4,#29
        0x0000098a:    d51a        ..      BPL      0x9c2 ; UART0_IRQHandler + 98
        0x0000098c:    69a8        .i      LDR      r0,[r5,#0x18]
        0x0000098e:    0640        @.      LSLS     r0,r0,#25
        0x00000990:    d502        ..      BPL      0x998 ; UART0_IRQHandler + 56
        0x00000992:    a01f        ..      ADR      r0,{pc}+0x7e ; 0xa10
        0x00000994:    f000fa6a    ..j.    BL       __0printf$5 ; 0xe6c
        0x00000998:    69a8        .i      LDR      r0,[r5,#0x18]
        0x0000099a:    0680        ..      LSLS     r0,r0,#26
        0x0000099c:    d502        ..      BPL      0x9a4 ; UART0_IRQHandler + 68
        0x0000099e:    a01e        ..      ADR      r0,{pc}+0x7a ; 0xa18
        0x000009a0:    f000fa64    ..d.    BL       __0printf$5 ; 0xe6c
        0x000009a4:    69a8        .i      LDR      r0,[r5,#0x18]
        0x000009a6:    06c0        ..      LSLS     r0,r0,#27
        0x000009a8:    d502        ..      BPL      0x9b0 ; UART0_IRQHandler + 80
        0x000009aa:    a01d        ..      ADR      r0,{pc}+0x76 ; 0xa20
        0x000009ac:    f000fa5e    ..^.    BL       __0printf$5 ; 0xe6c
        0x000009b0:    6829        )h      LDR      r1,[r5,#0]
        0x000009b2:    a01d        ..      ADR      r0,{pc}+0x76 ; 0xa28
        0x000009b4:    f000fa5a    ..Z.    BL       __0printf$5 ; 0xe6c
        0x000009b8:    2101        .!      MOVS     r1,#1
        0x000009ba:    0289        ..      LSLS     r1,r1,#10
        0x000009bc:    4628        (F      MOV      r0,r5
        0x000009be:    f000f873    ..s.    BL       UART_ClearIntFlag ; 0xaa8
        0x000009c2:    2011        .       MOVS     r0,#0x11
        0x000009c4:    0200        ..      LSLS     r0,r0,#8
        0x000009c6:    4204        .B      TST      r4,r0
        0x000009c8:    d106        ..      BNE      0x9d8 ; UART0_IRQHandler + 120
        0x000009ca:    e008        ..      B        0x9de ; UART0_IRQHandler + 126
        0x000009cc:    6829        )h      LDR      r1,[r5,#0]
        0x000009ce:    4668        hF      MOV      r0,sp
        0x000009d0:    7001        .p      STRB     r1,[r0,#0]
        0x000009d2:    7800        .x      LDRB     r0,[r0,#0]
        0x000009d4:    f000f888    ....    BL       UART_LOGIC ; 0xae8
        0x000009d8:    69a8        .i      LDR      r0,[r5,#0x18]
        0x000009da:    0440        @.      LSLS     r0,r0,#17
        0x000009dc:    d5f6        ..      BPL      0x9cc ; UART0_IRQHandler + 108
        0x000009de:    04a0        ..      LSLS     r0,r4,#18
        0x000009e0:    d507        ..      BPL      0x9f2 ; UART0_IRQHandler + 146
        0x000009e2:    a018        ..      ADR      r0,{pc}+0x62 ; 0xa44
        0x000009e4:    f000fa42    ..B.    BL       __0printf$5 ; 0xe6c
        0x000009e8:    2101        .!      MOVS     r1,#1
        0x000009ea:    0349        I.      LSLS     r1,r1,#13
        0x000009ec:    4628        (F      MOV      r0,r5
        0x000009ee:    f000f85b    ..[.    BL       UART_ClearIntFlag ; 0xaa8
        0x000009f2:    0660        `.      LSLS     r0,r4,#25
        0x000009f4:    d508        ..      BPL      0xa08 ; UART0_IRQHandler + 168
        0x000009f6:    a018        ..      ADR      r0,{pc}+0x62 ; 0xa58
        0x000009f8:    f000fa38    ..8.    BL       __0printf$5 ; 0xe6c
        0x000009fc:    2140        @!      MOVS     r1,#0x40
        0x000009fe:    4628        (F      MOV      r0,r5
        0x00000a00:    61e9        .a      STR      r1,[r5,#0x1c]
        0x00000a02:    0209        ..      LSLS     r1,r1,#8
        0x00000a04:    f000f850    ..P.    BL       UART_ClearIntFlag ; 0xaa8
        0x00000a08:    bd38        8.      POP      {r3-r5,pc}
    $d
        0x00000a0a:    0000        ..      DCW    0
        0x00000a0c:    40070000    ...@    DCD    1074200576
        0x00000a10:    4942200a    . BI    DCD    1229070346
        0x00000a14:    000a2046    F ..    DCD    663622
        0x00000a18:    4546200a    . FE    DCD    1162223626
        0x00000a1c:    000a2046    F ..    DCD    663622
        0x00000a20:    4550200a    . PE    DCD    1162878986
        0x00000a24:    000a2046    F ..    DCD    663622
        0x00000a28:    7245200a    . Er    DCD    1917132810
        0x00000a2c:    20726f72    ror     DCD    544370546
        0x00000a30:    61746144    Data    DCD    1635017028
        0x00000a34:    20736920     is     DCD    544434464
        0x00000a38:    25783027    '0x%    DCD    628633639
        0x00000a3c:    0a202778    x' .    DCD    169879416
        0x00000a40:    00000000    ....    DCD    0
        0x00000a44:    6675420a    .Buf    DCD    1718960650
        0x00000a48:    20726566    fer     DCD    544367974
        0x00000a4c:    6f727245    Erro    DCD    1869771333
        0x00000a50:    2e2e2e72    r...    DCD    774778482
        0x00000a54:    0000000a    ....    DCD    10
        0x00000a58:    4155200a    . UA    DCD    1096097802
        0x00000a5c:    57205452    RT W    DCD    1461736530
        0x00000a60:    2d656b61    ake-    DCD    761621345
        0x00000a64:    00207055    Up .    DCD    2125909
    $t
    i.UART0_Init
    UART0_Init
        0x00000a68:    b538        8.      PUSH     {r3-r5,lr}
        0x00000a6a:    4c0d        .L      LDR      r4,[pc,#52] ; [0xaa0] = 0x40070000
        0x00000a6c:    214b        K!      MOVS     r1,#0x4b
        0x00000a6e:    0249        I.      LSLS     r1,r1,#9
        0x00000a70:    4620         F      MOV      r0,r4
        0x00000a72:    f000f8a3    ....    BL       UART_Open ; 0xbbc
        0x00000a76:    2000        .       MOVS     r0,#0
        0x00000a78:    4603        .F      MOV      r3,r0
        0x00000a7a:    4601        .F      MOV      r1,r0
        0x00000a7c:    9000        ..      STR      r0,[sp,#0]
        0x00000a7e:    2203        ."      MOVS     r2,#3
        0x00000a80:    4620         F      MOV      r0,r4
        0x00000a82:    f000f949    ..I.    BL       UART_SetLine_Config ; 0xd18
        0x00000a86:    2101        .!      MOVS     r1,#1
        0x00000a88:    4620         F      MOV      r0,r4
        0x00000a8a:    f000f829    ..).    BL       UART_EnableInt ; 0xae0
        0x00000a8e:    68a1        .h      LDR      r1,[r4,#8]
        0x00000a90:    22f0        ."      MOVS     r2,#0xf0
        0x00000a92:    4391        .C      BICS     r1,r1,r2
        0x00000a94:    60a1        .`      STR      r1,[r4,#8]
        0x00000a96:    2001        .       MOVS     r0,#1
        0x00000a98:    4902        .I      LDR      r1,[pc,#8] ; [0xaa4] = 0xe000e100
        0x00000a9a:    0300        ..      LSLS     r0,r0,#12
        0x00000a9c:    6008        .`      STR      r0,[r1,#0]
        0x00000a9e:    bd38        8.      POP      {r3-r5,pc}
    $d
        0x00000aa0:    40070000    ...@    DCD    1074200576
        0x00000aa4:    e000e100    ....    DCD    3758153984
    $t
    i.UART_ClearIntFlag
    UART_ClearIntFlag
        0x00000aa8:    01ca        ..      LSLS     r2,r1,#7
        0x00000aaa:    d502        ..      BPL      0xab2 ; UART_ClearIntFlag + 10
        0x00000aac:    2201        ."      MOVS     r2,#1
        0x00000aae:    0412        ..      LSLS     r2,r2,#16
        0x00000ab0:    61c2        .a      STR      r2,[r0,#0x1c]
        0x00000ab2:    054a        J.      LSLS     r2,r1,#21
        0x00000ab4:    d503        ..      BPL      0xabe ; UART_ClearIntFlag + 22
        0x00000ab6:    2270        p"      MOVS     r2,#0x70
        0x00000ab8:    6182        .a      STR      r2,[r0,#0x18]
        0x00000aba:    2208        ."      MOVS     r2,#8
        0x00000abc:    6182        .a      STR      r2,[r0,#0x18]
        0x00000abe:    050a        ..      LSLS     r2,r1,#20
        0x00000ac0:    d503        ..      BPL      0xaca ; UART_ClearIntFlag + 34
        0x00000ac2:    6942        Bi      LDR      r2,[r0,#0x14]
        0x00000ac4:    2301        .#      MOVS     r3,#1
        0x00000ac6:    431a        .C      ORRS     r2,r2,r3
        0x00000ac8:    6142        Ba      STR      r2,[r0,#0x14]
        0x00000aca:    048a        ..      LSLS     r2,r1,#18
        0x00000acc:    d501        ..      BPL      0xad2 ; UART_ClearIntFlag + 42
        0x00000ace:    4a03        .J      LDR      r2,[pc,#12] ; [0xadc] = 0x1000001
        0x00000ad0:    6182        .a      STR      r2,[r0,#0x18]
        0x00000ad2:    0449        I.      LSLS     r1,r1,#17
        0x00000ad4:    d501        ..      BPL      0xada ; UART_ClearIntFlag + 50
        0x00000ad6:    211f        .!      MOVS     r1,#0x1f
        0x00000ad8:    6441        Ad      STR      r1,[r0,#0x44]
        0x00000ada:    4770        pG      BX       lr
    $d
        0x00000adc:    01000001    ....    DCD    16777217
    $t
    i.UART_EnableInt
    UART_EnableInt
        0x00000ae0:    6842        Bh      LDR      r2,[r0,#4]
        0x00000ae2:    430a        .C      ORRS     r2,r2,r1
        0x00000ae4:    6042        B`      STR      r2,[r0,#4]
        0x00000ae6:    4770        pG      BX       lr
    i.UART_LOGIC
    UART_LOGIC
        0x00000ae8:    b570        p.      PUSH     {r4-r6,lr}
        0x00000aea:    4c32        2L      LDR      r4,[pc,#200] ; [0xbb4] = 0x20000014
        0x00000aec:    4605        .F      MOV      r5,r0
        0x00000aee:    68e0        .h      LDR      r0,[r4,#0xc]
        0x00000af0:    4e31        1N      LDR      r6,[pc,#196] ; [0xbb8] = 0x2000006c
        0x00000af2:    2801        .(      CMP      r0,#1
        0x00000af4:    d150        P.      BNE      0xb98 ; UART_LOGIC + 176
        0x00000af6:    68a0        .h      LDR      r0,[r4,#8]
        0x00000af8:    5435        5T      STRB     r5,[r6,r0]
        0x00000afa:    68a1        .h      LDR      r1,[r4,#8]
        0x00000afc:    2000        .       MOVS     r0,#0
        0x00000afe:    2901        .)      CMP      r1,#1
        0x00000b00:    d10e        ..      BNE      0xb20 ; UART_LOGIC + 56
        0x00000b02:    2d03        .-      CMP      r5,#3
        0x00000b04:    d00c        ..      BEQ      0xb20 ; UART_LOGIC + 56
        0x00000b06:    2d83        .-      CMP      r5,#0x83
        0x00000b08:    d108        ..      BNE      0xb1c ; UART_LOGIC + 52
        0x00000b0a:    7821        !x      LDRB     r1,[r4,#0]
        0x00000b0c:    1e49        I.      SUBS     r1,r1,#1
        0x00000b0e:    7021        !p      STRB     r1,[r4,#0]
        0x00000b10:    7821        !x      LDRB     r1,[r4,#0]
        0x00000b12:    0049        I.      LSLS     r1,r1,#1
        0x00000b14:    7061        ap      STRB     r1,[r4,#1]
        0x00000b16:    7861        ax      LDRB     r1,[r4,#1]
        0x00000b18:    1cc9        ..      ADDS     r1,r1,#3
        0x00000b1a:    70a1        .p      STRB     r1,[r4,#2]
        0x00000b1c:    60e0        .`      STR      r0,[r4,#0xc]
        0x00000b1e:    60a0        .`      STR      r0,[r4,#8]
        0x00000b20:    68a1        .h      LDR      r1,[r4,#8]
        0x00000b22:    2902        .)      CMP      r1,#2
        0x00000b24:    d104        ..      BNE      0xb30 ; UART_LOGIC + 72
        0x00000b26:    7861        ax      LDRB     r1,[r4,#1]
        0x00000b28:    428d        .B      CMP      r5,r1
        0x00000b2a:    d001        ..      BEQ      0xb30 ; UART_LOGIC + 72
        0x00000b2c:    60e0        .`      STR      r0,[r4,#0xc]
        0x00000b2e:    60a0        .`      STR      r0,[r4,#8]
        0x00000b30:    68e1        .h      LDR      r1,[r4,#0xc]
        0x00000b32:    2901        .)      CMP      r1,#1
        0x00000b34:    d102        ..      BNE      0xb3c ; UART_LOGIC + 84
        0x00000b36:    68a1        .h      LDR      r1,[r4,#8]
        0x00000b38:    1c49        I.      ADDS     r1,r1,#1
        0x00000b3a:    60a1        .`      STR      r1,[r4,#8]
        0x00000b3c:    68a1        .h      LDR      r1,[r4,#8]
        0x00000b3e:    78a2        .x      LDRB     r2,[r4,#2]
        0x00000b40:    4291        .B      CMP      r1,r2
        0x00000b42:    d129        ).      BNE      0xb98 ; UART_LOGIC + 176
        0x00000b44:    60e0        .`      STR      r0,[r4,#0xc]
        0x00000b46:    60a0        .`      STR      r0,[r4,#8]
        0x00000b48:    78e0        .x      LDRB     r0,[r4,#3]
        0x00000b4a:    0041        A.      LSLS     r1,r0,#1
        0x00000b4c:    1840        @.      ADDS     r0,r0,r1
        0x00000b4e:    78e1        .x      LDRB     r1,[r4,#3]
        0x00000b50:    1840        @.      ADDS     r0,r0,r1
        0x00000b52:    1e40        @.      SUBS     r0,r0,#1
        0x00000b54:    7120         q      STRB     r0,[r4,#4]
        0x00000b56:    7920         y      LDRB     r0,[r4,#4]
        0x00000b58:    1c40        @.      ADDS     r0,r0,#1
        0x00000b5a:    7160        `q      STRB     r0,[r4,#5]
        0x00000b5c:    7960        `y      LDRB     r0,[r4,#5]
        0x00000b5e:    1c40        @.      ADDS     r0,r0,#1
        0x00000b60:    71a0        .q      STRB     r0,[r4,#6]
        0x00000b62:    79a0        .y      LDRB     r0,[r4,#6]
        0x00000b64:    1c40        @.      ADDS     r0,r0,#1
        0x00000b66:    71e0        .q      STRB     r0,[r4,#7]
        0x00000b68:    7960        `y      LDRB     r0,[r4,#5]
        0x00000b6a:    5c30        0\      LDRB     r0,[r6,r0]
        0x00000b6c:    f001fa10    ....    BL       setPort_4 ; 0x1f90
        0x00000b70:    7920         y      LDRB     r0,[r4,#4]
        0x00000b72:    5c30        0\      LDRB     r0,[r6,r0]
        0x00000b74:    f001f93c    ..<.    BL       setPort_2 ; 0x1df0
        0x00000b78:    79e0        .y      LDRB     r0,[r4,#7]
        0x00000b7a:    5c30        0\      LDRB     r0,[r6,r0]
        0x00000b7c:    f001f9a0    ....    BL       setPort_3 ; 0x1ec0
        0x00000b80:    79a0        .y      LDRB     r0,[r4,#6]
        0x00000b82:    5c30        0\      LDRB     r0,[r6,r0]
        0x00000b84:    f001f8cc    ....    BL       setPort_1 ; 0x1d20
        0x00000b88:    f000fb8e    ....    BL       changePort1States ; 0x12a8
        0x00000b8c:    f000fcfc    ....    BL       changePort2States ; 0x1588
        0x00000b90:    f000fe66    ..f.    BL       changePort3States ; 0x1860
        0x00000b94:    f000ffd0    ....    BL       changePort4States ; 0x1b38
        0x00000b98:    2d01        .-      CMP      r5,#1
        0x00000b9a:    d109        ..      BNE      0xbb0 ; UART_LOGIC + 200
        0x00000b9c:    68e0        .h      LDR      r0,[r4,#0xc]
        0x00000b9e:    2800        .(      CMP      r0,#0
        0x00000ba0:    d106        ..      BNE      0xbb0 ; UART_LOGIC + 200
        0x00000ba2:    68a0        .h      LDR      r0,[r4,#8]
        0x00000ba4:    5435        5T      STRB     r5,[r6,r0]
        0x00000ba6:    2001        .       MOVS     r0,#1
        0x00000ba8:    60e0        .`      STR      r0,[r4,#0xc]
        0x00000baa:    68a0        .h      LDR      r0,[r4,#8]
        0x00000bac:    1c40        @.      ADDS     r0,r0,#1
        0x00000bae:    60a0        .`      STR      r0,[r4,#8]
        0x00000bb0:    bd70        p.      POP      {r4-r6,pc}
    $d
        0x00000bb2:    0000        ..      DCW    0
        0x00000bb4:    20000014    ...     DCD    536870932
        0x00000bb8:    2000006c    l..     DCD    536871020
    $t
    i.UART_Open
    UART_Open
        0x00000bbc:    b5f0        ..      PUSH     {r4-r7,lr}
        0x00000bbe:    b087        ..      SUB      sp,sp,#0x1c
        0x00000bc0:    460f        .F      MOV      r7,r1
        0x00000bc2:    4604        .F      MOV      r4,r0
        0x00000bc4:    2500        .%      MOVS     r5,#0
        0x00000bc6:    462e        .F      MOV      r6,r5
        0x00000bc8:    2218        ."      MOVS     r2,#0x18
        0x00000bca:    4947        GI      LDR      r1,[pc,#284] ; [0xce8] = 0x2180
        0x00000bcc:    4668        hF      MOV      r0,sp
        0x00000bce:    f7fffad5    ....    BL       __aeabi_memcpy ; 0x17c
        0x00000bd2:    4946        FI      LDR      r1,[pc,#280] ; [0xcec] = 0x40070000
        0x00000bd4:    4846        FH      LDR      r0,[pc,#280] ; [0xcf0] = 0x40000200
        0x00000bd6:    4a47        GJ      LDR      r2,[pc,#284] ; [0xcf4] = 0x40072000
        0x00000bd8:    428c        .B      CMP      r4,r1
        0x00000bda:    d104        ..      BNE      0xbe6 ; UART_Open + 42
        0x00000bdc:    6943        Ci      LDR      r3,[r0,#0x14]
        0x00000bde:    6a00        .j      LDR      r0,[r0,#0x20]
        0x00000be0:    015b        [.      LSLS     r3,r3,#5
        0x00000be2:    0f5d        ].      LSRS     r5,r3,#29
        0x00000be4:    e01f        ..      B        0xc26 ; UART_Open + 106
        0x00000be6:    4b44        DK      LDR      r3,[pc,#272] ; [0xcf8] = 0x40071000
        0x00000be8:    429c        .B      CMP      r4,r3
        0x00000bea:    d104        ..      BNE      0xbf6 ; UART_Open + 58
        0x00000bec:    6943        Ci      LDR      r3,[r0,#0x14]
        0x00000bee:    6a00        .j      LDR      r0,[r0,#0x20]
        0x00000bf0:    005b        [.      LSLS     r3,r3,#1
        0x00000bf2:    0f5d        ].      LSRS     r5,r3,#29
        0x00000bf4:    e020         .      B        0xc38 ; UART_Open + 124
        0x00000bf6:    4294        .B      CMP      r4,r2
        0x00000bf8:    d104        ..      BNE      0xc04 ; UART_Open + 72
        0x00000bfa:    69c3        .i      LDR      r3,[r0,#0x1c]
        0x00000bfc:    6b00        .k      LDR      r0,[r0,#0x30]
        0x00000bfe:    015b        [.      LSLS     r3,r3,#5
        0x00000c00:    0f5d        ].      LSRS     r5,r3,#29
        0x00000c02:    e02d        -.      B        0xc60 ; UART_Open + 164
        0x00000c04:    4b3d        =K      LDR      r3,[pc,#244] ; [0xcfc] = 0x40073000
        0x00000c06:    429c        .B      CMP      r4,r3
        0x00000c08:    d106        ..      BNE      0xc18 ; UART_Open + 92
        0x00000c0a:    69c3        .i      LDR      r3,[r0,#0x1c]
        0x00000c0c:    6b00        .k      LDR      r0,[r0,#0x30]
        0x00000c0e:    005b        [.      LSLS     r3,r3,#1
        0x00000c10:    0f5d        ].      LSRS     r5,r3,#29
        0x00000c12:    0600        ..      LSLS     r0,r0,#24
        0x00000c14:    0f06        ..      LSRS     r6,r0,#28
        0x00000c16:    e025        %.      B        0xc64 ; UART_Open + 168
        0x00000c18:    4b39        9K      LDR      r3,[pc,#228] ; [0xd00] = 0x40074000
        0x00000c1a:    429c        .B      CMP      r4,r3
        0x00000c1c:    d105        ..      BNE      0xc2a ; UART_Open + 110
        0x00000c1e:    69c3        .i      LDR      r3,[r0,#0x1c]
        0x00000c20:    6b00        .k      LDR      r0,[r0,#0x30]
        0x00000c22:    035b        [.      LSLS     r3,r3,#13
        0x00000c24:    0f5d        ].      LSRS     r5,r3,#29
        0x00000c26:    0a00        ..      LSRS     r0,r0,#8
        0x00000c28:    e01a        ..      B        0xc60 ; UART_Open + 164
        0x00000c2a:    4b36        6K      LDR      r3,[pc,#216] ; [0xd04] = 0x40075000
        0x00000c2c:    429c        .B      CMP      r4,r3
        0x00000c2e:    d106        ..      BNE      0xc3e ; UART_Open + 130
        0x00000c30:    69c3        .i      LDR      r3,[r0,#0x1c]
        0x00000c32:    6b00        .k      LDR      r0,[r0,#0x30]
        0x00000c34:    025b        [.      LSLS     r3,r3,#9
        0x00000c36:    0f5d        ].      LSRS     r5,r3,#29
        0x00000c38:    0400        ..      LSLS     r0,r0,#16
        0x00000c3a:    0f06        ..      LSRS     r6,r0,#28
        0x00000c3c:    e012        ..      B        0xc64 ; UART_Open + 168
        0x00000c3e:    4b32        2K      LDR      r3,[pc,#200] ; [0xd08] = 0x40076000
        0x00000c40:    429c        .B      CMP      r4,r3
        0x00000c42:    d105        ..      BNE      0xc50 ; UART_Open + 148
        0x00000c44:    69c3        .i      LDR      r3,[r0,#0x1c]
        0x00000c46:    6b00        .k      LDR      r0,[r0,#0x30]
        0x00000c48:    055b        [.      LSLS     r3,r3,#21
        0x00000c4a:    0f5d        ].      LSRS     r5,r3,#29
        0x00000c4c:    0c00        ..      LSRS     r0,r0,#16
        0x00000c4e:    e007        ..      B        0xc60 ; UART_Open + 164
        0x00000c50:    4b2e        .K      LDR      r3,[pc,#184] ; [0xd0c] = 0x40077000
        0x00000c52:    429c        .B      CMP      r4,r3
        0x00000c54:    d106        ..      BNE      0xc64 ; UART_Open + 168
        0x00000c56:    69c3        .i      LDR      r3,[r0,#0x1c]
        0x00000c58:    6b00        .k      LDR      r0,[r0,#0x30]
        0x00000c5a:    045b        [.      LSLS     r3,r3,#17
        0x00000c5c:    0f5d        ].      LSRS     r5,r3,#29
        0x00000c5e:    0d00        ..      LSRS     r0,r0,#20
        0x00000c60:    0706        ..      LSLS     r6,r0,#28
        0x00000c62:    0f36        6.      LSRS     r6,r6,#28
        0x00000c64:    2000        .       MOVS     r0,#0
        0x00000c66:    6320         c      STR      r0,[r4,#0x30]
        0x00000c68:    2003        .       MOVS     r0,#3
        0x00000c6a:    60e0        .`      STR      r0,[r4,#0xc]
        0x00000c6c:    68a0        .h      LDR      r0,[r4,#8]
        0x00000c6e:    4b28        (K      LDR      r3,[pc,#160] ; [0xd10] = 0xfff0ff0f
        0x00000c70:    4018        .@      ANDS     r0,r0,r3
        0x00000c72:    60a0        .`      STR      r0,[r4,#8]
        0x00000c74:    2d01        .-      CMP      r5,#1
        0x00000c76:    d002        ..      BEQ      0xc7e ; UART_Open + 194
        0x00000c78:    2d04        .-      CMP      r5,#4
        0x00000c7a:    d004        ..      BEQ      0xc86 ; UART_Open + 202
        0x00000c7c:    e013        ..      B        0xca6 ; UART_Open + 234
        0x00000c7e:    f7fffb33    ..3.    BL       CLK_GetPLLClockFreq ; 0x2e8
        0x00000c82:    9001        ..      STR      r0,[sp,#4]
        0x00000c84:    e00f        ..      B        0xca6 ; UART_Open + 234
        0x00000c86:    428c        .B      CMP      r4,r1
        0x00000c88:    d007        ..      BEQ      0xc9a ; UART_Open + 222
        0x00000c8a:    4294        .B      CMP      r4,r2
        0x00000c8c:    d005        ..      BEQ      0xc9a ; UART_Open + 222
        0x00000c8e:    481c        .H      LDR      r0,[pc,#112] ; [0xd00] = 0x40074000
        0x00000c90:    4284        .B      CMP      r4,r0
        0x00000c92:    d002        ..      BEQ      0xc9a ; UART_Open + 222
        0x00000c94:    481c        .H      LDR      r0,[pc,#112] ; [0xd08] = 0x40076000
        0x00000c96:    4284        .B      CMP      r4,r0
        0x00000c98:    d102        ..      BNE      0xca0 ; UART_Open + 228
        0x00000c9a:    f7fffb05    ....    BL       CLK_GetPCLK0Freq ; 0x2a8
        0x00000c9e:    e001        ..      B        0xca4 ; UART_Open + 232
        0x00000ca0:    f7fffb12    ....    BL       CLK_GetPCLK1Freq ; 0x2c8
        0x00000ca4:    9004        ..      STR      r0,[sp,#0x10]
        0x00000ca6:    2f00        ./      CMP      r7,#0
        0x00000ca8:    d01b        ..      BEQ      0xce2 ; UART_Open + 294
        0x00000caa:    00a9        ..      LSLS     r1,r5,#2
        0x00000cac:    4668        hF      MOV      r0,sp
        0x00000cae:    5840        @X      LDR      r0,[r0,r1]
        0x00000cb0:    1c71        q.      ADDS     r1,r6,#1
        0x00000cb2:    f7fffa4d    ..M.    BL       __aeabi_uidiv ; 0x150
        0x00000cb6:    4605        .F      MOV      r5,r0
        0x00000cb8:    0879        y.      LSRS     r1,r7,#1
        0x00000cba:    1840        @.      ADDS     r0,r0,r1
        0x00000cbc:    4639        9F      MOV      r1,r7
        0x00000cbe:    f7fffa47    ..G.    BL       __aeabi_uidiv ; 0x150
        0x00000cc2:    4914        .I      LDR      r1,[pc,#80] ; [0xd14] = 0xffff
        0x00000cc4:    1e80        ..      SUBS     r0,r0,#2
        0x00000cc6:    4288        .B      CMP      r0,r1
        0x00000cc8:    d907        ..      BLS      0xcda ; UART_Open + 286
        0x00000cca:    00f9        ..      LSLS     r1,r7,#3
        0x00000ccc:    1868        h.      ADDS     r0,r5,r1
        0x00000cce:    4639        9F      MOV      r1,r7
        0x00000cd0:    f7fffa3e    ..>.    BL       __aeabi_uidiv ; 0x150
        0x00000cd4:    0900        ..      LSRS     r0,r0,#4
        0x00000cd6:    1e80        ..      SUBS     r0,r0,#2
        0x00000cd8:    e002        ..      B        0xce0 ; UART_Open + 292
        0x00000cda:    2103        .!      MOVS     r1,#3
        0x00000cdc:    0709        ..      LSLS     r1,r1,#28
        0x00000cde:    4308        .C      ORRS     r0,r0,r1
        0x00000ce0:    6260        `b      STR      r0,[r4,#0x24]
        0x00000ce2:    b007        ..      ADD      sp,sp,#0x1c
        0x00000ce4:    bdf0        ..      POP      {r4-r7,pc}
    $d
        0x00000ce6:    0000        ..      DCW    0
        0x00000ce8:    00002180    .!..    DCD    8576
        0x00000cec:    40070000    ...@    DCD    1074200576
        0x00000cf0:    40000200    ...@    DCD    1073742336
        0x00000cf4:    40072000    . .@    DCD    1074208768
        0x00000cf8:    40071000    ...@    DCD    1074204672
        0x00000cfc:    40073000    .0.@    DCD    1074212864
        0x00000d00:    40074000    .@.@    DCD    1074216960
        0x00000d04:    40075000    .P.@    DCD    1074221056
        0x00000d08:    40076000    .`.@    DCD    1074225152
        0x00000d0c:    40077000    .p.@    DCD    1074229248
        0x00000d10:    fff0ff0f    ....    DCD    4293984015
        0x00000d14:    0000ffff    ....    DCD    65535
    $t
    i.UART_SetLine_Config
    UART_SetLine_Config
        0x00000d18:    b5ff        ..      PUSH     {r0-r7,lr}
        0x00000d1a:    b087        ..      SUB      sp,sp,#0x1c
        0x00000d1c:    460f        .F      MOV      r7,r1
        0x00000d1e:    4604        .F      MOV      r4,r0
        0x00000d20:    2500        .%      MOVS     r5,#0
        0x00000d22:    462e        .F      MOV      r6,r5
        0x00000d24:    2218        ."      MOVS     r2,#0x18
        0x00000d26:    4946        FI      LDR      r1,[pc,#280] ; [0xe40] = 0x2198
        0x00000d28:    4668        hF      MOV      r0,sp
        0x00000d2a:    f7fffa27    ..'.    BL       __aeabi_memcpy ; 0x17c
        0x00000d2e:    4945        EI      LDR      r1,[pc,#276] ; [0xe44] = 0x40070000
        0x00000d30:    4845        EH      LDR      r0,[pc,#276] ; [0xe48] = 0x40000200
        0x00000d32:    4a46        FJ      LDR      r2,[pc,#280] ; [0xe4c] = 0x40072000
        0x00000d34:    428c        .B      CMP      r4,r1
        0x00000d36:    d104        ..      BNE      0xd42 ; UART_SetLine_Config + 42
        0x00000d38:    6943        Ci      LDR      r3,[r0,#0x14]
        0x00000d3a:    6a00        .j      LDR      r0,[r0,#0x20]
        0x00000d3c:    015b        [.      LSLS     r3,r3,#5
        0x00000d3e:    0f5d        ].      LSRS     r5,r3,#29
        0x00000d40:    e01f        ..      B        0xd82 ; UART_SetLine_Config + 106
        0x00000d42:    4b43        CK      LDR      r3,[pc,#268] ; [0xe50] = 0x40071000
        0x00000d44:    429c        .B      CMP      r4,r3
        0x00000d46:    d104        ..      BNE      0xd52 ; UART_SetLine_Config + 58
        0x00000d48:    6943        Ci      LDR      r3,[r0,#0x14]
        0x00000d4a:    6a00        .j      LDR      r0,[r0,#0x20]
        0x00000d4c:    005b        [.      LSLS     r3,r3,#1
        0x00000d4e:    0f5d        ].      LSRS     r5,r3,#29
        0x00000d50:    e020         .      B        0xd94 ; UART_SetLine_Config + 124
        0x00000d52:    4294        .B      CMP      r4,r2
        0x00000d54:    d104        ..      BNE      0xd60 ; UART_SetLine_Config + 72
        0x00000d56:    69c3        .i      LDR      r3,[r0,#0x1c]
        0x00000d58:    6b00        .k      LDR      r0,[r0,#0x30]
        0x00000d5a:    015b        [.      LSLS     r3,r3,#5
        0x00000d5c:    0f5d        ].      LSRS     r5,r3,#29
        0x00000d5e:    e02d        -.      B        0xdbc ; UART_SetLine_Config + 164
        0x00000d60:    4b3c        <K      LDR      r3,[pc,#240] ; [0xe54] = 0x40073000
        0x00000d62:    429c        .B      CMP      r4,r3
        0x00000d64:    d106        ..      BNE      0xd74 ; UART_SetLine_Config + 92
        0x00000d66:    69c3        .i      LDR      r3,[r0,#0x1c]
        0x00000d68:    6b00        .k      LDR      r0,[r0,#0x30]
        0x00000d6a:    005b        [.      LSLS     r3,r3,#1
        0x00000d6c:    0f5d        ].      LSRS     r5,r3,#29
        0x00000d6e:    0600        ..      LSLS     r0,r0,#24
        0x00000d70:    0f06        ..      LSRS     r6,r0,#28
        0x00000d72:    e025        %.      B        0xdc0 ; UART_SetLine_Config + 168
        0x00000d74:    4b38        8K      LDR      r3,[pc,#224] ; [0xe58] = 0x40074000
        0x00000d76:    429c        .B      CMP      r4,r3
        0x00000d78:    d105        ..      BNE      0xd86 ; UART_SetLine_Config + 110
        0x00000d7a:    69c3        .i      LDR      r3,[r0,#0x1c]
        0x00000d7c:    6b00        .k      LDR      r0,[r0,#0x30]
        0x00000d7e:    035b        [.      LSLS     r3,r3,#13
        0x00000d80:    0f5d        ].      LSRS     r5,r3,#29
        0x00000d82:    0a00        ..      LSRS     r0,r0,#8
        0x00000d84:    e01a        ..      B        0xdbc ; UART_SetLine_Config + 164
        0x00000d86:    4b35        5K      LDR      r3,[pc,#212] ; [0xe5c] = 0x40075000
        0x00000d88:    429c        .B      CMP      r4,r3
        0x00000d8a:    d106        ..      BNE      0xd9a ; UART_SetLine_Config + 130
        0x00000d8c:    69c3        .i      LDR      r3,[r0,#0x1c]
        0x00000d8e:    6b00        .k      LDR      r0,[r0,#0x30]
        0x00000d90:    025b        [.      LSLS     r3,r3,#9
        0x00000d92:    0f5d        ].      LSRS     r5,r3,#29
        0x00000d94:    0400        ..      LSLS     r0,r0,#16
        0x00000d96:    0f06        ..      LSRS     r6,r0,#28
        0x00000d98:    e012        ..      B        0xdc0 ; UART_SetLine_Config + 168
        0x00000d9a:    4b31        1K      LDR      r3,[pc,#196] ; [0xe60] = 0x40076000
        0x00000d9c:    429c        .B      CMP      r4,r3
        0x00000d9e:    d105        ..      BNE      0xdac ; UART_SetLine_Config + 148
        0x00000da0:    69c3        .i      LDR      r3,[r0,#0x1c]
        0x00000da2:    6b00        .k      LDR      r0,[r0,#0x30]
        0x00000da4:    055b        [.      LSLS     r3,r3,#21
        0x00000da6:    0f5d        ].      LSRS     r5,r3,#29
        0x00000da8:    0c00        ..      LSRS     r0,r0,#16
        0x00000daa:    e007        ..      B        0xdbc ; UART_SetLine_Config + 164
        0x00000dac:    4b2d        -K      LDR      r3,[pc,#180] ; [0xe64] = 0x40077000
        0x00000dae:    429c        .B      CMP      r4,r3
        0x00000db0:    d11f        ..      BNE      0xdf2 ; UART_SetLine_Config + 218
        0x00000db2:    69c3        .i      LDR      r3,[r0,#0x1c]
        0x00000db4:    6b00        .k      LDR      r0,[r0,#0x30]
        0x00000db6:    045b        [.      LSLS     r3,r3,#17
        0x00000db8:    0f5d        ].      LSRS     r5,r3,#29
        0x00000dba:    0d00        ..      LSRS     r0,r0,#20
        0x00000dbc:    0706        ..      LSLS     r6,r0,#28
        0x00000dbe:    0f36        6.      LSRS     r6,r6,#28
        0x00000dc0:    2d01        .-      CMP      r5,#1
        0x00000dc2:    d002        ..      BEQ      0xdca ; UART_SetLine_Config + 178
        0x00000dc4:    2d04        .-      CMP      r5,#4
        0x00000dc6:    d004        ..      BEQ      0xdd2 ; UART_SetLine_Config + 186
        0x00000dc8:    e013        ..      B        0xdf2 ; UART_SetLine_Config + 218
        0x00000dca:    f7fffa8d    ....    BL       CLK_GetPLLClockFreq ; 0x2e8
        0x00000dce:    9001        ..      STR      r0,[sp,#4]
        0x00000dd0:    e00f        ..      B        0xdf2 ; UART_SetLine_Config + 218
        0x00000dd2:    428c        .B      CMP      r4,r1
        0x00000dd4:    d007        ..      BEQ      0xde6 ; UART_SetLine_Config + 206
        0x00000dd6:    4294        .B      CMP      r4,r2
        0x00000dd8:    d005        ..      BEQ      0xde6 ; UART_SetLine_Config + 206
        0x00000dda:    481f        .H      LDR      r0,[pc,#124] ; [0xe58] = 0x40074000
        0x00000ddc:    4284        .B      CMP      r4,r0
        0x00000dde:    d002        ..      BEQ      0xde6 ; UART_SetLine_Config + 206
        0x00000de0:    481f        .H      LDR      r0,[pc,#124] ; [0xe60] = 0x40076000
        0x00000de2:    4284        .B      CMP      r4,r0
        0x00000de4:    d102        ..      BNE      0xdec ; UART_SetLine_Config + 212
        0x00000de6:    f7fffa5f    .._.    BL       CLK_GetPCLK0Freq ; 0x2a8
        0x00000dea:    e001        ..      B        0xdf0 ; UART_SetLine_Config + 216
        0x00000dec:    f7fffa6c    ..l.    BL       CLK_GetPCLK1Freq ; 0x2c8
        0x00000df0:    9004        ..      STR      r0,[sp,#0x10]
        0x00000df2:    2f00        ./      CMP      r7,#0
        0x00000df4:    d01b        ..      BEQ      0xe2e ; UART_SetLine_Config + 278
        0x00000df6:    00a9        ..      LSLS     r1,r5,#2
        0x00000df8:    4668        hF      MOV      r0,sp
        0x00000dfa:    5840        @X      LDR      r0,[r0,r1]
        0x00000dfc:    1c71        q.      ADDS     r1,r6,#1
        0x00000dfe:    f7fff9a7    ....    BL       __aeabi_uidiv ; 0x150
        0x00000e02:    4605        .F      MOV      r5,r0
        0x00000e04:    0879        y.      LSRS     r1,r7,#1
        0x00000e06:    1840        @.      ADDS     r0,r0,r1
        0x00000e08:    4639        9F      MOV      r1,r7
        0x00000e0a:    f7fff9a1    ....    BL       __aeabi_uidiv ; 0x150
        0x00000e0e:    4916        .I      LDR      r1,[pc,#88] ; [0xe68] = 0xffff
        0x00000e10:    1e80        ..      SUBS     r0,r0,#2
        0x00000e12:    4288        .B      CMP      r0,r1
        0x00000e14:    d907        ..      BLS      0xe26 ; UART_SetLine_Config + 270
        0x00000e16:    00f9        ..      LSLS     r1,r7,#3
        0x00000e18:    1868        h.      ADDS     r0,r5,r1
        0x00000e1a:    4639        9F      MOV      r1,r7
        0x00000e1c:    f7fff998    ....    BL       __aeabi_uidiv ; 0x150
        0x00000e20:    0900        ..      LSRS     r0,r0,#4
        0x00000e22:    1e80        ..      SUBS     r0,r0,#2
        0x00000e24:    e002        ..      B        0xe2c ; UART_SetLine_Config + 276
        0x00000e26:    2103        .!      MOVS     r1,#3
        0x00000e28:    0709        ..      LSLS     r1,r1,#28
        0x00000e2a:    4308        .C      ORRS     r0,r0,r1
        0x00000e2c:    6260        `b      STR      r0,[r4,#0x24]
        0x00000e2e:    990a        ..      LDR      r1,[sp,#0x28]
        0x00000e30:    9809        ..      LDR      r0,[sp,#0x24]
        0x00000e32:    4308        .C      ORRS     r0,r0,r1
        0x00000e34:    9910        ..      LDR      r1,[sp,#0x40]
        0x00000e36:    4308        .C      ORRS     r0,r0,r1
        0x00000e38:    60e0        .`      STR      r0,[r4,#0xc]
        0x00000e3a:    b00b        ..      ADD      sp,sp,#0x2c
        0x00000e3c:    bdf0        ..      POP      {r4-r7,pc}
    $d
        0x00000e3e:    0000        ..      DCW    0
        0x00000e40:    00002198    .!..    DCD    8600
        0x00000e44:    40070000    ...@    DCD    1074200576
        0x00000e48:    40000200    ...@    DCD    1073742336
        0x00000e4c:    40072000    . .@    DCD    1074208768
        0x00000e50:    40071000    ...@    DCD    1074204672
        0x00000e54:    40073000    .0.@    DCD    1074212864
        0x00000e58:    40074000    .@.@    DCD    1074216960
        0x00000e5c:    40075000    .P.@    DCD    1074221056
        0x00000e60:    40076000    .`.@    DCD    1074225152
        0x00000e64:    40077000    .p.@    DCD    1074229248
        0x00000e68:    0000ffff    ....    DCD    65535
    $t
    i.__0printf$5
    __0printf$5
    __1printf$5
    __2printf
        0x00000e6c:    b40f        ..      PUSH     {r0-r3}
        0x00000e6e:    b510        ..      PUSH     {r4,lr}
        0x00000e70:    a903        ..      ADD      r1,sp,#0xc
        0x00000e72:    4b04        .K      LDR      r3,[pc,#16] ; [0xe84] = 0x1cf1
        0x00000e74:    4a04        .J      LDR      r2,[pc,#16] ; [0xe88] = 0x20000010
        0x00000e76:    9802        ..      LDR      r0,[sp,#8]
        0x00000e78:    f000f818    ....    BL       _printf_core ; 0xeac
        0x00000e7c:    bc10        ..      POP      {r4}
        0x00000e7e:    bc08        ..      POP      {r3}
        0x00000e80:    b004        ..      ADD      sp,sp,#0x10
        0x00000e82:    4718        .G      BX       r3
    $d
        0x00000e84:    00001cf1    ....    DCD    7409
        0x00000e88:    20000010    ...     DCD    536870928
    $t
    i.__scatterload_copy
    __scatterload_copy
        0x00000e8c:    e002        ..      B        0xe94 ; __scatterload_copy + 8
        0x00000e8e:    c808        ..      LDM      r0!,{r3}
        0x00000e90:    1f12        ..      SUBS     r2,r2,#4
        0x00000e92:    c108        ..      STM      r1!,{r3}
        0x00000e94:    2a00        .*      CMP      r2,#0
        0x00000e96:    d1fa        ..      BNE      0xe8e ; __scatterload_copy + 2
        0x00000e98:    4770        pG      BX       lr
    i.__scatterload_null
    __scatterload_null
        0x00000e9a:    4770        pG      BX       lr
    i.__scatterload_zeroinit
    __scatterload_zeroinit
        0x00000e9c:    2000        .       MOVS     r0,#0
        0x00000e9e:    e001        ..      B        0xea4 ; __scatterload_zeroinit + 8
        0x00000ea0:    c101        ..      STM      r1!,{r0}
        0x00000ea2:    1f12        ..      SUBS     r2,r2,#4
        0x00000ea4:    2a00        .*      CMP      r2,#0
        0x00000ea6:    d1fb        ..      BNE      0xea0 ; __scatterload_zeroinit + 4
        0x00000ea8:    4770        pG      BX       lr
        0x00000eaa:    0000        ..      MOVS     r0,r0
    i._printf_core
    _printf_core
        0x00000eac:    b5ff        ..      PUSH     {r0-r7,lr}
        0x00000eae:    b08f        ..      SUB      sp,sp,#0x3c
        0x00000eb0:    460f        .F      MOV      r7,r1
        0x00000eb2:    4604        .F      MOV      r4,r0
        0x00000eb4:    2600        .&      MOVS     r6,#0
        0x00000eb6:    e006        ..      B        0xec6 ; _printf_core + 26
        0x00000eb8:    2825        %(      CMP      r0,#0x25
        0x00000eba:    d00a        ..      BEQ      0xed2 ; _printf_core + 38
        0x00000ebc:    9a12        ..      LDR      r2,[sp,#0x48]
        0x00000ebe:    9911        ..      LDR      r1,[sp,#0x44]
        0x00000ec0:    4790        .G      BLX      r2
        0x00000ec2:    1c64        d.      ADDS     r4,r4,#1
        0x00000ec4:    1c76        v.      ADDS     r6,r6,#1
        0x00000ec6:    7820         x      LDRB     r0,[r4,#0]
        0x00000ec8:    2800        .(      CMP      r0,#0
        0x00000eca:    d1f5        ..      BNE      0xeb8 ; _printf_core + 12
        0x00000ecc:    4630        0F      MOV      r0,r6
        0x00000ece:    b013        ..      ADD      sp,sp,#0x4c
        0x00000ed0:    bdf0        ..      POP      {r4-r7,pc}
        0x00000ed2:    2500        .%      MOVS     r5,#0
        0x00000ed4:    2101        .!      MOVS     r1,#1
        0x00000ed6:    4a9f        .J      LDR      r2,[pc,#636] ; [0x1154] = 0x12809
        0x00000ed8:    9500        ..      STR      r5,[sp,#0]
        0x00000eda:    e000        ..      B        0xede ; _printf_core + 50
        0x00000edc:    4305        .C      ORRS     r5,r5,r0
        0x00000ede:    1c64        d.      ADDS     r4,r4,#1
        0x00000ee0:    7823        #x      LDRB     r3,[r4,#0]
        0x00000ee2:    4608        .F      MOV      r0,r1
        0x00000ee4:    3b20         ;      SUBS     r3,r3,#0x20
        0x00000ee6:    4098        .@      LSLS     r0,r0,r3
        0x00000ee8:    4210        .B      TST      r0,r2
        0x00000eea:    d1f7        ..      BNE      0xedc ; _printf_core + 48
        0x00000eec:    7820         x      LDRB     r0,[r4,#0]
        0x00000eee:    282e        .(      CMP      r0,#0x2e
        0x00000ef0:    d115        ..      BNE      0xf1e ; _printf_core + 114
        0x00000ef2:    2004        .       MOVS     r0,#4
        0x00000ef4:    4305        .C      ORRS     r5,r5,r0
        0x00000ef6:    7860        `x      LDRB     r0,[r4,#1]
        0x00000ef8:    1c64        d.      ADDS     r4,r4,#1
        0x00000efa:    282a        *(      CMP      r0,#0x2a
        0x00000efc:    d10a        ..      BNE      0xf14 ; _printf_core + 104
        0x00000efe:    cf01        ..      LDM      r7!,{r0}
        0x00000f00:    1c64        d.      ADDS     r4,r4,#1
        0x00000f02:    9000        ..      STR      r0,[sp,#0]
        0x00000f04:    e00b        ..      B        0xf1e ; _printf_core + 114
        0x00000f06:    9900        ..      LDR      r1,[sp,#0]
        0x00000f08:    220a        ."      MOVS     r2,#0xa
        0x00000f0a:    4351        QC      MULS     r1,r2,r1
        0x00000f0c:    3930        09      SUBS     r1,r1,#0x30
        0x00000f0e:    1840        @.      ADDS     r0,r0,r1
        0x00000f10:    1c64        d.      ADDS     r4,r4,#1
        0x00000f12:    9000        ..      STR      r0,[sp,#0]
        0x00000f14:    7820         x      LDRB     r0,[r4,#0]
        0x00000f16:    4601        .F      MOV      r1,r0
        0x00000f18:    3930        09      SUBS     r1,r1,#0x30
        0x00000f1a:    2909        .)      CMP      r1,#9
        0x00000f1c:    d9f3        ..      BLS      0xf06 ; _printf_core + 90
        0x00000f1e:    7820         x      LDRB     r0,[r4,#0]
        0x00000f20:    286c        l(      CMP      r0,#0x6c
        0x00000f22:    d00e        ..      BEQ      0xf42 ; _printf_core + 150
        0x00000f24:    dc04        ..      BGT      0xf30 ; _printf_core + 132
        0x00000f26:    284c        L(      CMP      r0,#0x4c
        0x00000f28:    d013        ..      BEQ      0xf52 ; _printf_core + 166
        0x00000f2a:    286a        j(      CMP      r0,#0x6a
        0x00000f2c:    d112        ..      BNE      0xf54 ; _printf_core + 168
        0x00000f2e:    e004        ..      B        0xf3a ; _printf_core + 142
        0x00000f30:    2874        t(      CMP      r0,#0x74
        0x00000f32:    d00e        ..      BEQ      0xf52 ; _printf_core + 166
        0x00000f34:    287a        z(      CMP      r0,#0x7a
        0x00000f36:    d10d        ..      BNE      0xf54 ; _printf_core + 168
        0x00000f38:    e00b        ..      B        0xf52 ; _printf_core + 166
        0x00000f3a:    2001        .       MOVS     r0,#1
        0x00000f3c:    0540        @.      LSLS     r0,r0,#21
        0x00000f3e:    4305        .C      ORRS     r5,r5,r0
        0x00000f40:    e007        ..      B        0xf52 ; _printf_core + 166
        0x00000f42:    2101        .!      MOVS     r1,#1
        0x00000f44:    0509        ..      LSLS     r1,r1,#20
        0x00000f46:    7862        bx      LDRB     r2,[r4,#1]
        0x00000f48:    430d        .C      ORRS     r5,r5,r1
        0x00000f4a:    4282        .B      CMP      r2,r0
        0x00000f4c:    d101        ..      BNE      0xf52 ; _printf_core + 166
        0x00000f4e:    186d        m.      ADDS     r5,r5,r1
        0x00000f50:    1c64        d.      ADDS     r4,r4,#1
        0x00000f52:    1c64        d.      ADDS     r4,r4,#1
        0x00000f54:    7820         x      LDRB     r0,[r4,#0]
        0x00000f56:    2869        i(      CMP      r0,#0x69
        0x00000f58:    d049        I.      BEQ      0xfee ; _printf_core + 322
        0x00000f5a:    dc08        ..      BGT      0xf6e ; _printf_core + 194
        0x00000f5c:    2800        .(      CMP      r0,#0
        0x00000f5e:    d0b5        ..      BEQ      0xecc ; _printf_core + 32
        0x00000f60:    2858        X(      CMP      r0,#0x58
        0x00000f62:    d06c        l.      BEQ      0x103e ; _printf_core + 402
        0x00000f64:    2863        c(      CMP      r0,#0x63
        0x00000f66:    d00f        ..      BEQ      0xf88 ; _printf_core + 220
        0x00000f68:    2864        d(      CMP      r0,#0x64
        0x00000f6a:    d108        ..      BNE      0xf7e ; _printf_core + 210
        0x00000f6c:    e03f        ?.      B        0xfee ; _printf_core + 322
        0x00000f6e:    2870        p(      CMP      r0,#0x70
        0x00000f70:    d06a        j.      BEQ      0x1048 ; _printf_core + 412
        0x00000f72:    2873        s(      CMP      r0,#0x73
        0x00000f74:    d011        ..      BEQ      0xf9a ; _printf_core + 238
        0x00000f76:    2875        u(      CMP      r0,#0x75
        0x00000f78:    d05f        _.      BEQ      0x103a ; _printf_core + 398
        0x00000f7a:    2878        x(      CMP      r0,#0x78
        0x00000f7c:    d05f        _.      BEQ      0x103e ; _printf_core + 402
        0x00000f7e:    9a12        ..      LDR      r2,[sp,#0x48]
        0x00000f80:    9911        ..      LDR      r1,[sp,#0x44]
        0x00000f82:    4790        .G      BLX      r2
        0x00000f84:    1c76        v.      ADDS     r6,r6,#1
        0x00000f86:    e0e3        ..      B        0x1150 ; _printf_core + 676
        0x00000f88:    7838        8x      LDRB     r0,[r7,#0]
        0x00000f8a:    4669        iF      MOV      r1,sp
        0x00000f8c:    7208        .r      STRB     r0,[r1,#8]
        0x00000f8e:    2000        .       MOVS     r0,#0
        0x00000f90:    7248        Hr      STRB     r0,[r1,#9]
        0x00000f92:    a802        ..      ADD      r0,sp,#8
        0x00000f94:    9001        ..      STR      r0,[sp,#4]
        0x00000f96:    2001        .       MOVS     r0,#1
        0x00000f98:    e003        ..      B        0xfa2 ; _printf_core + 246
        0x00000f9a:    6838        8h      LDR      r0,[r7,#0]
        0x00000f9c:    9001        ..      STR      r0,[sp,#4]
        0x00000f9e:    2000        .       MOVS     r0,#0
        0x00000fa0:    43c0        .C      MVNS     r0,r0
        0x00000fa2:    1d3f        ?.      ADDS     r7,r7,#4
        0x00000fa4:    0769        i.      LSLS     r1,r5,#29
        0x00000fa6:    d50c        ..      BPL      0xfc2 ; _printf_core + 278
        0x00000fa8:    2500        .%      MOVS     r5,#0
        0x00000faa:    e000        ..      B        0xfae ; _printf_core + 258
        0x00000fac:    1c6d        m.      ADDS     r5,r5,#1
        0x00000fae:    9900        ..      LDR      r1,[sp,#0]
        0x00000fb0:    428d        .B      CMP      r5,r1
        0x00000fb2:    da0f        ..      BGE      0xfd4 ; _printf_core + 296
        0x00000fb4:    4285        .B      CMP      r5,r0
        0x00000fb6:    dbf9        ..      BLT      0xfac ; _printf_core + 256
        0x00000fb8:    9901        ..      LDR      r1,[sp,#4]
        0x00000fba:    5d49        I]      LDRB     r1,[r1,r5]
        0x00000fbc:    2900        .)      CMP      r1,#0
        0x00000fbe:    d1f5        ..      BNE      0xfac ; _printf_core + 256
        0x00000fc0:    e008        ..      B        0xfd4 ; _printf_core + 296
        0x00000fc2:    2500        .%      MOVS     r5,#0
        0x00000fc4:    e000        ..      B        0xfc8 ; _printf_core + 284
        0x00000fc6:    1c6d        m.      ADDS     r5,r5,#1
        0x00000fc8:    4285        .B      CMP      r5,r0
        0x00000fca:    dbfc        ..      BLT      0xfc6 ; _printf_core + 282
        0x00000fcc:    9901        ..      LDR      r1,[sp,#4]
        0x00000fce:    5d49        I]      LDRB     r1,[r1,r5]
        0x00000fd0:    2900        .)      CMP      r1,#0
        0x00000fd2:    d1f8        ..      BNE      0xfc6 ; _printf_core + 282
        0x00000fd4:    1976        v.      ADDS     r6,r6,r5
        0x00000fd6:    e007        ..      B        0xfe8 ; _printf_core + 316
        0x00000fd8:    9801        ..      LDR      r0,[sp,#4]
        0x00000fda:    9901        ..      LDR      r1,[sp,#4]
        0x00000fdc:    7800        .x      LDRB     r0,[r0,#0]
        0x00000fde:    1c49        I.      ADDS     r1,r1,#1
        0x00000fe0:    9101        ..      STR      r1,[sp,#4]
        0x00000fe2:    9a12        ..      LDR      r2,[sp,#0x48]
        0x00000fe4:    9911        ..      LDR      r1,[sp,#0x44]
        0x00000fe6:    4790        .G      BLX      r2
        0x00000fe8:    1e6d        m.      SUBS     r5,r5,#1
        0x00000fea:    d2f5        ..      BCS      0xfd8 ; _printf_core + 300
        0x00000fec:    e0b0        ..      B        0x1150 ; _printf_core + 676
        0x00000fee:    200a        .       MOVS     r0,#0xa
        0x00000ff0:    9002        ..      STR      r0,[sp,#8]
        0x00000ff2:    2100        .!      MOVS     r1,#0
        0x00000ff4:    0268        h.      LSLS     r0,r5,#9
        0x00000ff6:    0f40        @.      LSRS     r0,r0,#29
        0x00000ff8:    9103        ..      STR      r1,[sp,#0xc]
        0x00000ffa:    2802        .(      CMP      r0,#2
        0x00000ffc:    d00c        ..      BEQ      0x1018 ; _printf_core + 364
        0x00000ffe:    cf01        ..      LDM      r7!,{r0}
        0x00001000:    17c1        ..      ASRS     r1,r0,#31
        0x00001002:    4684        .F      MOV      r12,r0
        0x00001004:    2900        .)      CMP      r1,#0
        0x00001006:    da0d        ..      BGE      0x1024 ; _printf_core + 376
        0x00001008:    4660        `F      MOV      r0,r12
        0x0000100a:    460a        .F      MOV      r2,r1
        0x0000100c:    4240        @B      RSBS     r0,r0,#0
        0x0000100e:    2100        .!      MOVS     r1,#0
        0x00001010:    4191        .A      SBCS     r1,r1,r2
        0x00001012:    4684        .F      MOV      r12,r0
        0x00001014:    202d        -       MOVS     r0,#0x2d
        0x00001016:    e008        ..      B        0x102a ; _printf_core + 382
        0x00001018:    1dff        ..      ADDS     r7,r7,#7
        0x0000101a:    08ff        ..      LSRS     r7,r7,#3
        0x0000101c:    00ff        ..      LSLS     r7,r7,#3
        0x0000101e:    cf03        ..      LDM      r7!,{r0,r1}
        0x00001020:    4684        .F      MOV      r12,r0
        0x00001022:    e7ef        ..      B        0x1004 ; _printf_core + 344
        0x00001024:    0528        (.      LSLS     r0,r5,#20
        0x00001026:    d504        ..      BPL      0x1032 ; _printf_core + 390
        0x00001028:    202b        +       MOVS     r0,#0x2b
        0x0000102a:    466a        jF      MOV      r2,sp
        0x0000102c:    7410        .t      STRB     r0,[r2,#0x10]
        0x0000102e:    2001        .       MOVS     r0,#1
        0x00001030:    e03d        =.      B        0x10ae ; _printf_core + 514
        0x00001032:    07e8        ..      LSLS     r0,r5,#31
        0x00001034:    d03b        ;.      BEQ      0x10ae ; _printf_core + 514
        0x00001036:    2020                MOVS     r0,#0x20
        0x00001038:    e7f7        ..      B        0x102a ; _printf_core + 382
        0x0000103a:    200a        .       MOVS     r0,#0xa
        0x0000103c:    e000        ..      B        0x1040 ; _printf_core + 404
        0x0000103e:    2010        .       MOVS     r0,#0x10
        0x00001040:    2100        .!      MOVS     r1,#0
        0x00001042:    9103        ..      STR      r1,[sp,#0xc]
        0x00001044:    9002        ..      STR      r0,[sp,#8]
        0x00001046:    e007        ..      B        0x1058 ; _printf_core + 428
        0x00001048:    2010        .       MOVS     r0,#0x10
        0x0000104a:    9002        ..      STR      r0,[sp,#8]
        0x0000104c:    2100        .!      MOVS     r1,#0
        0x0000104e:    2004        .       MOVS     r0,#4
        0x00001050:    4305        .C      ORRS     r5,r5,r0
        0x00001052:    2008        .       MOVS     r0,#8
        0x00001054:    9103        ..      STR      r1,[sp,#0xc]
        0x00001056:    9000        ..      STR      r0,[sp,#0]
        0x00001058:    0268        h.      LSLS     r0,r5,#9
        0x0000105a:    0f40        @.      LSRS     r0,r0,#29
        0x0000105c:    2802        .(      CMP      r0,#2
        0x0000105e:    d011        ..      BEQ      0x1084 ; _printf_core + 472
        0x00001060:    cf01        ..      LDM      r7!,{r0}
        0x00001062:    2100        .!      MOVS     r1,#0
        0x00001064:    4684        .F      MOV      r12,r0
        0x00001066:    2000        .       MOVS     r0,#0
        0x00001068:    900d        ..      STR      r0,[sp,#0x34]
        0x0000106a:    0728        (.      LSLS     r0,r5,#28
        0x0000106c:    d520         .      BPL      0x10b0 ; _printf_core + 516
        0x0000106e:    7820         x      LDRB     r0,[r4,#0]
        0x00001070:    4686        .F      MOV      lr,r0
        0x00001072:    2870        p(      CMP      r0,#0x70
        0x00001074:    d00c        ..      BEQ      0x1090 ; _printf_core + 484
        0x00001076:    9a02        ..      LDR      r2,[sp,#8]
        0x00001078:    2010        .       MOVS     r0,#0x10
        0x0000107a:    9b03        ..      LDR      r3,[sp,#0xc]
        0x0000107c:    4042        B@      EORS     r2,r2,r0
        0x0000107e:    431a        .C      ORRS     r2,r2,r3
        0x00001080:    d00c        ..      BEQ      0x109c ; _printf_core + 496
        0x00001082:    e015        ..      B        0x10b0 ; _printf_core + 516
        0x00001084:    1dff        ..      ADDS     r7,r7,#7
        0x00001086:    08ff        ..      LSRS     r7,r7,#3
        0x00001088:    00ff        ..      LSLS     r7,r7,#3
        0x0000108a:    cf03        ..      LDM      r7!,{r0,r1}
        0x0000108c:    4684        .F      MOV      r12,r0
        0x0000108e:    e7ea        ..      B        0x1066 ; _printf_core + 442
        0x00001090:    2040        @       MOVS     r0,#0x40
        0x00001092:    466a        jF      MOV      r2,sp
        0x00001094:    7410        .t      STRB     r0,[r2,#0x10]
        0x00001096:    2001        .       MOVS     r0,#1
        0x00001098:    900d        ..      STR      r0,[sp,#0x34]
        0x0000109a:    e00c        ..      B        0x10b6 ; _printf_core + 522
        0x0000109c:    4660        `F      MOV      r0,r12
        0x0000109e:    4308        .C      ORRS     r0,r0,r1
        0x000010a0:    d006        ..      BEQ      0x10b0 ; _printf_core + 516
        0x000010a2:    2030        0       MOVS     r0,#0x30
        0x000010a4:    466a        jF      MOV      r2,sp
        0x000010a6:    7410        .t      STRB     r0,[r2,#0x10]
        0x000010a8:    4670        pF      MOV      r0,lr
        0x000010aa:    7450        Pt      STRB     r0,[r2,#0x11]
        0x000010ac:    2002        .       MOVS     r0,#2
        0x000010ae:    900d        ..      STR      r0,[sp,#0x34]
        0x000010b0:    7820         x      LDRB     r0,[r4,#0]
        0x000010b2:    2858        X(      CMP      r0,#0x58
        0x000010b4:    d004        ..      BEQ      0x10c0 ; _printf_core + 532
        0x000010b6:    a028        (.      ADR      r0,{pc}+0xa2 ; 0x1158
        0x000010b8:    9001        ..      STR      r0,[sp,#4]
        0x000010ba:    a80d        ..      ADD      r0,sp,#0x34
        0x000010bc:    900e        ..      STR      r0,[sp,#0x38]
        0x000010be:    e00d        ..      B        0x10dc ; _printf_core + 560
        0x000010c0:    a02a        *.      ADR      r0,{pc}+0xac ; 0x116c
        0x000010c2:    e7f9        ..      B        0x10b8 ; _printf_core + 524
        0x000010c4:    4660        `F      MOV      r0,r12
        0x000010c6:    9b03        ..      LDR      r3,[sp,#0xc]
        0x000010c8:    9a02        ..      LDR      r2,[sp,#8]
        0x000010ca:    f7fff869    ..i.    BL       __aeabi_uldivmod ; 0x1a0
        0x000010ce:    9b01        ..      LDR      r3,[sp,#4]
        0x000010d0:    4684        .F      MOV      r12,r0
        0x000010d2:    5c9b        .\      LDRB     r3,[r3,r2]
        0x000010d4:    9a0e        ..      LDR      r2,[sp,#0x38]
        0x000010d6:    1e52        R.      SUBS     r2,r2,#1
        0x000010d8:    920e        ..      STR      r2,[sp,#0x38]
        0x000010da:    7013        .p      STRB     r3,[r2,#0]
        0x000010dc:    4660        `F      MOV      r0,r12
        0x000010de:    4308        .C      ORRS     r0,r0,r1
        0x000010e0:    d1f0        ..      BNE      0x10c4 ; _printf_core + 536
        0x000010e2:    980e        ..      LDR      r0,[sp,#0x38]
        0x000010e4:    a905        ..      ADD      r1,sp,#0x14
        0x000010e6:    1a08        ..      SUBS     r0,r1,r0
        0x000010e8:    3020         0      ADDS     r0,r0,#0x20
        0x000010ea:    9001        ..      STR      r0,[sp,#4]
        0x000010ec:    0768        h.      LSLS     r0,r5,#29
        0x000010ee:    d401        ..      BMI      0x10f4 ; _printf_core + 584
        0x000010f0:    2001        .       MOVS     r0,#1
        0x000010f2:    9000        ..      STR      r0,[sp,#0]
        0x000010f4:    9900        ..      LDR      r1,[sp,#0]
        0x000010f6:    9801        ..      LDR      r0,[sp,#4]
        0x000010f8:    4281        .B      CMP      r1,r0
        0x000010fa:    dd01        ..      BLE      0x1100 ; _printf_core + 596
        0x000010fc:    1a08        ..      SUBS     r0,r1,r0
        0x000010fe:    e000        ..      B        0x1102 ; _printf_core + 598
        0x00001100:    2000        .       MOVS     r0,#0
        0x00001102:    2500        .%      MOVS     r5,#0
        0x00001104:    9000        ..      STR      r0,[sp,#0]
        0x00001106:    e006        ..      B        0x1116 ; _printf_core + 618
        0x00001108:    a804        ..      ADD      r0,sp,#0x10
        0x0000110a:    9a12        ..      LDR      r2,[sp,#0x48]
        0x0000110c:    5d40        @]      LDRB     r0,[r0,r5]
        0x0000110e:    9911        ..      LDR      r1,[sp,#0x44]
        0x00001110:    4790        .G      BLX      r2
        0x00001112:    1c6d        m.      ADDS     r5,r5,#1
        0x00001114:    1c76        v.      ADDS     r6,r6,#1
        0x00001116:    980d        ..      LDR      r0,[sp,#0x34]
        0x00001118:    4285        .B      CMP      r5,r0
        0x0000111a:    dbf5        ..      BLT      0x1108 ; _printf_core + 604
        0x0000111c:    e004        ..      B        0x1128 ; _printf_core + 636
        0x0000111e:    9a12        ..      LDR      r2,[sp,#0x48]
        0x00001120:    2030        0       MOVS     r0,#0x30
        0x00001122:    9911        ..      LDR      r1,[sp,#0x44]
        0x00001124:    4790        .G      BLX      r2
        0x00001126:    1c76        v.      ADDS     r6,r6,#1
        0x00001128:    9900        ..      LDR      r1,[sp,#0]
        0x0000112a:    1e48        H.      SUBS     r0,r1,#1
        0x0000112c:    9000        ..      STR      r0,[sp,#0]
        0x0000112e:    2900        .)      CMP      r1,#0
        0x00001130:    dcf5        ..      BGT      0x111e ; _printf_core + 626
        0x00001132:    e008        ..      B        0x1146 ; _printf_core + 666
        0x00001134:    980e        ..      LDR      r0,[sp,#0x38]
        0x00001136:    990e        ..      LDR      r1,[sp,#0x38]
        0x00001138:    7800        .x      LDRB     r0,[r0,#0]
        0x0000113a:    1c49        I.      ADDS     r1,r1,#1
        0x0000113c:    910e        ..      STR      r1,[sp,#0x38]
        0x0000113e:    9a12        ..      LDR      r2,[sp,#0x48]
        0x00001140:    9911        ..      LDR      r1,[sp,#0x44]
        0x00001142:    4790        .G      BLX      r2
        0x00001144:    1c76        v.      ADDS     r6,r6,#1
        0x00001146:    9901        ..      LDR      r1,[sp,#4]
        0x00001148:    1e48        H.      SUBS     r0,r1,#1
        0x0000114a:    9001        ..      STR      r0,[sp,#4]
        0x0000114c:    2900        .)      CMP      r1,#0
        0x0000114e:    dcf1        ..      BGT      0x1134 ; _printf_core + 648
        0x00001150:    1c64        d.      ADDS     r4,r4,#1
        0x00001152:    e6b8        ..      B        0xec6 ; _printf_core + 26
    $d
        0x00001154:    00012809    .(..    DCD    75785
        0x00001158:    33323130    0123    DCD    858927408
        0x0000115c:    37363534    4567    DCD    926299444
        0x00001160:    62613938    89ab    DCD    1650538808
        0x00001164:    66656463    cdef    DCD    1717920867
        0x00001168:    00000000    ....    DCD    0
        0x0000116c:    33323130    0123    DCD    858927408
        0x00001170:    37363534    4567    DCD    926299444
        0x00001174:    42413938    89AB    DCD    1111570744
        0x00001178:    46454443    CDEF    DCD    1178944579
        0x0000117c:    00000000    ....    DCD    0
    $t
    i.changePort1
    changePort1
        0x00001180:    b510        ..      PUSH     {r4,lr}
        0x00001182:    a046        F.      ADR      r0,{pc}+0x11a ; 0x129c
        0x00001184:    f7fffe72    ..r.    BL       __0printf$5 ; 0xe6c
        0x00001188:    4b45        EK      LDR      r3,[pc,#276] ; [0x12a0] = 0x2000004c
        0x0000118a:    781c        .x      LDRB     r4,[r3,#0]
        0x0000118c:    2101        .!      MOVS     r1,#1
        0x0000118e:    2200        ."      MOVS     r2,#0
        0x00001190:    4844        DH      LDR      r0,[pc,#272] ; [0x12a4] = 0x40004840
        0x00001192:    2c01        .,      CMP      r4,#1
        0x00001194:    d006        ..      BEQ      0x11a4 ; changePort1 + 36
        0x00001196:    781c        .x      LDRB     r4,[r3,#0]
        0x00001198:    2c00        .,      CMP      r4,#0
        0x0000119a:    d005        ..      BEQ      0x11a8 ; changePort1 + 40
        0x0000119c:    781c        .x      LDRB     r4,[r3,#0]
        0x0000119e:    2c06        .,      CMP      r4,#6
        0x000011a0:    d004        ..      BEQ      0x11ac ; changePort1 + 44
        0x000011a2:    e006        ..      B        0x11b2 ; changePort1 + 50
        0x000011a4:    63c1        .c      STR      r1,[r0,#0x3c]
        0x000011a6:    e004        ..      B        0x11b2 ; changePort1 + 50
        0x000011a8:    63c2        .c      STR      r2,[r0,#0x3c]
        0x000011aa:    e002        ..      B        0x11b2 ; changePort1 + 50
        0x000011ac:    6bc4        .k      LDR      r4,[r0,#0x3c]
        0x000011ae:    43e4        .C      MVNS     r4,r4
        0x000011b0:    63c4        .c      STR      r4,[r0,#0x3c]
        0x000011b2:    785c        \x      LDRB     r4,[r3,#1]
        0x000011b4:    2c01        .,      CMP      r4,#1
        0x000011b6:    d006        ..      BEQ      0x11c6 ; changePort1 + 70
        0x000011b8:    785c        \x      LDRB     r4,[r3,#1]
        0x000011ba:    2c00        .,      CMP      r4,#0
        0x000011bc:    d005        ..      BEQ      0x11ca ; changePort1 + 74
        0x000011be:    785c        \x      LDRB     r4,[r3,#1]
        0x000011c0:    2c06        .,      CMP      r4,#6
        0x000011c2:    d004        ..      BEQ      0x11ce ; changePort1 + 78
        0x000011c4:    e006        ..      B        0x11d4 ; changePort1 + 84
        0x000011c6:    6381        .c      STR      r1,[r0,#0x38]
        0x000011c8:    e004        ..      B        0x11d4 ; changePort1 + 84
        0x000011ca:    6382        .c      STR      r2,[r0,#0x38]
        0x000011cc:    e002        ..      B        0x11d4 ; changePort1 + 84
        0x000011ce:    6b84        .k      LDR      r4,[r0,#0x38]
        0x000011d0:    43e4        .C      MVNS     r4,r4
        0x000011d2:    6384        .c      STR      r4,[r0,#0x38]
        0x000011d4:    789c        .x      LDRB     r4,[r3,#2]
        0x000011d6:    2c01        .,      CMP      r4,#1
        0x000011d8:    d006        ..      BEQ      0x11e8 ; changePort1 + 104
        0x000011da:    789c        .x      LDRB     r4,[r3,#2]
        0x000011dc:    2c00        .,      CMP      r4,#0
        0x000011de:    d005        ..      BEQ      0x11ec ; changePort1 + 108
        0x000011e0:    789c        .x      LDRB     r4,[r3,#2]
        0x000011e2:    2c06        .,      CMP      r4,#6
        0x000011e4:    d004        ..      BEQ      0x11f0 ; changePort1 + 112
        0x000011e6:    e006        ..      B        0x11f6 ; changePort1 + 118
        0x000011e8:    6341        Ac      STR      r1,[r0,#0x34]
        0x000011ea:    e004        ..      B        0x11f6 ; changePort1 + 118
        0x000011ec:    6342        Bc      STR      r2,[r0,#0x34]
        0x000011ee:    e002        ..      B        0x11f6 ; changePort1 + 118
        0x000011f0:    6b44        Dk      LDR      r4,[r0,#0x34]
        0x000011f2:    43e4        .C      MVNS     r4,r4
        0x000011f4:    6344        Dc      STR      r4,[r0,#0x34]
        0x000011f6:    78dc        .x      LDRB     r4,[r3,#3]
        0x000011f8:    2c01        .,      CMP      r4,#1
        0x000011fa:    d006        ..      BEQ      0x120a ; changePort1 + 138
        0x000011fc:    78dc        .x      LDRB     r4,[r3,#3]
        0x000011fe:    2c00        .,      CMP      r4,#0
        0x00001200:    d005        ..      BEQ      0x120e ; changePort1 + 142
        0x00001202:    78dc        .x      LDRB     r4,[r3,#3]
        0x00001204:    2c06        .,      CMP      r4,#6
        0x00001206:    d004        ..      BEQ      0x1212 ; changePort1 + 146
        0x00001208:    e006        ..      B        0x1218 ; changePort1 + 152
        0x0000120a:    6301        .c      STR      r1,[r0,#0x30]
        0x0000120c:    e004        ..      B        0x1218 ; changePort1 + 152
        0x0000120e:    6302        .c      STR      r2,[r0,#0x30]
        0x00001210:    e002        ..      B        0x1218 ; changePort1 + 152
        0x00001212:    6b04        .k      LDR      r4,[r0,#0x30]
        0x00001214:    43e4        .C      MVNS     r4,r4
        0x00001216:    6304        .c      STR      r4,[r0,#0x30]
        0x00001218:    791c        .y      LDRB     r4,[r3,#4]
        0x0000121a:    2c01        .,      CMP      r4,#1
        0x0000121c:    d006        ..      BEQ      0x122c ; changePort1 + 172
        0x0000121e:    791c        .y      LDRB     r4,[r3,#4]
        0x00001220:    2c00        .,      CMP      r4,#0
        0x00001222:    d005        ..      BEQ      0x1230 ; changePort1 + 176
        0x00001224:    791c        .y      LDRB     r4,[r3,#4]
        0x00001226:    2c06        .,      CMP      r4,#6
        0x00001228:    d004        ..      BEQ      0x1234 ; changePort1 + 180
        0x0000122a:    e006        ..      B        0x123a ; changePort1 + 186
        0x0000122c:    62c1        .b      STR      r1,[r0,#0x2c]
        0x0000122e:    e004        ..      B        0x123a ; changePort1 + 186
        0x00001230:    62c2        .b      STR      r2,[r0,#0x2c]
        0x00001232:    e002        ..      B        0x123a ; changePort1 + 186
        0x00001234:    6ac4        .j      LDR      r4,[r0,#0x2c]
        0x00001236:    43e4        .C      MVNS     r4,r4
        0x00001238:    62c4        .b      STR      r4,[r0,#0x2c]
        0x0000123a:    795c        \y      LDRB     r4,[r3,#5]
        0x0000123c:    2c01        .,      CMP      r4,#1
        0x0000123e:    d006        ..      BEQ      0x124e ; changePort1 + 206
        0x00001240:    795c        \y      LDRB     r4,[r3,#5]
        0x00001242:    2c00        .,      CMP      r4,#0
        0x00001244:    d005        ..      BEQ      0x1252 ; changePort1 + 210
        0x00001246:    795c        \y      LDRB     r4,[r3,#5]
        0x00001248:    2c06        .,      CMP      r4,#6
        0x0000124a:    d004        ..      BEQ      0x1256 ; changePort1 + 214
        0x0000124c:    e006        ..      B        0x125c ; changePort1 + 220
        0x0000124e:    6281        .b      STR      r1,[r0,#0x28]
        0x00001250:    e004        ..      B        0x125c ; changePort1 + 220
        0x00001252:    6282        .b      STR      r2,[r0,#0x28]
        0x00001254:    e002        ..      B        0x125c ; changePort1 + 220
        0x00001256:    6a84        .j      LDR      r4,[r0,#0x28]
        0x00001258:    43e4        .C      MVNS     r4,r4
        0x0000125a:    6284        .b      STR      r4,[r0,#0x28]
        0x0000125c:    799c        .y      LDRB     r4,[r3,#6]
        0x0000125e:    2c01        .,      CMP      r4,#1
        0x00001260:    d006        ..      BEQ      0x1270 ; changePort1 + 240
        0x00001262:    799c        .y      LDRB     r4,[r3,#6]
        0x00001264:    2c00        .,      CMP      r4,#0
        0x00001266:    d005        ..      BEQ      0x1274 ; changePort1 + 244
        0x00001268:    799c        .y      LDRB     r4,[r3,#6]
        0x0000126a:    2c06        .,      CMP      r4,#6
        0x0000126c:    d004        ..      BEQ      0x1278 ; changePort1 + 248
        0x0000126e:    e006        ..      B        0x127e ; changePort1 + 254
        0x00001270:    6241        Ab      STR      r1,[r0,#0x24]
        0x00001272:    e004        ..      B        0x127e ; changePort1 + 254
        0x00001274:    6242        Bb      STR      r2,[r0,#0x24]
        0x00001276:    e002        ..      B        0x127e ; changePort1 + 254
        0x00001278:    6a44        Dj      LDR      r4,[r0,#0x24]
        0x0000127a:    43e4        .C      MVNS     r4,r4
        0x0000127c:    6244        Db      STR      r4,[r0,#0x24]
        0x0000127e:    79dc        .y      LDRB     r4,[r3,#7]
        0x00001280:    2c01        .,      CMP      r4,#1
        0x00001282:    d007        ..      BEQ      0x1294 ; changePort1 + 276
        0x00001284:    79d9        .y      LDRB     r1,[r3,#7]
        0x00001286:    2900        .)      CMP      r1,#0
        0x00001288:    d006        ..      BEQ      0x1298 ; changePort1 + 280
        0x0000128a:    79d9        .y      LDRB     r1,[r3,#7]
        0x0000128c:    2906        .)      CMP      r1,#6
        0x0000128e:    d102        ..      BNE      0x1296 ; changePort1 + 278
        0x00001290:    6a01        .j      LDR      r1,[r0,#0x20]
        0x00001292:    43c9        .C      MVNS     r1,r1
        0x00001294:    6201        .b      STR      r1,[r0,#0x20]
        0x00001296:    bd10        ..      POP      {r4,pc}
        0x00001298:    6202        .b      STR      r2,[r0,#0x20]
        0x0000129a:    bd10        ..      POP      {r4,pc}
    $d
        0x0000129c:    00000031    1...    DCD    49
        0x000012a0:    2000004c    L..     DCD    536870988
        0x000012a4:    40004840    @H.@    DCD    1073760320
    $t
    i.changePort1States
    changePort1States
        0x000012a8:    b570        p.      PUSH     {r4-r6,lr}
        0x000012aa:    4d6c        lM      LDR      r5,[pc,#432] ; [0x145c] = 0x2000002c
        0x000012ac:    7828        (x      LDRB     r0,[r5,#0]
        0x000012ae:    06c0        ..      LSLS     r0,r0,#27
        0x000012b0:    0ec0        ..      LSRS     r0,r0,#27
        0x000012b2:    7028        (p      STRB     r0,[r5,#0]
        0x000012b4:    782e        .x      LDRB     r6,[r5,#0]
        0x000012b6:    4628        (F      MOV      r0,r5
        0x000012b8:    2101        .!      MOVS     r1,#1
        0x000012ba:    2200        ."      MOVS     r2,#0
        0x000012bc:    2302        .#      MOVS     r3,#2
        0x000012be:    2406        .$      MOVS     r4,#6
        0x000012c0:    3020         0      ADDS     r0,r0,#0x20
        0x000012c2:    2e1f        ..      CMP      r6,#0x1f
        0x000012c4:    d009        ..      BEQ      0x12da ; changePort1States + 50
        0x000012c6:    782e        .x      LDRB     r6,[r5,#0]
        0x000012c8:    2e00        ..      CMP      r6,#0
        0x000012ca:    d008        ..      BEQ      0x12de ; changePort1States + 54
        0x000012cc:    7806        .x      LDRB     r6,[r0,#0]
        0x000012ce:    1c76        v.      ADDS     r6,r6,#1
        0x000012d0:    7006        .p      STRB     r6,[r0,#0]
        0x000012d2:    7806        .x      LDRB     r6,[r0,#0]
        0x000012d4:    2e01        ..      CMP      r6,#1
        0x000012d6:    d004        ..      BEQ      0x12e2 ; changePort1States + 58
        0x000012d8:    e004        ..      B        0x12e4 ; changePort1States + 60
        0x000012da:    7001        .p      STRB     r1,[r0,#0]
        0x000012dc:    e006        ..      B        0x12ec ; changePort1States + 68
        0x000012de:    7002        .p      STRB     r2,[r0,#0]
        0x000012e0:    e004        ..      B        0x12ec ; changePort1States + 68
        0x000012e2:    7003        .p      STRB     r3,[r0,#0]
        0x000012e4:    7806        .x      LDRB     r6,[r0,#0]
        0x000012e6:    2e07        ..      CMP      r6,#7
        0x000012e8:    d100        ..      BNE      0x12ec ; changePort1States + 68
        0x000012ea:    7004        .p      STRB     r4,[r0,#0]
        0x000012ec:    786e        nx      LDRB     r6,[r5,#1]
        0x000012ee:    06f6        ..      LSLS     r6,r6,#27
        0x000012f0:    0ef6        ..      LSRS     r6,r6,#27
        0x000012f2:    706e        np      STRB     r6,[r5,#1]
        0x000012f4:    786e        nx      LDRB     r6,[r5,#1]
        0x000012f6:    2e1f        ..      CMP      r6,#0x1f
        0x000012f8:    d009        ..      BEQ      0x130e ; changePort1States + 102
        0x000012fa:    786e        nx      LDRB     r6,[r5,#1]
        0x000012fc:    2e00        ..      CMP      r6,#0
        0x000012fe:    d008        ..      BEQ      0x1312 ; changePort1States + 106
        0x00001300:    7846        Fx      LDRB     r6,[r0,#1]
        0x00001302:    1c76        v.      ADDS     r6,r6,#1
        0x00001304:    7046        Fp      STRB     r6,[r0,#1]
        0x00001306:    7846        Fx      LDRB     r6,[r0,#1]
        0x00001308:    2e01        ..      CMP      r6,#1
        0x0000130a:    d004        ..      BEQ      0x1316 ; changePort1States + 110
        0x0000130c:    e004        ..      B        0x1318 ; changePort1States + 112
        0x0000130e:    7041        Ap      STRB     r1,[r0,#1]
        0x00001310:    e006        ..      B        0x1320 ; changePort1States + 120
        0x00001312:    7042        Bp      STRB     r2,[r0,#1]
        0x00001314:    e004        ..      B        0x1320 ; changePort1States + 120
        0x00001316:    7043        Cp      STRB     r3,[r0,#1]
        0x00001318:    7846        Fx      LDRB     r6,[r0,#1]
        0x0000131a:    2e07        ..      CMP      r6,#7
        0x0000131c:    d100        ..      BNE      0x1320 ; changePort1States + 120
        0x0000131e:    7044        Dp      STRB     r4,[r0,#1]
        0x00001320:    78ae        .x      LDRB     r6,[r5,#2]
        0x00001322:    06f6        ..      LSLS     r6,r6,#27
        0x00001324:    0ef6        ..      LSRS     r6,r6,#27
        0x00001326:    70ae        .p      STRB     r6,[r5,#2]
        0x00001328:    78ae        .x      LDRB     r6,[r5,#2]
        0x0000132a:    2e1f        ..      CMP      r6,#0x1f
        0x0000132c:    d009        ..      BEQ      0x1342 ; changePort1States + 154
        0x0000132e:    78ae        .x      LDRB     r6,[r5,#2]
        0x00001330:    2e00        ..      CMP      r6,#0
        0x00001332:    d008        ..      BEQ      0x1346 ; changePort1States + 158
        0x00001334:    7886        .x      LDRB     r6,[r0,#2]
        0x00001336:    1c76        v.      ADDS     r6,r6,#1
        0x00001338:    7086        .p      STRB     r6,[r0,#2]
        0x0000133a:    7886        .x      LDRB     r6,[r0,#2]
        0x0000133c:    2e01        ..      CMP      r6,#1
        0x0000133e:    d004        ..      BEQ      0x134a ; changePort1States + 162
        0x00001340:    e004        ..      B        0x134c ; changePort1States + 164
        0x00001342:    7081        .p      STRB     r1,[r0,#2]
        0x00001344:    e006        ..      B        0x1354 ; changePort1States + 172
        0x00001346:    7082        .p      STRB     r2,[r0,#2]
        0x00001348:    e004        ..      B        0x1354 ; changePort1States + 172
        0x0000134a:    7083        .p      STRB     r3,[r0,#2]
        0x0000134c:    7886        .x      LDRB     r6,[r0,#2]
        0x0000134e:    2e07        ..      CMP      r6,#7
        0x00001350:    d100        ..      BNE      0x1354 ; changePort1States + 172
        0x00001352:    7084        .p      STRB     r4,[r0,#2]
        0x00001354:    78ee        .x      LDRB     r6,[r5,#3]
        0x00001356:    06f6        ..      LSLS     r6,r6,#27
        0x00001358:    0ef6        ..      LSRS     r6,r6,#27
        0x0000135a:    70ee        .p      STRB     r6,[r5,#3]
        0x0000135c:    78ee        .x      LDRB     r6,[r5,#3]
        0x0000135e:    2e1f        ..      CMP      r6,#0x1f
        0x00001360:    d009        ..      BEQ      0x1376 ; changePort1States + 206
        0x00001362:    78ee        .x      LDRB     r6,[r5,#3]
        0x00001364:    2e00        ..      CMP      r6,#0
        0x00001366:    d008        ..      BEQ      0x137a ; changePort1States + 210
        0x00001368:    78c6        .x      LDRB     r6,[r0,#3]
        0x0000136a:    1c76        v.      ADDS     r6,r6,#1
        0x0000136c:    70c6        .p      STRB     r6,[r0,#3]
        0x0000136e:    78c6        .x      LDRB     r6,[r0,#3]
        0x00001370:    2e01        ..      CMP      r6,#1
        0x00001372:    d004        ..      BEQ      0x137e ; changePort1States + 214
        0x00001374:    e004        ..      B        0x1380 ; changePort1States + 216
        0x00001376:    70c1        .p      STRB     r1,[r0,#3]
        0x00001378:    e006        ..      B        0x1388 ; changePort1States + 224
        0x0000137a:    70c2        .p      STRB     r2,[r0,#3]
        0x0000137c:    e004        ..      B        0x1388 ; changePort1States + 224
        0x0000137e:    70c3        .p      STRB     r3,[r0,#3]
        0x00001380:    78c6        .x      LDRB     r6,[r0,#3]
        0x00001382:    2e07        ..      CMP      r6,#7
        0x00001384:    d100        ..      BNE      0x1388 ; changePort1States + 224
        0x00001386:    70c4        .p      STRB     r4,[r0,#3]
        0x00001388:    792e        .y      LDRB     r6,[r5,#4]
        0x0000138a:    06f6        ..      LSLS     r6,r6,#27
        0x0000138c:    0ef6        ..      LSRS     r6,r6,#27
        0x0000138e:    712e        .q      STRB     r6,[r5,#4]
        0x00001390:    792e        .y      LDRB     r6,[r5,#4]
        0x00001392:    2e1f        ..      CMP      r6,#0x1f
        0x00001394:    d009        ..      BEQ      0x13aa ; changePort1States + 258
        0x00001396:    792e        .y      LDRB     r6,[r5,#4]
        0x00001398:    2e00        ..      CMP      r6,#0
        0x0000139a:    d008        ..      BEQ      0x13ae ; changePort1States + 262
        0x0000139c:    7906        .y      LDRB     r6,[r0,#4]
        0x0000139e:    1c76        v.      ADDS     r6,r6,#1
        0x000013a0:    7106        .q      STRB     r6,[r0,#4]
        0x000013a2:    7906        .y      LDRB     r6,[r0,#4]
        0x000013a4:    2e01        ..      CMP      r6,#1
        0x000013a6:    d004        ..      BEQ      0x13b2 ; changePort1States + 266
        0x000013a8:    e004        ..      B        0x13b4 ; changePort1States + 268
        0x000013aa:    7101        .q      STRB     r1,[r0,#4]
        0x000013ac:    e006        ..      B        0x13bc ; changePort1States + 276
        0x000013ae:    7102        .q      STRB     r2,[r0,#4]
        0x000013b0:    e004        ..      B        0x13bc ; changePort1States + 276
        0x000013b2:    7103        .q      STRB     r3,[r0,#4]
        0x000013b4:    7906        .y      LDRB     r6,[r0,#4]
        0x000013b6:    2e07        ..      CMP      r6,#7
        0x000013b8:    d100        ..      BNE      0x13bc ; changePort1States + 276
        0x000013ba:    7104        .q      STRB     r4,[r0,#4]
        0x000013bc:    796e        ny      LDRB     r6,[r5,#5]
        0x000013be:    06f6        ..      LSLS     r6,r6,#27
        0x000013c0:    0ef6        ..      LSRS     r6,r6,#27
        0x000013c2:    716e        nq      STRB     r6,[r5,#5]
        0x000013c4:    796e        ny      LDRB     r6,[r5,#5]
        0x000013c6:    2e1f        ..      CMP      r6,#0x1f
        0x000013c8:    d009        ..      BEQ      0x13de ; changePort1States + 310
        0x000013ca:    796e        ny      LDRB     r6,[r5,#5]
        0x000013cc:    2e00        ..      CMP      r6,#0
        0x000013ce:    d008        ..      BEQ      0x13e2 ; changePort1States + 314
        0x000013d0:    7946        Fy      LDRB     r6,[r0,#5]
        0x000013d2:    1c76        v.      ADDS     r6,r6,#1
        0x000013d4:    7146        Fq      STRB     r6,[r0,#5]
        0x000013d6:    7946        Fy      LDRB     r6,[r0,#5]
        0x000013d8:    2e01        ..      CMP      r6,#1
        0x000013da:    d004        ..      BEQ      0x13e6 ; changePort1States + 318
        0x000013dc:    e004        ..      B        0x13e8 ; changePort1States + 320
        0x000013de:    7141        Aq      STRB     r1,[r0,#5]
        0x000013e0:    e006        ..      B        0x13f0 ; changePort1States + 328
        0x000013e2:    7142        Bq      STRB     r2,[r0,#5]
        0x000013e4:    e004        ..      B        0x13f0 ; changePort1States + 328
        0x000013e6:    7143        Cq      STRB     r3,[r0,#5]
        0x000013e8:    7946        Fy      LDRB     r6,[r0,#5]
        0x000013ea:    2e07        ..      CMP      r6,#7
        0x000013ec:    d100        ..      BNE      0x13f0 ; changePort1States + 328
        0x000013ee:    7144        Dq      STRB     r4,[r0,#5]
        0x000013f0:    79ae        .y      LDRB     r6,[r5,#6]
        0x000013f2:    06f6        ..      LSLS     r6,r6,#27
        0x000013f4:    0ef6        ..      LSRS     r6,r6,#27
        0x000013f6:    71ae        .q      STRB     r6,[r5,#6]
        0x000013f8:    79ae        .y      LDRB     r6,[r5,#6]
        0x000013fa:    2e1f        ..      CMP      r6,#0x1f
        0x000013fc:    d009        ..      BEQ      0x1412 ; changePort1States + 362
        0x000013fe:    79ae        .y      LDRB     r6,[r5,#6]
        0x00001400:    2e00        ..      CMP      r6,#0
        0x00001402:    d008        ..      BEQ      0x1416 ; changePort1States + 366
        0x00001404:    7986        .y      LDRB     r6,[r0,#6]
        0x00001406:    1c76        v.      ADDS     r6,r6,#1
        0x00001408:    7186        .q      STRB     r6,[r0,#6]
        0x0000140a:    7986        .y      LDRB     r6,[r0,#6]
        0x0000140c:    2e01        ..      CMP      r6,#1
        0x0000140e:    d004        ..      BEQ      0x141a ; changePort1States + 370
        0x00001410:    e004        ..      B        0x141c ; changePort1States + 372
        0x00001412:    7181        .q      STRB     r1,[r0,#6]
        0x00001414:    e006        ..      B        0x1424 ; changePort1States + 380
        0x00001416:    7182        .q      STRB     r2,[r0,#6]
        0x00001418:    e004        ..      B        0x1424 ; changePort1States + 380
        0x0000141a:    7183        .q      STRB     r3,[r0,#6]
        0x0000141c:    7986        .y      LDRB     r6,[r0,#6]
        0x0000141e:    2e07        ..      CMP      r6,#7
        0x00001420:    d100        ..      BNE      0x1424 ; changePort1States + 380
        0x00001422:    7184        .q      STRB     r4,[r0,#6]
        0x00001424:    79ee        .y      LDRB     r6,[r5,#7]
        0x00001426:    06f6        ..      LSLS     r6,r6,#27
        0x00001428:    0ef6        ..      LSRS     r6,r6,#27
        0x0000142a:    71ee        .q      STRB     r6,[r5,#7]
        0x0000142c:    79ee        .y      LDRB     r6,[r5,#7]
        0x0000142e:    2e1f        ..      CMP      r6,#0x1f
        0x00001430:    d009        ..      BEQ      0x1446 ; changePort1States + 414
        0x00001432:    79e9        .y      LDRB     r1,[r5,#7]
        0x00001434:    2900        .)      CMP      r1,#0
        0x00001436:    d008        ..      BEQ      0x144a ; changePort1States + 418
        0x00001438:    79c1        .y      LDRB     r1,[r0,#7]
        0x0000143a:    1c49        I.      ADDS     r1,r1,#1
        0x0000143c:    71c1        .q      STRB     r1,[r0,#7]
        0x0000143e:    79c1        .y      LDRB     r1,[r0,#7]
        0x00001440:    2901        .)      CMP      r1,#1
        0x00001442:    d004        ..      BEQ      0x144e ; changePort1States + 422
        0x00001444:    e004        ..      B        0x1450 ; changePort1States + 424
        0x00001446:    71c1        .q      STRB     r1,[r0,#7]
        0x00001448:    bd70        p.      POP      {r4-r6,pc}
        0x0000144a:    71c2        .q      STRB     r2,[r0,#7]
        0x0000144c:    bd70        p.      POP      {r4-r6,pc}
        0x0000144e:    71c3        .q      STRB     r3,[r0,#7]
        0x00001450:    79c1        .y      LDRB     r1,[r0,#7]
        0x00001452:    2907        .)      CMP      r1,#7
        0x00001454:    d1fa        ..      BNE      0x144c ; changePort1States + 420
        0x00001456:    71c4        .q      STRB     r4,[r0,#7]
        0x00001458:    bd70        p.      POP      {r4-r6,pc}
    $d
        0x0000145a:    0000        ..      DCW    0
        0x0000145c:    2000002c    ,..     DCD    536870956
    $t
    i.changePort2
    changePort2
        0x00001460:    b510        ..      PUSH     {r4,lr}
        0x00001462:    4b46        FK      LDR      r3,[pc,#280] ; [0x157c] = 0x20000054
        0x00001464:    781c        .x      LDRB     r4,[r3,#0]
        0x00001466:    4846        FH      LDR      r0,[pc,#280] ; [0x1580] = 0x40004800
        0x00001468:    2101        .!      MOVS     r1,#1
        0x0000146a:    2200        ."      MOVS     r2,#0
        0x0000146c:    2c01        .,      CMP      r4,#1
        0x0000146e:    d006        ..      BEQ      0x147e ; changePort2 + 30
        0x00001470:    781c        .x      LDRB     r4,[r3,#0]
        0x00001472:    2c00        .,      CMP      r4,#0
        0x00001474:    d005        ..      BEQ      0x1482 ; changePort2 + 34
        0x00001476:    781c        .x      LDRB     r4,[r3,#0]
        0x00001478:    2c06        .,      CMP      r4,#6
        0x0000147a:    d004        ..      BEQ      0x1486 ; changePort2 + 38
        0x0000147c:    e006        ..      B        0x148c ; changePort2 + 44
        0x0000147e:    62c1        .b      STR      r1,[r0,#0x2c]
        0x00001480:    e004        ..      B        0x148c ; changePort2 + 44
        0x00001482:    62c2        .b      STR      r2,[r0,#0x2c]
        0x00001484:    e002        ..      B        0x148c ; changePort2 + 44
        0x00001486:    6ac4        .j      LDR      r4,[r0,#0x2c]
        0x00001488:    43e4        .C      MVNS     r4,r4
        0x0000148a:    62c4        .b      STR      r4,[r0,#0x2c]
        0x0000148c:    785c        \x      LDRB     r4,[r3,#1]
        0x0000148e:    2c01        .,      CMP      r4,#1
        0x00001490:    d006        ..      BEQ      0x14a0 ; changePort2 + 64
        0x00001492:    785c        \x      LDRB     r4,[r3,#1]
        0x00001494:    2c00        .,      CMP      r4,#0
        0x00001496:    d005        ..      BEQ      0x14a4 ; changePort2 + 68
        0x00001498:    785c        \x      LDRB     r4,[r3,#1]
        0x0000149a:    2c06        .,      CMP      r4,#6
        0x0000149c:    d004        ..      BEQ      0x14a8 ; changePort2 + 72
        0x0000149e:    e006        ..      B        0x14ae ; changePort2 + 78
        0x000014a0:    6281        .b      STR      r1,[r0,#0x28]
        0x000014a2:    e004        ..      B        0x14ae ; changePort2 + 78
        0x000014a4:    6282        .b      STR      r2,[r0,#0x28]
        0x000014a6:    e002        ..      B        0x14ae ; changePort2 + 78
        0x000014a8:    6a84        .j      LDR      r4,[r0,#0x28]
        0x000014aa:    43e4        .C      MVNS     r4,r4
        0x000014ac:    6284        .b      STR      r4,[r0,#0x28]
        0x000014ae:    789c        .x      LDRB     r4,[r3,#2]
        0x000014b0:    4834        4H      LDR      r0,[pc,#208] ; [0x1584] = 0x40004940
        0x000014b2:    2c01        .,      CMP      r4,#1
        0x000014b4:    d006        ..      BEQ      0x14c4 ; changePort2 + 100
        0x000014b6:    789c        .x      LDRB     r4,[r3,#2]
        0x000014b8:    2c00        .,      CMP      r4,#0
        0x000014ba:    d005        ..      BEQ      0x14c8 ; changePort2 + 104
        0x000014bc:    789c        .x      LDRB     r4,[r3,#2]
        0x000014be:    2c06        .,      CMP      r4,#6
        0x000014c0:    d004        ..      BEQ      0x14cc ; changePort2 + 108
        0x000014c2:    e006        ..      B        0x14d2 ; changePort2 + 114
        0x000014c4:    6181        .a      STR      r1,[r0,#0x18]
        0x000014c6:    e004        ..      B        0x14d2 ; changePort2 + 114
        0x000014c8:    6182        .a      STR      r2,[r0,#0x18]
        0x000014ca:    e002        ..      B        0x14d2 ; changePort2 + 114
        0x000014cc:    6984        .i      LDR      r4,[r0,#0x18]
        0x000014ce:    43e4        .C      MVNS     r4,r4
        0x000014d0:    6184        .a      STR      r4,[r0,#0x18]
        0x000014d2:    78dc        .x      LDRB     r4,[r3,#3]
        0x000014d4:    2c01        .,      CMP      r4,#1
        0x000014d6:    d006        ..      BEQ      0x14e6 ; changePort2 + 134
        0x000014d8:    78dc        .x      LDRB     r4,[r3,#3]
        0x000014da:    2c00        .,      CMP      r4,#0
        0x000014dc:    d005        ..      BEQ      0x14ea ; changePort2 + 138
        0x000014de:    78dc        .x      LDRB     r4,[r3,#3]
        0x000014e0:    2c06        .,      CMP      r4,#6
        0x000014e2:    d004        ..      BEQ      0x14ee ; changePort2 + 142
        0x000014e4:    e006        ..      B        0x14f4 ; changePort2 + 148
        0x000014e6:    6381        .c      STR      r1,[r0,#0x38]
        0x000014e8:    e004        ..      B        0x14f4 ; changePort2 + 148
        0x000014ea:    6382        .c      STR      r2,[r0,#0x38]
        0x000014ec:    e002        ..      B        0x14f4 ; changePort2 + 148
        0x000014ee:    6b84        .k      LDR      r4,[r0,#0x38]
        0x000014f0:    43e4        .C      MVNS     r4,r4
        0x000014f2:    6384        .c      STR      r4,[r0,#0x38]
        0x000014f4:    791c        .y      LDRB     r4,[r3,#4]
        0x000014f6:    2c01        .,      CMP      r4,#1
        0x000014f8:    d006        ..      BEQ      0x1508 ; changePort2 + 168
        0x000014fa:    791c        .y      LDRB     r4,[r3,#4]
        0x000014fc:    2c00        .,      CMP      r4,#0
        0x000014fe:    d005        ..      BEQ      0x150c ; changePort2 + 172
        0x00001500:    791c        .y      LDRB     r4,[r3,#4]
        0x00001502:    2c06        .,      CMP      r4,#6
        0x00001504:    d004        ..      BEQ      0x1510 ; changePort2 + 176
        0x00001506:    e006        ..      B        0x1516 ; changePort2 + 182
        0x00001508:    6141        Aa      STR      r1,[r0,#0x14]
        0x0000150a:    e004        ..      B        0x1516 ; changePort2 + 182
        0x0000150c:    6142        Ba      STR      r2,[r0,#0x14]
        0x0000150e:    e002        ..      B        0x1516 ; changePort2 + 182
        0x00001510:    6944        Di      LDR      r4,[r0,#0x14]
        0x00001512:    43e4        .C      MVNS     r4,r4
        0x00001514:    6144        Da      STR      r4,[r0,#0x14]
        0x00001516:    795c        \y      LDRB     r4,[r3,#5]
        0x00001518:    2c01        .,      CMP      r4,#1
        0x0000151a:    d006        ..      BEQ      0x152a ; changePort2 + 202
        0x0000151c:    795c        \y      LDRB     r4,[r3,#5]
        0x0000151e:    2c00        .,      CMP      r4,#0
        0x00001520:    d005        ..      BEQ      0x152e ; changePort2 + 206
        0x00001522:    795c        \y      LDRB     r4,[r3,#5]
        0x00001524:    2c06        .,      CMP      r4,#6
        0x00001526:    d004        ..      BEQ      0x1532 ; changePort2 + 210
        0x00001528:    e006        ..      B        0x1538 ; changePort2 + 216
        0x0000152a:    6101        .a      STR      r1,[r0,#0x10]
        0x0000152c:    e004        ..      B        0x1538 ; changePort2 + 216
        0x0000152e:    6102        .a      STR      r2,[r0,#0x10]
        0x00001530:    e002        ..      B        0x1538 ; changePort2 + 216
        0x00001532:    6904        .i      LDR      r4,[r0,#0x10]
        0x00001534:    43e4        .C      MVNS     r4,r4
        0x00001536:    6104        .a      STR      r4,[r0,#0x10]
        0x00001538:    799c        .y      LDRB     r4,[r3,#6]
        0x0000153a:    4811        .H      LDR      r0,[pc,#68] ; [0x1580] = 0x40004800
        0x0000153c:    3080        .0      ADDS     r0,r0,#0x80
        0x0000153e:    2c01        .,      CMP      r4,#1
        0x00001540:    d006        ..      BEQ      0x1550 ; changePort2 + 240
        0x00001542:    799c        .y      LDRB     r4,[r3,#6]
        0x00001544:    2c00        .,      CMP      r4,#0
        0x00001546:    d005        ..      BEQ      0x1554 ; changePort2 + 244
        0x00001548:    799c        .y      LDRB     r4,[r3,#6]
        0x0000154a:    2c06        .,      CMP      r4,#6
        0x0000154c:    d004        ..      BEQ      0x1558 ; changePort2 + 248
        0x0000154e:    e006        ..      B        0x155e ; changePort2 + 254
        0x00001550:    61c1        .a      STR      r1,[r0,#0x1c]
        0x00001552:    e004        ..      B        0x155e ; changePort2 + 254
        0x00001554:    61c2        .a      STR      r2,[r0,#0x1c]
        0x00001556:    e002        ..      B        0x155e ; changePort2 + 254
        0x00001558:    69c4        .i      LDR      r4,[r0,#0x1c]
        0x0000155a:    43e4        .C      MVNS     r4,r4
        0x0000155c:    61c4        .a      STR      r4,[r0,#0x1c]
        0x0000155e:    79dc        .y      LDRB     r4,[r3,#7]
        0x00001560:    2c01        .,      CMP      r4,#1
        0x00001562:    d007        ..      BEQ      0x1574 ; changePort2 + 276
        0x00001564:    79d9        .y      LDRB     r1,[r3,#7]
        0x00001566:    2900        .)      CMP      r1,#0
        0x00001568:    d006        ..      BEQ      0x1578 ; changePort2 + 280
        0x0000156a:    79d9        .y      LDRB     r1,[r3,#7]
        0x0000156c:    2906        .)      CMP      r1,#6
        0x0000156e:    d102        ..      BNE      0x1576 ; changePort2 + 278
        0x00001570:    6981        .i      LDR      r1,[r0,#0x18]
        0x00001572:    43c9        .C      MVNS     r1,r1
        0x00001574:    6181        .a      STR      r1,[r0,#0x18]
        0x00001576:    bd10        ..      POP      {r4,pc}
        0x00001578:    6182        .a      STR      r2,[r0,#0x18]
        0x0000157a:    bd10        ..      POP      {r4,pc}
    $d
        0x0000157c:    20000054    T..     DCD    536870996
        0x00001580:    40004800    .H.@    DCD    1073760256
        0x00001584:    40004940    @I.@    DCD    1073760576
    $t
    i.changePort2States
    changePort2States
        0x00001588:    b570        p.      PUSH     {r4-r6,lr}
        0x0000158a:    4d6c        lM      LDR      r5,[pc,#432] ; [0x173c] = 0x20000034
        0x0000158c:    7828        (x      LDRB     r0,[r5,#0]
        0x0000158e:    06c0        ..      LSLS     r0,r0,#27
        0x00001590:    0ec0        ..      LSRS     r0,r0,#27
        0x00001592:    7028        (p      STRB     r0,[r5,#0]
        0x00001594:    782e        .x      LDRB     r6,[r5,#0]
        0x00001596:    4628        (F      MOV      r0,r5
        0x00001598:    2101        .!      MOVS     r1,#1
        0x0000159a:    2200        ."      MOVS     r2,#0
        0x0000159c:    2302        .#      MOVS     r3,#2
        0x0000159e:    2406        .$      MOVS     r4,#6
        0x000015a0:    3020         0      ADDS     r0,r0,#0x20
        0x000015a2:    2e1f        ..      CMP      r6,#0x1f
        0x000015a4:    d009        ..      BEQ      0x15ba ; changePort2States + 50
        0x000015a6:    782e        .x      LDRB     r6,[r5,#0]
        0x000015a8:    2e00        ..      CMP      r6,#0
        0x000015aa:    d008        ..      BEQ      0x15be ; changePort2States + 54
        0x000015ac:    7806        .x      LDRB     r6,[r0,#0]
        0x000015ae:    1c76        v.      ADDS     r6,r6,#1
        0x000015b0:    7006        .p      STRB     r6,[r0,#0]
        0x000015b2:    7806        .x      LDRB     r6,[r0,#0]
        0x000015b4:    2e01        ..      CMP      r6,#1
        0x000015b6:    d004        ..      BEQ      0x15c2 ; changePort2States + 58
        0x000015b8:    e004        ..      B        0x15c4 ; changePort2States + 60
        0x000015ba:    7001        .p      STRB     r1,[r0,#0]
        0x000015bc:    e006        ..      B        0x15cc ; changePort2States + 68
        0x000015be:    7002        .p      STRB     r2,[r0,#0]
        0x000015c0:    e004        ..      B        0x15cc ; changePort2States + 68
        0x000015c2:    7003        .p      STRB     r3,[r0,#0]
        0x000015c4:    7806        .x      LDRB     r6,[r0,#0]
        0x000015c6:    2e07        ..      CMP      r6,#7
        0x000015c8:    d100        ..      BNE      0x15cc ; changePort2States + 68
        0x000015ca:    7004        .p      STRB     r4,[r0,#0]
        0x000015cc:    786e        nx      LDRB     r6,[r5,#1]
        0x000015ce:    06f6        ..      LSLS     r6,r6,#27
        0x000015d0:    0ef6        ..      LSRS     r6,r6,#27
        0x000015d2:    706e        np      STRB     r6,[r5,#1]
        0x000015d4:    786e        nx      LDRB     r6,[r5,#1]
        0x000015d6:    2e1f        ..      CMP      r6,#0x1f
        0x000015d8:    d009        ..      BEQ      0x15ee ; changePort2States + 102
        0x000015da:    786e        nx      LDRB     r6,[r5,#1]
        0x000015dc:    2e00        ..      CMP      r6,#0
        0x000015de:    d008        ..      BEQ      0x15f2 ; changePort2States + 106
        0x000015e0:    7846        Fx      LDRB     r6,[r0,#1]
        0x000015e2:    1c76        v.      ADDS     r6,r6,#1
        0x000015e4:    7046        Fp      STRB     r6,[r0,#1]
        0x000015e6:    7846        Fx      LDRB     r6,[r0,#1]
        0x000015e8:    2e01        ..      CMP      r6,#1
        0x000015ea:    d004        ..      BEQ      0x15f6 ; changePort2States + 110
        0x000015ec:    e004        ..      B        0x15f8 ; changePort2States + 112
        0x000015ee:    7041        Ap      STRB     r1,[r0,#1]
        0x000015f0:    e006        ..      B        0x1600 ; changePort2States + 120
        0x000015f2:    7042        Bp      STRB     r2,[r0,#1]
        0x000015f4:    e004        ..      B        0x1600 ; changePort2States + 120
        0x000015f6:    7043        Cp      STRB     r3,[r0,#1]
        0x000015f8:    7846        Fx      LDRB     r6,[r0,#1]
        0x000015fa:    2e07        ..      CMP      r6,#7
        0x000015fc:    d100        ..      BNE      0x1600 ; changePort2States + 120
        0x000015fe:    7044        Dp      STRB     r4,[r0,#1]
        0x00001600:    78ae        .x      LDRB     r6,[r5,#2]
        0x00001602:    06f6        ..      LSLS     r6,r6,#27
        0x00001604:    0ef6        ..      LSRS     r6,r6,#27
        0x00001606:    70ae        .p      STRB     r6,[r5,#2]
        0x00001608:    78ae        .x      LDRB     r6,[r5,#2]
        0x0000160a:    2e1f        ..      CMP      r6,#0x1f
        0x0000160c:    d009        ..      BEQ      0x1622 ; changePort2States + 154
        0x0000160e:    78ae        .x      LDRB     r6,[r5,#2]
        0x00001610:    2e00        ..      CMP      r6,#0
        0x00001612:    d008        ..      BEQ      0x1626 ; changePort2States + 158
        0x00001614:    7886        .x      LDRB     r6,[r0,#2]
        0x00001616:    1c76        v.      ADDS     r6,r6,#1
        0x00001618:    7086        .p      STRB     r6,[r0,#2]
        0x0000161a:    7886        .x      LDRB     r6,[r0,#2]
        0x0000161c:    2e01        ..      CMP      r6,#1
        0x0000161e:    d004        ..      BEQ      0x162a ; changePort2States + 162
        0x00001620:    e004        ..      B        0x162c ; changePort2States + 164
        0x00001622:    7081        .p      STRB     r1,[r0,#2]
        0x00001624:    e006        ..      B        0x1634 ; changePort2States + 172
        0x00001626:    7082        .p      STRB     r2,[r0,#2]
        0x00001628:    e004        ..      B        0x1634 ; changePort2States + 172
        0x0000162a:    7083        .p      STRB     r3,[r0,#2]
        0x0000162c:    7886        .x      LDRB     r6,[r0,#2]
        0x0000162e:    2e07        ..      CMP      r6,#7
        0x00001630:    d100        ..      BNE      0x1634 ; changePort2States + 172
        0x00001632:    7084        .p      STRB     r4,[r0,#2]
        0x00001634:    78ee        .x      LDRB     r6,[r5,#3]
        0x00001636:    06f6        ..      LSLS     r6,r6,#27
        0x00001638:    0ef6        ..      LSRS     r6,r6,#27
        0x0000163a:    70ee        .p      STRB     r6,[r5,#3]
        0x0000163c:    78ee        .x      LDRB     r6,[r5,#3]
        0x0000163e:    2e1f        ..      CMP      r6,#0x1f
        0x00001640:    d009        ..      BEQ      0x1656 ; changePort2States + 206
        0x00001642:    78ee        .x      LDRB     r6,[r5,#3]
        0x00001644:    2e00        ..      CMP      r6,#0
        0x00001646:    d008        ..      BEQ      0x165a ; changePort2States + 210
        0x00001648:    78c6        .x      LDRB     r6,[r0,#3]
        0x0000164a:    1c76        v.      ADDS     r6,r6,#1
        0x0000164c:    70c6        .p      STRB     r6,[r0,#3]
        0x0000164e:    78c6        .x      LDRB     r6,[r0,#3]
        0x00001650:    2e01        ..      CMP      r6,#1
        0x00001652:    d004        ..      BEQ      0x165e ; changePort2States + 214
        0x00001654:    e004        ..      B        0x1660 ; changePort2States + 216
        0x00001656:    70c1        .p      STRB     r1,[r0,#3]
        0x00001658:    e006        ..      B        0x1668 ; changePort2States + 224
        0x0000165a:    70c2        .p      STRB     r2,[r0,#3]
        0x0000165c:    e004        ..      B        0x1668 ; changePort2States + 224
        0x0000165e:    70c3        .p      STRB     r3,[r0,#3]
        0x00001660:    78c6        .x      LDRB     r6,[r0,#3]
        0x00001662:    2e07        ..      CMP      r6,#7
        0x00001664:    d100        ..      BNE      0x1668 ; changePort2States + 224
        0x00001666:    70c4        .p      STRB     r4,[r0,#3]
        0x00001668:    792e        .y      LDRB     r6,[r5,#4]
        0x0000166a:    06f6        ..      LSLS     r6,r6,#27
        0x0000166c:    0ef6        ..      LSRS     r6,r6,#27
        0x0000166e:    712e        .q      STRB     r6,[r5,#4]
        0x00001670:    792e        .y      LDRB     r6,[r5,#4]
        0x00001672:    2e1f        ..      CMP      r6,#0x1f
        0x00001674:    d009        ..      BEQ      0x168a ; changePort2States + 258
        0x00001676:    792e        .y      LDRB     r6,[r5,#4]
        0x00001678:    2e00        ..      CMP      r6,#0
        0x0000167a:    d008        ..      BEQ      0x168e ; changePort2States + 262
        0x0000167c:    7906        .y      LDRB     r6,[r0,#4]
        0x0000167e:    1c76        v.      ADDS     r6,r6,#1
        0x00001680:    7106        .q      STRB     r6,[r0,#4]
        0x00001682:    7906        .y      LDRB     r6,[r0,#4]
        0x00001684:    2e01        ..      CMP      r6,#1
        0x00001686:    d004        ..      BEQ      0x1692 ; changePort2States + 266
        0x00001688:    e004        ..      B        0x1694 ; changePort2States + 268
        0x0000168a:    7101        .q      STRB     r1,[r0,#4]
        0x0000168c:    e006        ..      B        0x169c ; changePort2States + 276
        0x0000168e:    7102        .q      STRB     r2,[r0,#4]
        0x00001690:    e004        ..      B        0x169c ; changePort2States + 276
        0x00001692:    7103        .q      STRB     r3,[r0,#4]
        0x00001694:    7906        .y      LDRB     r6,[r0,#4]
        0x00001696:    2e07        ..      CMP      r6,#7
        0x00001698:    d100        ..      BNE      0x169c ; changePort2States + 276
        0x0000169a:    7104        .q      STRB     r4,[r0,#4]
        0x0000169c:    796e        ny      LDRB     r6,[r5,#5]
        0x0000169e:    06f6        ..      LSLS     r6,r6,#27
        0x000016a0:    0ef6        ..      LSRS     r6,r6,#27
        0x000016a2:    716e        nq      STRB     r6,[r5,#5]
        0x000016a4:    796e        ny      LDRB     r6,[r5,#5]
        0x000016a6:    2e1f        ..      CMP      r6,#0x1f
        0x000016a8:    d009        ..      BEQ      0x16be ; changePort2States + 310
        0x000016aa:    796e        ny      LDRB     r6,[r5,#5]
        0x000016ac:    2e00        ..      CMP      r6,#0
        0x000016ae:    d008        ..      BEQ      0x16c2 ; changePort2States + 314
        0x000016b0:    7946        Fy      LDRB     r6,[r0,#5]
        0x000016b2:    1c76        v.      ADDS     r6,r6,#1
        0x000016b4:    7146        Fq      STRB     r6,[r0,#5]
        0x000016b6:    7946        Fy      LDRB     r6,[r0,#5]
        0x000016b8:    2e01        ..      CMP      r6,#1
        0x000016ba:    d004        ..      BEQ      0x16c6 ; changePort2States + 318
        0x000016bc:    e004        ..      B        0x16c8 ; changePort2States + 320
        0x000016be:    7141        Aq      STRB     r1,[r0,#5]
        0x000016c0:    e006        ..      B        0x16d0 ; changePort2States + 328
        0x000016c2:    7142        Bq      STRB     r2,[r0,#5]
        0x000016c4:    e004        ..      B        0x16d0 ; changePort2States + 328
        0x000016c6:    7143        Cq      STRB     r3,[r0,#5]
        0x000016c8:    7946        Fy      LDRB     r6,[r0,#5]
        0x000016ca:    2e07        ..      CMP      r6,#7
        0x000016cc:    d100        ..      BNE      0x16d0 ; changePort2States + 328
        0x000016ce:    7144        Dq      STRB     r4,[r0,#5]
        0x000016d0:    79ae        .y      LDRB     r6,[r5,#6]
        0x000016d2:    06f6        ..      LSLS     r6,r6,#27
        0x000016d4:    0ef6        ..      LSRS     r6,r6,#27
        0x000016d6:    71ae        .q      STRB     r6,[r5,#6]
        0x000016d8:    79ae        .y      LDRB     r6,[r5,#6]
        0x000016da:    2e1f        ..      CMP      r6,#0x1f
        0x000016dc:    d009        ..      BEQ      0x16f2 ; changePort2States + 362
        0x000016de:    79ae        .y      LDRB     r6,[r5,#6]
        0x000016e0:    2e00        ..      CMP      r6,#0
        0x000016e2:    d008        ..      BEQ      0x16f6 ; changePort2States + 366
        0x000016e4:    7986        .y      LDRB     r6,[r0,#6]
        0x000016e6:    1c76        v.      ADDS     r6,r6,#1
        0x000016e8:    7186        .q      STRB     r6,[r0,#6]
        0x000016ea:    7986        .y      LDRB     r6,[r0,#6]
        0x000016ec:    2e01        ..      CMP      r6,#1
        0x000016ee:    d004        ..      BEQ      0x16fa ; changePort2States + 370
        0x000016f0:    e004        ..      B        0x16fc ; changePort2States + 372
        0x000016f2:    7181        .q      STRB     r1,[r0,#6]
        0x000016f4:    e006        ..      B        0x1704 ; changePort2States + 380
        0x000016f6:    7182        .q      STRB     r2,[r0,#6]
        0x000016f8:    e004        ..      B        0x1704 ; changePort2States + 380
        0x000016fa:    7183        .q      STRB     r3,[r0,#6]
        0x000016fc:    7986        .y      LDRB     r6,[r0,#6]
        0x000016fe:    2e07        ..      CMP      r6,#7
        0x00001700:    d100        ..      BNE      0x1704 ; changePort2States + 380
        0x00001702:    7184        .q      STRB     r4,[r0,#6]
        0x00001704:    79ee        .y      LDRB     r6,[r5,#7]
        0x00001706:    06f6        ..      LSLS     r6,r6,#27
        0x00001708:    0ef6        ..      LSRS     r6,r6,#27
        0x0000170a:    71ee        .q      STRB     r6,[r5,#7]
        0x0000170c:    79ee        .y      LDRB     r6,[r5,#7]
        0x0000170e:    2e1f        ..      CMP      r6,#0x1f
        0x00001710:    d009        ..      BEQ      0x1726 ; changePort2States + 414
        0x00001712:    79e9        .y      LDRB     r1,[r5,#7]
        0x00001714:    2900        .)      CMP      r1,#0
        0x00001716:    d008        ..      BEQ      0x172a ; changePort2States + 418
        0x00001718:    79c1        .y      LDRB     r1,[r0,#7]
        0x0000171a:    1c49        I.      ADDS     r1,r1,#1
        0x0000171c:    71c1        .q      STRB     r1,[r0,#7]
        0x0000171e:    79c1        .y      LDRB     r1,[r0,#7]
        0x00001720:    2901        .)      CMP      r1,#1
        0x00001722:    d004        ..      BEQ      0x172e ; changePort2States + 422
        0x00001724:    e004        ..      B        0x1730 ; changePort2States + 424
        0x00001726:    71c1        .q      STRB     r1,[r0,#7]
        0x00001728:    bd70        p.      POP      {r4-r6,pc}
        0x0000172a:    71c2        .q      STRB     r2,[r0,#7]
        0x0000172c:    bd70        p.      POP      {r4-r6,pc}
        0x0000172e:    71c3        .q      STRB     r3,[r0,#7]
        0x00001730:    79c1        .y      LDRB     r1,[r0,#7]
        0x00001732:    2907        .)      CMP      r1,#7
        0x00001734:    d1fa        ..      BNE      0x172c ; changePort2States + 420
        0x00001736:    71c4        .q      STRB     r4,[r0,#7]
        0x00001738:    bd70        p.      POP      {r4-r6,pc}
    $d
        0x0000173a:    0000        ..      DCW    0
        0x0000173c:    20000034    4..     DCD    536870964
    $t
    i.changePort3
    changePort3
        0x00001740:    b510        ..      PUSH     {r4,lr}
        0x00001742:    4b45        EK      LDR      r3,[pc,#276] ; [0x1858] = 0x2000005c
        0x00001744:    781c        .x      LDRB     r4,[r3,#0]
        0x00001746:    2101        .!      MOVS     r1,#1
        0x00001748:    2200        ."      MOVS     r2,#0
        0x0000174a:    4844        DH      LDR      r0,[pc,#272] ; [0x185c] = 0x40004840
        0x0000174c:    2c01        .,      CMP      r4,#1
        0x0000174e:    d006        ..      BEQ      0x175e ; changePort3 + 30
        0x00001750:    781c        .x      LDRB     r4,[r3,#0]
        0x00001752:    2c00        .,      CMP      r4,#0
        0x00001754:    d005        ..      BEQ      0x1762 ; changePort3 + 34
        0x00001756:    781c        .x      LDRB     r4,[r3,#0]
        0x00001758:    2c06        .,      CMP      r4,#6
        0x0000175a:    d004        ..      BEQ      0x1766 ; changePort3 + 38
        0x0000175c:    e006        ..      B        0x176c ; changePort3 + 44
        0x0000175e:    61c1        .a      STR      r1,[r0,#0x1c]
        0x00001760:    e004        ..      B        0x176c ; changePort3 + 44
        0x00001762:    61c2        .a      STR      r2,[r0,#0x1c]
        0x00001764:    e002        ..      B        0x176c ; changePort3 + 44
        0x00001766:    69c4        .i      LDR      r4,[r0,#0x1c]
        0x00001768:    43e4        .C      MVNS     r4,r4
        0x0000176a:    61c4        .a      STR      r4,[r0,#0x1c]
        0x0000176c:    785c        \x      LDRB     r4,[r3,#1]
        0x0000176e:    2c01        .,      CMP      r4,#1
        0x00001770:    d006        ..      BEQ      0x1780 ; changePort3 + 64
        0x00001772:    785c        \x      LDRB     r4,[r3,#1]
        0x00001774:    2c00        .,      CMP      r4,#0
        0x00001776:    d005        ..      BEQ      0x1784 ; changePort3 + 68
        0x00001778:    785c        \x      LDRB     r4,[r3,#1]
        0x0000177a:    2c06        .,      CMP      r4,#6
        0x0000177c:    d004        ..      BEQ      0x1788 ; changePort3 + 72
        0x0000177e:    e006        ..      B        0x178e ; changePort3 + 78
        0x00001780:    6181        .a      STR      r1,[r0,#0x18]
        0x00001782:    e004        ..      B        0x178e ; changePort3 + 78
        0x00001784:    6182        .a      STR      r2,[r0,#0x18]
        0x00001786:    e002        ..      B        0x178e ; changePort3 + 78
        0x00001788:    6984        .i      LDR      r4,[r0,#0x18]
        0x0000178a:    43e4        .C      MVNS     r4,r4
        0x0000178c:    6184        .a      STR      r4,[r0,#0x18]
        0x0000178e:    789c        .x      LDRB     r4,[r3,#2]
        0x00001790:    2c01        .,      CMP      r4,#1
        0x00001792:    d006        ..      BEQ      0x17a2 ; changePort3 + 98
        0x00001794:    789c        .x      LDRB     r4,[r3,#2]
        0x00001796:    2c00        .,      CMP      r4,#0
        0x00001798:    d005        ..      BEQ      0x17a6 ; changePort3 + 102
        0x0000179a:    789c        .x      LDRB     r4,[r3,#2]
        0x0000179c:    2c06        .,      CMP      r4,#6
        0x0000179e:    d004        ..      BEQ      0x17aa ; changePort3 + 106
        0x000017a0:    e006        ..      B        0x17b0 ; changePort3 + 112
        0x000017a2:    6141        Aa      STR      r1,[r0,#0x14]
        0x000017a4:    e004        ..      B        0x17b0 ; changePort3 + 112
        0x000017a6:    6142        Ba      STR      r2,[r0,#0x14]
        0x000017a8:    e002        ..      B        0x17b0 ; changePort3 + 112
        0x000017aa:    6944        Di      LDR      r4,[r0,#0x14]
        0x000017ac:    43e4        .C      MVNS     r4,r4
        0x000017ae:    6144        Da      STR      r4,[r0,#0x14]
        0x000017b0:    78dc        .x      LDRB     r4,[r3,#3]
        0x000017b2:    2c01        .,      CMP      r4,#1
        0x000017b4:    d006        ..      BEQ      0x17c4 ; changePort3 + 132
        0x000017b6:    78dc        .x      LDRB     r4,[r3,#3]
        0x000017b8:    2c00        .,      CMP      r4,#0
        0x000017ba:    d005        ..      BEQ      0x17c8 ; changePort3 + 136
        0x000017bc:    78dc        .x      LDRB     r4,[r3,#3]
        0x000017be:    2c06        .,      CMP      r4,#6
        0x000017c0:    d004        ..      BEQ      0x17cc ; changePort3 + 140
        0x000017c2:    e006        ..      B        0x17d2 ; changePort3 + 146
        0x000017c4:    6101        .a      STR      r1,[r0,#0x10]
        0x000017c6:    e004        ..      B        0x17d2 ; changePort3 + 146
        0x000017c8:    6102        .a      STR      r2,[r0,#0x10]
        0x000017ca:    e002        ..      B        0x17d2 ; changePort3 + 146
        0x000017cc:    6904        .i      LDR      r4,[r0,#0x10]
        0x000017ce:    43e4        .C      MVNS     r4,r4
        0x000017d0:    6104        .a      STR      r4,[r0,#0x10]
        0x000017d2:    791c        .y      LDRB     r4,[r3,#4]
        0x000017d4:    2c01        .,      CMP      r4,#1
        0x000017d6:    d006        ..      BEQ      0x17e6 ; changePort3 + 166
        0x000017d8:    791c        .y      LDRB     r4,[r3,#4]
        0x000017da:    2c00        .,      CMP      r4,#0
        0x000017dc:    d005        ..      BEQ      0x17ea ; changePort3 + 170
        0x000017de:    791c        .y      LDRB     r4,[r3,#4]
        0x000017e0:    2c06        .,      CMP      r4,#6
        0x000017e2:    d004        ..      BEQ      0x17ee ; changePort3 + 174
        0x000017e4:    e006        ..      B        0x17f4 ; changePort3 + 180
        0x000017e6:    60c1        .`      STR      r1,[r0,#0xc]
        0x000017e8:    e004        ..      B        0x17f4 ; changePort3 + 180
        0x000017ea:    60c2        .`      STR      r2,[r0,#0xc]
        0x000017ec:    e002        ..      B        0x17f4 ; changePort3 + 180
        0x000017ee:    68c4        .h      LDR      r4,[r0,#0xc]
        0x000017f0:    43e4        .C      MVNS     r4,r4
        0x000017f2:    60c4        .`      STR      r4,[r0,#0xc]
        0x000017f4:    795c        \y      LDRB     r4,[r3,#5]
        0x000017f6:    2c01        .,      CMP      r4,#1
        0x000017f8:    d006        ..      BEQ      0x1808 ; changePort3 + 200
        0x000017fa:    795c        \y      LDRB     r4,[r3,#5]
        0x000017fc:    2c00        .,      CMP      r4,#0
        0x000017fe:    d005        ..      BEQ      0x180c ; changePort3 + 204
        0x00001800:    795c        \y      LDRB     r4,[r3,#5]
        0x00001802:    2c06        .,      CMP      r4,#6
        0x00001804:    d004        ..      BEQ      0x1810 ; changePort3 + 208
        0x00001806:    e006        ..      B        0x1816 ; changePort3 + 214
        0x00001808:    6081        .`      STR      r1,[r0,#8]
        0x0000180a:    e004        ..      B        0x1816 ; changePort3 + 214
        0x0000180c:    6082        .`      STR      r2,[r0,#8]
        0x0000180e:    e002        ..      B        0x1816 ; changePort3 + 214
        0x00001810:    6884        .h      LDR      r4,[r0,#8]
        0x00001812:    43e4        .C      MVNS     r4,r4
        0x00001814:    6084        .`      STR      r4,[r0,#8]
        0x00001816:    799c        .y      LDRB     r4,[r3,#6]
        0x00001818:    2c01        .,      CMP      r4,#1
        0x0000181a:    d006        ..      BEQ      0x182a ; changePort3 + 234
        0x0000181c:    799c        .y      LDRB     r4,[r3,#6]
        0x0000181e:    2c00        .,      CMP      r4,#0
        0x00001820:    d005        ..      BEQ      0x182e ; changePort3 + 238
        0x00001822:    799c        .y      LDRB     r4,[r3,#6]
        0x00001824:    2c06        .,      CMP      r4,#6
        0x00001826:    d004        ..      BEQ      0x1832 ; changePort3 + 242
        0x00001828:    e006        ..      B        0x1838 ; changePort3 + 248
        0x0000182a:    6041        A`      STR      r1,[r0,#4]
        0x0000182c:    e004        ..      B        0x1838 ; changePort3 + 248
        0x0000182e:    6042        B`      STR      r2,[r0,#4]
        0x00001830:    e002        ..      B        0x1838 ; changePort3 + 248
        0x00001832:    6844        Dh      LDR      r4,[r0,#4]
        0x00001834:    43e4        .C      MVNS     r4,r4
        0x00001836:    6044        D`      STR      r4,[r0,#4]
        0x00001838:    79dc        .y      LDRB     r4,[r3,#7]
        0x0000183a:    2c01        .,      CMP      r4,#1
        0x0000183c:    d007        ..      BEQ      0x184e ; changePort3 + 270
        0x0000183e:    79d9        .y      LDRB     r1,[r3,#7]
        0x00001840:    2900        .)      CMP      r1,#0
        0x00001842:    d006        ..      BEQ      0x1852 ; changePort3 + 274
        0x00001844:    79d9        .y      LDRB     r1,[r3,#7]
        0x00001846:    2906        .)      CMP      r1,#6
        0x00001848:    d102        ..      BNE      0x1850 ; changePort3 + 272
        0x0000184a:    6801        .h      LDR      r1,[r0,#0]
        0x0000184c:    43c9        .C      MVNS     r1,r1
        0x0000184e:    6001        .`      STR      r1,[r0,#0]
        0x00001850:    bd10        ..      POP      {r4,pc}
        0x00001852:    6002        .`      STR      r2,[r0,#0]
        0x00001854:    bd10        ..      POP      {r4,pc}
    $d
        0x00001856:    0000        ..      DCW    0
        0x00001858:    2000005c    \..     DCD    536871004
        0x0000185c:    40004840    @H.@    DCD    1073760320
    $t
    i.changePort3States
    changePort3States
        0x00001860:    b570        p.      PUSH     {r4-r6,lr}
        0x00001862:    4d6c        lM      LDR      r5,[pc,#432] ; [0x1a14] = 0x2000003c
        0x00001864:    7828        (x      LDRB     r0,[r5,#0]
        0x00001866:    06c0        ..      LSLS     r0,r0,#27
        0x00001868:    0ec0        ..      LSRS     r0,r0,#27
        0x0000186a:    7028        (p      STRB     r0,[r5,#0]
        0x0000186c:    782e        .x      LDRB     r6,[r5,#0]
        0x0000186e:    4628        (F      MOV      r0,r5
        0x00001870:    2101        .!      MOVS     r1,#1
        0x00001872:    2200        ."      MOVS     r2,#0
        0x00001874:    2302        .#      MOVS     r3,#2
        0x00001876:    2406        .$      MOVS     r4,#6
        0x00001878:    3020         0      ADDS     r0,r0,#0x20
        0x0000187a:    2e1f        ..      CMP      r6,#0x1f
        0x0000187c:    d009        ..      BEQ      0x1892 ; changePort3States + 50
        0x0000187e:    782e        .x      LDRB     r6,[r5,#0]
        0x00001880:    2e00        ..      CMP      r6,#0
        0x00001882:    d008        ..      BEQ      0x1896 ; changePort3States + 54
        0x00001884:    7806        .x      LDRB     r6,[r0,#0]
        0x00001886:    1c76        v.      ADDS     r6,r6,#1
        0x00001888:    7006        .p      STRB     r6,[r0,#0]
        0x0000188a:    7806        .x      LDRB     r6,[r0,#0]
        0x0000188c:    2e01        ..      CMP      r6,#1
        0x0000188e:    d004        ..      BEQ      0x189a ; changePort3States + 58
        0x00001890:    e004        ..      B        0x189c ; changePort3States + 60
        0x00001892:    7001        .p      STRB     r1,[r0,#0]
        0x00001894:    e006        ..      B        0x18a4 ; changePort3States + 68
        0x00001896:    7002        .p      STRB     r2,[r0,#0]
        0x00001898:    e004        ..      B        0x18a4 ; changePort3States + 68
        0x0000189a:    7003        .p      STRB     r3,[r0,#0]
        0x0000189c:    7806        .x      LDRB     r6,[r0,#0]
        0x0000189e:    2e07        ..      CMP      r6,#7
        0x000018a0:    d100        ..      BNE      0x18a4 ; changePort3States + 68
        0x000018a2:    7004        .p      STRB     r4,[r0,#0]
        0x000018a4:    786e        nx      LDRB     r6,[r5,#1]
        0x000018a6:    06f6        ..      LSLS     r6,r6,#27
        0x000018a8:    0ef6        ..      LSRS     r6,r6,#27
        0x000018aa:    706e        np      STRB     r6,[r5,#1]
        0x000018ac:    786e        nx      LDRB     r6,[r5,#1]
        0x000018ae:    2e1f        ..      CMP      r6,#0x1f
        0x000018b0:    d009        ..      BEQ      0x18c6 ; changePort3States + 102
        0x000018b2:    786e        nx      LDRB     r6,[r5,#1]
        0x000018b4:    2e00        ..      CMP      r6,#0
        0x000018b6:    d008        ..      BEQ      0x18ca ; changePort3States + 106
        0x000018b8:    7846        Fx      LDRB     r6,[r0,#1]
        0x000018ba:    1c76        v.      ADDS     r6,r6,#1
        0x000018bc:    7046        Fp      STRB     r6,[r0,#1]
        0x000018be:    7846        Fx      LDRB     r6,[r0,#1]
        0x000018c0:    2e01        ..      CMP      r6,#1
        0x000018c2:    d004        ..      BEQ      0x18ce ; changePort3States + 110
        0x000018c4:    e004        ..      B        0x18d0 ; changePort3States + 112
        0x000018c6:    7041        Ap      STRB     r1,[r0,#1]
        0x000018c8:    e006        ..      B        0x18d8 ; changePort3States + 120
        0x000018ca:    7042        Bp      STRB     r2,[r0,#1]
        0x000018cc:    e004        ..      B        0x18d8 ; changePort3States + 120
        0x000018ce:    7043        Cp      STRB     r3,[r0,#1]
        0x000018d0:    7846        Fx      LDRB     r6,[r0,#1]
        0x000018d2:    2e07        ..      CMP      r6,#7
        0x000018d4:    d100        ..      BNE      0x18d8 ; changePort3States + 120
        0x000018d6:    7044        Dp      STRB     r4,[r0,#1]
        0x000018d8:    78ae        .x      LDRB     r6,[r5,#2]
        0x000018da:    06f6        ..      LSLS     r6,r6,#27
        0x000018dc:    0ef6        ..      LSRS     r6,r6,#27
        0x000018de:    70ae        .p      STRB     r6,[r5,#2]
        0x000018e0:    78ae        .x      LDRB     r6,[r5,#2]
        0x000018e2:    2e1f        ..      CMP      r6,#0x1f
        0x000018e4:    d009        ..      BEQ      0x18fa ; changePort3States + 154
        0x000018e6:    78ae        .x      LDRB     r6,[r5,#2]
        0x000018e8:    2e00        ..      CMP      r6,#0
        0x000018ea:    d008        ..      BEQ      0x18fe ; changePort3States + 158
        0x000018ec:    7886        .x      LDRB     r6,[r0,#2]
        0x000018ee:    1c76        v.      ADDS     r6,r6,#1
        0x000018f0:    7086        .p      STRB     r6,[r0,#2]
        0x000018f2:    7886        .x      LDRB     r6,[r0,#2]
        0x000018f4:    2e01        ..      CMP      r6,#1
        0x000018f6:    d004        ..      BEQ      0x1902 ; changePort3States + 162
        0x000018f8:    e004        ..      B        0x1904 ; changePort3States + 164
        0x000018fa:    7081        .p      STRB     r1,[r0,#2]
        0x000018fc:    e006        ..      B        0x190c ; changePort3States + 172
        0x000018fe:    7082        .p      STRB     r2,[r0,#2]
        0x00001900:    e004        ..      B        0x190c ; changePort3States + 172
        0x00001902:    7083        .p      STRB     r3,[r0,#2]
        0x00001904:    7886        .x      LDRB     r6,[r0,#2]
        0x00001906:    2e07        ..      CMP      r6,#7
        0x00001908:    d100        ..      BNE      0x190c ; changePort3States + 172
        0x0000190a:    7084        .p      STRB     r4,[r0,#2]
        0x0000190c:    78ee        .x      LDRB     r6,[r5,#3]
        0x0000190e:    06f6        ..      LSLS     r6,r6,#27
        0x00001910:    0ef6        ..      LSRS     r6,r6,#27
        0x00001912:    70ee        .p      STRB     r6,[r5,#3]
        0x00001914:    78ee        .x      LDRB     r6,[r5,#3]
        0x00001916:    2e1f        ..      CMP      r6,#0x1f
        0x00001918:    d009        ..      BEQ      0x192e ; changePort3States + 206
        0x0000191a:    78ee        .x      LDRB     r6,[r5,#3]
        0x0000191c:    2e00        ..      CMP      r6,#0
        0x0000191e:    d008        ..      BEQ      0x1932 ; changePort3States + 210
        0x00001920:    78c6        .x      LDRB     r6,[r0,#3]
        0x00001922:    1c76        v.      ADDS     r6,r6,#1
        0x00001924:    70c6        .p      STRB     r6,[r0,#3]
        0x00001926:    78c6        .x      LDRB     r6,[r0,#3]
        0x00001928:    2e01        ..      CMP      r6,#1
        0x0000192a:    d004        ..      BEQ      0x1936 ; changePort3States + 214
        0x0000192c:    e004        ..      B        0x1938 ; changePort3States + 216
        0x0000192e:    70c1        .p      STRB     r1,[r0,#3]
        0x00001930:    e006        ..      B        0x1940 ; changePort3States + 224
        0x00001932:    70c2        .p      STRB     r2,[r0,#3]
        0x00001934:    e004        ..      B        0x1940 ; changePort3States + 224
        0x00001936:    70c3        .p      STRB     r3,[r0,#3]
        0x00001938:    78c6        .x      LDRB     r6,[r0,#3]
        0x0000193a:    2e07        ..      CMP      r6,#7
        0x0000193c:    d100        ..      BNE      0x1940 ; changePort3States + 224
        0x0000193e:    70c4        .p      STRB     r4,[r0,#3]
        0x00001940:    792e        .y      LDRB     r6,[r5,#4]
        0x00001942:    06f6        ..      LSLS     r6,r6,#27
        0x00001944:    0ef6        ..      LSRS     r6,r6,#27
        0x00001946:    712e        .q      STRB     r6,[r5,#4]
        0x00001948:    792e        .y      LDRB     r6,[r5,#4]
        0x0000194a:    2e1f        ..      CMP      r6,#0x1f
        0x0000194c:    d009        ..      BEQ      0x1962 ; changePort3States + 258
        0x0000194e:    792e        .y      LDRB     r6,[r5,#4]
        0x00001950:    2e00        ..      CMP      r6,#0
        0x00001952:    d008        ..      BEQ      0x1966 ; changePort3States + 262
        0x00001954:    7906        .y      LDRB     r6,[r0,#4]
        0x00001956:    1c76        v.      ADDS     r6,r6,#1
        0x00001958:    7106        .q      STRB     r6,[r0,#4]
        0x0000195a:    7906        .y      LDRB     r6,[r0,#4]
        0x0000195c:    2e01        ..      CMP      r6,#1
        0x0000195e:    d004        ..      BEQ      0x196a ; changePort3States + 266
        0x00001960:    e004        ..      B        0x196c ; changePort3States + 268
        0x00001962:    7101        .q      STRB     r1,[r0,#4]
        0x00001964:    e006        ..      B        0x1974 ; changePort3States + 276
        0x00001966:    7102        .q      STRB     r2,[r0,#4]
        0x00001968:    e004        ..      B        0x1974 ; changePort3States + 276
        0x0000196a:    7103        .q      STRB     r3,[r0,#4]
        0x0000196c:    7906        .y      LDRB     r6,[r0,#4]
        0x0000196e:    2e07        ..      CMP      r6,#7
        0x00001970:    d100        ..      BNE      0x1974 ; changePort3States + 276
        0x00001972:    7104        .q      STRB     r4,[r0,#4]
        0x00001974:    796e        ny      LDRB     r6,[r5,#5]
        0x00001976:    06f6        ..      LSLS     r6,r6,#27
        0x00001978:    0ef6        ..      LSRS     r6,r6,#27
        0x0000197a:    716e        nq      STRB     r6,[r5,#5]
        0x0000197c:    796e        ny      LDRB     r6,[r5,#5]
        0x0000197e:    2e1f        ..      CMP      r6,#0x1f
        0x00001980:    d009        ..      BEQ      0x1996 ; changePort3States + 310
        0x00001982:    796e        ny      LDRB     r6,[r5,#5]
        0x00001984:    2e00        ..      CMP      r6,#0
        0x00001986:    d008        ..      BEQ      0x199a ; changePort3States + 314
        0x00001988:    7946        Fy      LDRB     r6,[r0,#5]
        0x0000198a:    1c76        v.      ADDS     r6,r6,#1
        0x0000198c:    7146        Fq      STRB     r6,[r0,#5]
        0x0000198e:    7946        Fy      LDRB     r6,[r0,#5]
        0x00001990:    2e01        ..      CMP      r6,#1
        0x00001992:    d004        ..      BEQ      0x199e ; changePort3States + 318
        0x00001994:    e004        ..      B        0x19a0 ; changePort3States + 320
        0x00001996:    7141        Aq      STRB     r1,[r0,#5]
        0x00001998:    e006        ..      B        0x19a8 ; changePort3States + 328
        0x0000199a:    7142        Bq      STRB     r2,[r0,#5]
        0x0000199c:    e004        ..      B        0x19a8 ; changePort3States + 328
        0x0000199e:    7143        Cq      STRB     r3,[r0,#5]
        0x000019a0:    7946        Fy      LDRB     r6,[r0,#5]
        0x000019a2:    2e07        ..      CMP      r6,#7
        0x000019a4:    d100        ..      BNE      0x19a8 ; changePort3States + 328
        0x000019a6:    7144        Dq      STRB     r4,[r0,#5]
        0x000019a8:    79ae        .y      LDRB     r6,[r5,#6]
        0x000019aa:    06f6        ..      LSLS     r6,r6,#27
        0x000019ac:    0ef6        ..      LSRS     r6,r6,#27
        0x000019ae:    71ae        .q      STRB     r6,[r5,#6]
        0x000019b0:    79ae        .y      LDRB     r6,[r5,#6]
        0x000019b2:    2e1f        ..      CMP      r6,#0x1f
        0x000019b4:    d009        ..      BEQ      0x19ca ; changePort3States + 362
        0x000019b6:    79ae        .y      LDRB     r6,[r5,#6]
        0x000019b8:    2e00        ..      CMP      r6,#0
        0x000019ba:    d008        ..      BEQ      0x19ce ; changePort3States + 366
        0x000019bc:    7986        .y      LDRB     r6,[r0,#6]
        0x000019be:    1c76        v.      ADDS     r6,r6,#1
        0x000019c0:    7186        .q      STRB     r6,[r0,#6]
        0x000019c2:    7986        .y      LDRB     r6,[r0,#6]
        0x000019c4:    2e01        ..      CMP      r6,#1
        0x000019c6:    d004        ..      BEQ      0x19d2 ; changePort3States + 370
        0x000019c8:    e004        ..      B        0x19d4 ; changePort3States + 372
        0x000019ca:    7181        .q      STRB     r1,[r0,#6]
        0x000019cc:    e006        ..      B        0x19dc ; changePort3States + 380
        0x000019ce:    7182        .q      STRB     r2,[r0,#6]
        0x000019d0:    e004        ..      B        0x19dc ; changePort3States + 380
        0x000019d2:    7183        .q      STRB     r3,[r0,#6]
        0x000019d4:    7986        .y      LDRB     r6,[r0,#6]
        0x000019d6:    2e07        ..      CMP      r6,#7
        0x000019d8:    d100        ..      BNE      0x19dc ; changePort3States + 380
        0x000019da:    7184        .q      STRB     r4,[r0,#6]
        0x000019dc:    79ee        .y      LDRB     r6,[r5,#7]
        0x000019de:    06f6        ..      LSLS     r6,r6,#27
        0x000019e0:    0ef6        ..      LSRS     r6,r6,#27
        0x000019e2:    71ee        .q      STRB     r6,[r5,#7]
        0x000019e4:    79ee        .y      LDRB     r6,[r5,#7]
        0x000019e6:    2e1f        ..      CMP      r6,#0x1f
        0x000019e8:    d009        ..      BEQ      0x19fe ; changePort3States + 414
        0x000019ea:    79e9        .y      LDRB     r1,[r5,#7]
        0x000019ec:    2900        .)      CMP      r1,#0
        0x000019ee:    d008        ..      BEQ      0x1a02 ; changePort3States + 418
        0x000019f0:    79c1        .y      LDRB     r1,[r0,#7]
        0x000019f2:    1c49        I.      ADDS     r1,r1,#1
        0x000019f4:    71c1        .q      STRB     r1,[r0,#7]
        0x000019f6:    79c1        .y      LDRB     r1,[r0,#7]
        0x000019f8:    2901        .)      CMP      r1,#1
        0x000019fa:    d004        ..      BEQ      0x1a06 ; changePort3States + 422
        0x000019fc:    e004        ..      B        0x1a08 ; changePort3States + 424
        0x000019fe:    71c1        .q      STRB     r1,[r0,#7]
        0x00001a00:    bd70        p.      POP      {r4-r6,pc}
        0x00001a02:    71c2        .q      STRB     r2,[r0,#7]
        0x00001a04:    bd70        p.      POP      {r4-r6,pc}
        0x00001a06:    71c3        .q      STRB     r3,[r0,#7]
        0x00001a08:    79c1        .y      LDRB     r1,[r0,#7]
        0x00001a0a:    2907        .)      CMP      r1,#7
        0x00001a0c:    d1fa        ..      BNE      0x1a04 ; changePort3States + 420
        0x00001a0e:    71c4        .q      STRB     r4,[r0,#7]
        0x00001a10:    bd70        p.      POP      {r4-r6,pc}
    $d
        0x00001a12:    0000        ..      DCW    0
        0x00001a14:    2000003c    <..     DCD    536870972
    $t
    i.changePort4
    changePort4
        0x00001a18:    b510        ..      PUSH     {r4,lr}
        0x00001a1a:    4b45        EK      LDR      r3,[pc,#276] ; [0x1b30] = 0x20000064
        0x00001a1c:    781c        .x      LDRB     r4,[r3,#0]
        0x00001a1e:    2101        .!      MOVS     r1,#1
        0x00001a20:    2200        ."      MOVS     r2,#0
        0x00001a22:    4844        DH      LDR      r0,[pc,#272] ; [0x1b34] = 0x40004800
        0x00001a24:    2c01        .,      CMP      r4,#1
        0x00001a26:    d006        ..      BEQ      0x1a36 ; changePort4 + 30
        0x00001a28:    781c        .x      LDRB     r4,[r3,#0]
        0x00001a2a:    2c00        .,      CMP      r4,#0
        0x00001a2c:    d005        ..      BEQ      0x1a3a ; changePort4 + 34
        0x00001a2e:    781c        .x      LDRB     r4,[r3,#0]
        0x00001a30:    2c06        .,      CMP      r4,#6
        0x00001a32:    d004        ..      BEQ      0x1a3e ; changePort4 + 38
        0x00001a34:    e006        ..      B        0x1a44 ; changePort4 + 44
        0x00001a36:    61c1        .a      STR      r1,[r0,#0x1c]
        0x00001a38:    e004        ..      B        0x1a44 ; changePort4 + 44
        0x00001a3a:    61c2        .a      STR      r2,[r0,#0x1c]
        0x00001a3c:    e002        ..      B        0x1a44 ; changePort4 + 44
        0x00001a3e:    69c4        .i      LDR      r4,[r0,#0x1c]
        0x00001a40:    43e4        .C      MVNS     r4,r4
        0x00001a42:    61c4        .a      STR      r4,[r0,#0x1c]
        0x00001a44:    785c        \x      LDRB     r4,[r3,#1]
        0x00001a46:    2c01        .,      CMP      r4,#1
        0x00001a48:    d006        ..      BEQ      0x1a58 ; changePort4 + 64
        0x00001a4a:    785c        \x      LDRB     r4,[r3,#1]
        0x00001a4c:    2c00        .,      CMP      r4,#0
        0x00001a4e:    d005        ..      BEQ      0x1a5c ; changePort4 + 68
        0x00001a50:    785c        \x      LDRB     r4,[r3,#1]
        0x00001a52:    2c06        .,      CMP      r4,#6
        0x00001a54:    d004        ..      BEQ      0x1a60 ; changePort4 + 72
        0x00001a56:    e006        ..      B        0x1a66 ; changePort4 + 78
        0x00001a58:    6181        .a      STR      r1,[r0,#0x18]
        0x00001a5a:    e004        ..      B        0x1a66 ; changePort4 + 78
        0x00001a5c:    6182        .a      STR      r2,[r0,#0x18]
        0x00001a5e:    e002        ..      B        0x1a66 ; changePort4 + 78
        0x00001a60:    6984        .i      LDR      r4,[r0,#0x18]
        0x00001a62:    43e4        .C      MVNS     r4,r4
        0x00001a64:    6184        .a      STR      r4,[r0,#0x18]
        0x00001a66:    789c        .x      LDRB     r4,[r3,#2]
        0x00001a68:    2c01        .,      CMP      r4,#1
        0x00001a6a:    d006        ..      BEQ      0x1a7a ; changePort4 + 98
        0x00001a6c:    789c        .x      LDRB     r4,[r3,#2]
        0x00001a6e:    2c00        .,      CMP      r4,#0
        0x00001a70:    d005        ..      BEQ      0x1a7e ; changePort4 + 102
        0x00001a72:    789c        .x      LDRB     r4,[r3,#2]
        0x00001a74:    2c06        .,      CMP      r4,#6
        0x00001a76:    d004        ..      BEQ      0x1a82 ; changePort4 + 106
        0x00001a78:    e006        ..      B        0x1a88 ; changePort4 + 112
        0x00001a7a:    6141        Aa      STR      r1,[r0,#0x14]
        0x00001a7c:    e004        ..      B        0x1a88 ; changePort4 + 112
        0x00001a7e:    6142        Ba      STR      r2,[r0,#0x14]
        0x00001a80:    e002        ..      B        0x1a88 ; changePort4 + 112
        0x00001a82:    6944        Di      LDR      r4,[r0,#0x14]
        0x00001a84:    43e4        .C      MVNS     r4,r4
        0x00001a86:    6144        Da      STR      r4,[r0,#0x14]
        0x00001a88:    78dc        .x      LDRB     r4,[r3,#3]
        0x00001a8a:    2c01        .,      CMP      r4,#1
        0x00001a8c:    d006        ..      BEQ      0x1a9c ; changePort4 + 132
        0x00001a8e:    78dc        .x      LDRB     r4,[r3,#3]
        0x00001a90:    2c00        .,      CMP      r4,#0
        0x00001a92:    d005        ..      BEQ      0x1aa0 ; changePort4 + 136
        0x00001a94:    78dc        .x      LDRB     r4,[r3,#3]
        0x00001a96:    2c06        .,      CMP      r4,#6
        0x00001a98:    d004        ..      BEQ      0x1aa4 ; changePort4 + 140
        0x00001a9a:    e006        ..      B        0x1aaa ; changePort4 + 146
        0x00001a9c:    6101        .a      STR      r1,[r0,#0x10]
        0x00001a9e:    e004        ..      B        0x1aaa ; changePort4 + 146
        0x00001aa0:    6102        .a      STR      r2,[r0,#0x10]
        0x00001aa2:    e002        ..      B        0x1aaa ; changePort4 + 146
        0x00001aa4:    6904        .i      LDR      r4,[r0,#0x10]
        0x00001aa6:    43e4        .C      MVNS     r4,r4
        0x00001aa8:    6104        .a      STR      r4,[r0,#0x10]
        0x00001aaa:    791c        .y      LDRB     r4,[r3,#4]
        0x00001aac:    2c01        .,      CMP      r4,#1
        0x00001aae:    d006        ..      BEQ      0x1abe ; changePort4 + 166
        0x00001ab0:    791c        .y      LDRB     r4,[r3,#4]
        0x00001ab2:    2c00        .,      CMP      r4,#0
        0x00001ab4:    d005        ..      BEQ      0x1ac2 ; changePort4 + 170
        0x00001ab6:    791c        .y      LDRB     r4,[r3,#4]
        0x00001ab8:    2c06        .,      CMP      r4,#6
        0x00001aba:    d004        ..      BEQ      0x1ac6 ; changePort4 + 174
        0x00001abc:    e006        ..      B        0x1acc ; changePort4 + 180
        0x00001abe:    60c1        .`      STR      r1,[r0,#0xc]
        0x00001ac0:    e004        ..      B        0x1acc ; changePort4 + 180
        0x00001ac2:    60c2        .`      STR      r2,[r0,#0xc]
        0x00001ac4:    e002        ..      B        0x1acc ; changePort4 + 180
        0x00001ac6:    68c4        .h      LDR      r4,[r0,#0xc]
        0x00001ac8:    43e4        .C      MVNS     r4,r4
        0x00001aca:    60c4        .`      STR      r4,[r0,#0xc]
        0x00001acc:    795c        \y      LDRB     r4,[r3,#5]
        0x00001ace:    2c01        .,      CMP      r4,#1
        0x00001ad0:    d006        ..      BEQ      0x1ae0 ; changePort4 + 200
        0x00001ad2:    795c        \y      LDRB     r4,[r3,#5]
        0x00001ad4:    2c00        .,      CMP      r4,#0
        0x00001ad6:    d005        ..      BEQ      0x1ae4 ; changePort4 + 204
        0x00001ad8:    795c        \y      LDRB     r4,[r3,#5]
        0x00001ada:    2c06        .,      CMP      r4,#6
        0x00001adc:    d004        ..      BEQ      0x1ae8 ; changePort4 + 208
        0x00001ade:    e006        ..      B        0x1aee ; changePort4 + 214
        0x00001ae0:    6081        .`      STR      r1,[r0,#8]
        0x00001ae2:    e004        ..      B        0x1aee ; changePort4 + 214
        0x00001ae4:    6082        .`      STR      r2,[r0,#8]
        0x00001ae6:    e002        ..      B        0x1aee ; changePort4 + 214
        0x00001ae8:    6884        .h      LDR      r4,[r0,#8]
        0x00001aea:    43e4        .C      MVNS     r4,r4
        0x00001aec:    6084        .`      STR      r4,[r0,#8]
        0x00001aee:    799c        .y      LDRB     r4,[r3,#6]
        0x00001af0:    2c01        .,      CMP      r4,#1
        0x00001af2:    d006        ..      BEQ      0x1b02 ; changePort4 + 234
        0x00001af4:    799c        .y      LDRB     r4,[r3,#6]
        0x00001af6:    2c00        .,      CMP      r4,#0
        0x00001af8:    d005        ..      BEQ      0x1b06 ; changePort4 + 238
        0x00001afa:    799c        .y      LDRB     r4,[r3,#6]
        0x00001afc:    2c06        .,      CMP      r4,#6
        0x00001afe:    d004        ..      BEQ      0x1b0a ; changePort4 + 242
        0x00001b00:    e006        ..      B        0x1b10 ; changePort4 + 248
        0x00001b02:    6041        A`      STR      r1,[r0,#4]
        0x00001b04:    e004        ..      B        0x1b10 ; changePort4 + 248
        0x00001b06:    6042        B`      STR      r2,[r0,#4]
        0x00001b08:    e002        ..      B        0x1b10 ; changePort4 + 248
        0x00001b0a:    6844        Dh      LDR      r4,[r0,#4]
        0x00001b0c:    43e4        .C      MVNS     r4,r4
        0x00001b0e:    6044        D`      STR      r4,[r0,#4]
        0x00001b10:    79dc        .y      LDRB     r4,[r3,#7]
        0x00001b12:    2c01        .,      CMP      r4,#1
        0x00001b14:    d007        ..      BEQ      0x1b26 ; changePort4 + 270
        0x00001b16:    79d9        .y      LDRB     r1,[r3,#7]
        0x00001b18:    2900        .)      CMP      r1,#0
        0x00001b1a:    d006        ..      BEQ      0x1b2a ; changePort4 + 274
        0x00001b1c:    79d9        .y      LDRB     r1,[r3,#7]
        0x00001b1e:    2906        .)      CMP      r1,#6
        0x00001b20:    d102        ..      BNE      0x1b28 ; changePort4 + 272
        0x00001b22:    6801        .h      LDR      r1,[r0,#0]
        0x00001b24:    43c9        .C      MVNS     r1,r1
        0x00001b26:    6001        .`      STR      r1,[r0,#0]
        0x00001b28:    bd10        ..      POP      {r4,pc}
        0x00001b2a:    6002        .`      STR      r2,[r0,#0]
        0x00001b2c:    bd10        ..      POP      {r4,pc}
    $d
        0x00001b2e:    0000        ..      DCW    0
        0x00001b30:    20000064    d..     DCD    536871012
        0x00001b34:    40004800    .H.@    DCD    1073760256
    $t
    i.changePort4States
    changePort4States
        0x00001b38:    b570        p.      PUSH     {r4-r6,lr}
        0x00001b3a:    4d6c        lM      LDR      r5,[pc,#432] ; [0x1cec] = 0x20000044
        0x00001b3c:    7828        (x      LDRB     r0,[r5,#0]
        0x00001b3e:    06c0        ..      LSLS     r0,r0,#27
        0x00001b40:    0ec0        ..      LSRS     r0,r0,#27
        0x00001b42:    7028        (p      STRB     r0,[r5,#0]
        0x00001b44:    782e        .x      LDRB     r6,[r5,#0]
        0x00001b46:    4628        (F      MOV      r0,r5
        0x00001b48:    2101        .!      MOVS     r1,#1
        0x00001b4a:    2200        ."      MOVS     r2,#0
        0x00001b4c:    2302        .#      MOVS     r3,#2
        0x00001b4e:    2406        .$      MOVS     r4,#6
        0x00001b50:    3020         0      ADDS     r0,r0,#0x20
        0x00001b52:    2e1f        ..      CMP      r6,#0x1f
        0x00001b54:    d009        ..      BEQ      0x1b6a ; changePort4States + 50
        0x00001b56:    782e        .x      LDRB     r6,[r5,#0]
        0x00001b58:    2e00        ..      CMP      r6,#0
        0x00001b5a:    d008        ..      BEQ      0x1b6e ; changePort4States + 54
        0x00001b5c:    7806        .x      LDRB     r6,[r0,#0]
        0x00001b5e:    1c76        v.      ADDS     r6,r6,#1
        0x00001b60:    7006        .p      STRB     r6,[r0,#0]
        0x00001b62:    7806        .x      LDRB     r6,[r0,#0]
        0x00001b64:    2e01        ..      CMP      r6,#1
        0x00001b66:    d004        ..      BEQ      0x1b72 ; changePort4States + 58
        0x00001b68:    e004        ..      B        0x1b74 ; changePort4States + 60
        0x00001b6a:    7001        .p      STRB     r1,[r0,#0]
        0x00001b6c:    e006        ..      B        0x1b7c ; changePort4States + 68
        0x00001b6e:    7002        .p      STRB     r2,[r0,#0]
        0x00001b70:    e004        ..      B        0x1b7c ; changePort4States + 68
        0x00001b72:    7003        .p      STRB     r3,[r0,#0]
        0x00001b74:    7806        .x      LDRB     r6,[r0,#0]
        0x00001b76:    2e07        ..      CMP      r6,#7
        0x00001b78:    d100        ..      BNE      0x1b7c ; changePort4States + 68
        0x00001b7a:    7004        .p      STRB     r4,[r0,#0]
        0x00001b7c:    786e        nx      LDRB     r6,[r5,#1]
        0x00001b7e:    06f6        ..      LSLS     r6,r6,#27
        0x00001b80:    0ef6        ..      LSRS     r6,r6,#27
        0x00001b82:    706e        np      STRB     r6,[r5,#1]
        0x00001b84:    786e        nx      LDRB     r6,[r5,#1]
        0x00001b86:    2e1f        ..      CMP      r6,#0x1f
        0x00001b88:    d009        ..      BEQ      0x1b9e ; changePort4States + 102
        0x00001b8a:    786e        nx      LDRB     r6,[r5,#1]
        0x00001b8c:    2e00        ..      CMP      r6,#0
        0x00001b8e:    d008        ..      BEQ      0x1ba2 ; changePort4States + 106
        0x00001b90:    7846        Fx      LDRB     r6,[r0,#1]
        0x00001b92:    1c76        v.      ADDS     r6,r6,#1
        0x00001b94:    7046        Fp      STRB     r6,[r0,#1]
        0x00001b96:    7846        Fx      LDRB     r6,[r0,#1]
        0x00001b98:    2e01        ..      CMP      r6,#1
        0x00001b9a:    d004        ..      BEQ      0x1ba6 ; changePort4States + 110
        0x00001b9c:    e004        ..      B        0x1ba8 ; changePort4States + 112
        0x00001b9e:    7041        Ap      STRB     r1,[r0,#1]
        0x00001ba0:    e006        ..      B        0x1bb0 ; changePort4States + 120
        0x00001ba2:    7042        Bp      STRB     r2,[r0,#1]
        0x00001ba4:    e004        ..      B        0x1bb0 ; changePort4States + 120
        0x00001ba6:    7043        Cp      STRB     r3,[r0,#1]
        0x00001ba8:    7846        Fx      LDRB     r6,[r0,#1]
        0x00001baa:    2e07        ..      CMP      r6,#7
        0x00001bac:    d100        ..      BNE      0x1bb0 ; changePort4States + 120
        0x00001bae:    7044        Dp      STRB     r4,[r0,#1]
        0x00001bb0:    78ae        .x      LDRB     r6,[r5,#2]
        0x00001bb2:    06f6        ..      LSLS     r6,r6,#27
        0x00001bb4:    0ef6        ..      LSRS     r6,r6,#27
        0x00001bb6:    70ae        .p      STRB     r6,[r5,#2]
        0x00001bb8:    78ae        .x      LDRB     r6,[r5,#2]
        0x00001bba:    2e1f        ..      CMP      r6,#0x1f
        0x00001bbc:    d009        ..      BEQ      0x1bd2 ; changePort4States + 154
        0x00001bbe:    78ae        .x      LDRB     r6,[r5,#2]
        0x00001bc0:    2e00        ..      CMP      r6,#0
        0x00001bc2:    d008        ..      BEQ      0x1bd6 ; changePort4States + 158
        0x00001bc4:    7886        .x      LDRB     r6,[r0,#2]
        0x00001bc6:    1c76        v.      ADDS     r6,r6,#1
        0x00001bc8:    7086        .p      STRB     r6,[r0,#2]
        0x00001bca:    7886        .x      LDRB     r6,[r0,#2]
        0x00001bcc:    2e01        ..      CMP      r6,#1
        0x00001bce:    d004        ..      BEQ      0x1bda ; changePort4States + 162
        0x00001bd0:    e004        ..      B        0x1bdc ; changePort4States + 164
        0x00001bd2:    7081        .p      STRB     r1,[r0,#2]
        0x00001bd4:    e006        ..      B        0x1be4 ; changePort4States + 172
        0x00001bd6:    7082        .p      STRB     r2,[r0,#2]
        0x00001bd8:    e004        ..      B        0x1be4 ; changePort4States + 172
        0x00001bda:    7083        .p      STRB     r3,[r0,#2]
        0x00001bdc:    7886        .x      LDRB     r6,[r0,#2]
        0x00001bde:    2e07        ..      CMP      r6,#7
        0x00001be0:    d100        ..      BNE      0x1be4 ; changePort4States + 172
        0x00001be2:    7084        .p      STRB     r4,[r0,#2]
        0x00001be4:    78ee        .x      LDRB     r6,[r5,#3]
        0x00001be6:    06f6        ..      LSLS     r6,r6,#27
        0x00001be8:    0ef6        ..      LSRS     r6,r6,#27
        0x00001bea:    70ee        .p      STRB     r6,[r5,#3]
        0x00001bec:    78ee        .x      LDRB     r6,[r5,#3]
        0x00001bee:    2e1f        ..      CMP      r6,#0x1f
        0x00001bf0:    d009        ..      BEQ      0x1c06 ; changePort4States + 206
        0x00001bf2:    78ee        .x      LDRB     r6,[r5,#3]
        0x00001bf4:    2e00        ..      CMP      r6,#0
        0x00001bf6:    d008        ..      BEQ      0x1c0a ; changePort4States + 210
        0x00001bf8:    78c6        .x      LDRB     r6,[r0,#3]
        0x00001bfa:    1c76        v.      ADDS     r6,r6,#1
        0x00001bfc:    70c6        .p      STRB     r6,[r0,#3]
        0x00001bfe:    78c6        .x      LDRB     r6,[r0,#3]
        0x00001c00:    2e01        ..      CMP      r6,#1
        0x00001c02:    d004        ..      BEQ      0x1c0e ; changePort4States + 214
        0x00001c04:    e004        ..      B        0x1c10 ; changePort4States + 216
        0x00001c06:    70c1        .p      STRB     r1,[r0,#3]
        0x00001c08:    e006        ..      B        0x1c18 ; changePort4States + 224
        0x00001c0a:    70c2        .p      STRB     r2,[r0,#3]
        0x00001c0c:    e004        ..      B        0x1c18 ; changePort4States + 224
        0x00001c0e:    70c3        .p      STRB     r3,[r0,#3]
        0x00001c10:    78c6        .x      LDRB     r6,[r0,#3]
        0x00001c12:    2e07        ..      CMP      r6,#7
        0x00001c14:    d100        ..      BNE      0x1c18 ; changePort4States + 224
        0x00001c16:    70c4        .p      STRB     r4,[r0,#3]
        0x00001c18:    792e        .y      LDRB     r6,[r5,#4]
        0x00001c1a:    06f6        ..      LSLS     r6,r6,#27
        0x00001c1c:    0ef6        ..      LSRS     r6,r6,#27
        0x00001c1e:    712e        .q      STRB     r6,[r5,#4]
        0x00001c20:    792e        .y      LDRB     r6,[r5,#4]
        0x00001c22:    2e1f        ..      CMP      r6,#0x1f
        0x00001c24:    d009        ..      BEQ      0x1c3a ; changePort4States + 258
        0x00001c26:    792e        .y      LDRB     r6,[r5,#4]
        0x00001c28:    2e00        ..      CMP      r6,#0
        0x00001c2a:    d008        ..      BEQ      0x1c3e ; changePort4States + 262
        0x00001c2c:    7906        .y      LDRB     r6,[r0,#4]
        0x00001c2e:    1c76        v.      ADDS     r6,r6,#1
        0x00001c30:    7106        .q      STRB     r6,[r0,#4]
        0x00001c32:    7906        .y      LDRB     r6,[r0,#4]
        0x00001c34:    2e01        ..      CMP      r6,#1
        0x00001c36:    d004        ..      BEQ      0x1c42 ; changePort4States + 266
        0x00001c38:    e004        ..      B        0x1c44 ; changePort4States + 268
        0x00001c3a:    7101        .q      STRB     r1,[r0,#4]
        0x00001c3c:    e006        ..      B        0x1c4c ; changePort4States + 276
        0x00001c3e:    7102        .q      STRB     r2,[r0,#4]
        0x00001c40:    e004        ..      B        0x1c4c ; changePort4States + 276
        0x00001c42:    7103        .q      STRB     r3,[r0,#4]
        0x00001c44:    7906        .y      LDRB     r6,[r0,#4]
        0x00001c46:    2e07        ..      CMP      r6,#7
        0x00001c48:    d100        ..      BNE      0x1c4c ; changePort4States + 276
        0x00001c4a:    7104        .q      STRB     r4,[r0,#4]
        0x00001c4c:    796e        ny      LDRB     r6,[r5,#5]
        0x00001c4e:    06f6        ..      LSLS     r6,r6,#27
        0x00001c50:    0ef6        ..      LSRS     r6,r6,#27
        0x00001c52:    716e        nq      STRB     r6,[r5,#5]
        0x00001c54:    796e        ny      LDRB     r6,[r5,#5]
        0x00001c56:    2e1f        ..      CMP      r6,#0x1f
        0x00001c58:    d009        ..      BEQ      0x1c6e ; changePort4States + 310
        0x00001c5a:    796e        ny      LDRB     r6,[r5,#5]
        0x00001c5c:    2e00        ..      CMP      r6,#0
        0x00001c5e:    d008        ..      BEQ      0x1c72 ; changePort4States + 314
        0x00001c60:    7946        Fy      LDRB     r6,[r0,#5]
        0x00001c62:    1c76        v.      ADDS     r6,r6,#1
        0x00001c64:    7146        Fq      STRB     r6,[r0,#5]
        0x00001c66:    7946        Fy      LDRB     r6,[r0,#5]
        0x00001c68:    2e01        ..      CMP      r6,#1
        0x00001c6a:    d004        ..      BEQ      0x1c76 ; changePort4States + 318
        0x00001c6c:    e004        ..      B        0x1c78 ; changePort4States + 320
        0x00001c6e:    7141        Aq      STRB     r1,[r0,#5]
        0x00001c70:    e006        ..      B        0x1c80 ; changePort4States + 328
        0x00001c72:    7142        Bq      STRB     r2,[r0,#5]
        0x00001c74:    e004        ..      B        0x1c80 ; changePort4States + 328
        0x00001c76:    7143        Cq      STRB     r3,[r0,#5]
        0x00001c78:    7946        Fy      LDRB     r6,[r0,#5]
        0x00001c7a:    2e07        ..      CMP      r6,#7
        0x00001c7c:    d100        ..      BNE      0x1c80 ; changePort4States + 328
        0x00001c7e:    7144        Dq      STRB     r4,[r0,#5]
        0x00001c80:    79ae        .y      LDRB     r6,[r5,#6]
        0x00001c82:    06f6        ..      LSLS     r6,r6,#27
        0x00001c84:    0ef6        ..      LSRS     r6,r6,#27
        0x00001c86:    71ae        .q      STRB     r6,[r5,#6]
        0x00001c88:    79ae        .y      LDRB     r6,[r5,#6]
        0x00001c8a:    2e1f        ..      CMP      r6,#0x1f
        0x00001c8c:    d009        ..      BEQ      0x1ca2 ; changePort4States + 362
        0x00001c8e:    79ae        .y      LDRB     r6,[r5,#6]
        0x00001c90:    2e00        ..      CMP      r6,#0
        0x00001c92:    d008        ..      BEQ      0x1ca6 ; changePort4States + 366
        0x00001c94:    7986        .y      LDRB     r6,[r0,#6]
        0x00001c96:    1c76        v.      ADDS     r6,r6,#1
        0x00001c98:    7186        .q      STRB     r6,[r0,#6]
        0x00001c9a:    7986        .y      LDRB     r6,[r0,#6]
        0x00001c9c:    2e01        ..      CMP      r6,#1
        0x00001c9e:    d004        ..      BEQ      0x1caa ; changePort4States + 370
        0x00001ca0:    e004        ..      B        0x1cac ; changePort4States + 372
        0x00001ca2:    7181        .q      STRB     r1,[r0,#6]
        0x00001ca4:    e006        ..      B        0x1cb4 ; changePort4States + 380
        0x00001ca6:    7182        .q      STRB     r2,[r0,#6]
        0x00001ca8:    e004        ..      B        0x1cb4 ; changePort4States + 380
        0x00001caa:    7183        .q      STRB     r3,[r0,#6]
        0x00001cac:    7986        .y      LDRB     r6,[r0,#6]
        0x00001cae:    2e07        ..      CMP      r6,#7
        0x00001cb0:    d100        ..      BNE      0x1cb4 ; changePort4States + 380
        0x00001cb2:    7184        .q      STRB     r4,[r0,#6]
        0x00001cb4:    79ee        .y      LDRB     r6,[r5,#7]
        0x00001cb6:    06f6        ..      LSLS     r6,r6,#27
        0x00001cb8:    0ef6        ..      LSRS     r6,r6,#27
        0x00001cba:    71ee        .q      STRB     r6,[r5,#7]
        0x00001cbc:    79ee        .y      LDRB     r6,[r5,#7]
        0x00001cbe:    2e1f        ..      CMP      r6,#0x1f
        0x00001cc0:    d009        ..      BEQ      0x1cd6 ; changePort4States + 414
        0x00001cc2:    79e9        .y      LDRB     r1,[r5,#7]
        0x00001cc4:    2900        .)      CMP      r1,#0
        0x00001cc6:    d008        ..      BEQ      0x1cda ; changePort4States + 418
        0x00001cc8:    79c1        .y      LDRB     r1,[r0,#7]
        0x00001cca:    1c49        I.      ADDS     r1,r1,#1
        0x00001ccc:    71c1        .q      STRB     r1,[r0,#7]
        0x00001cce:    79c1        .y      LDRB     r1,[r0,#7]
        0x00001cd0:    2901        .)      CMP      r1,#1
        0x00001cd2:    d004        ..      BEQ      0x1cde ; changePort4States + 422
        0x00001cd4:    e004        ..      B        0x1ce0 ; changePort4States + 424
        0x00001cd6:    71c1        .q      STRB     r1,[r0,#7]
        0x00001cd8:    bd70        p.      POP      {r4-r6,pc}
        0x00001cda:    71c2        .q      STRB     r2,[r0,#7]
        0x00001cdc:    bd70        p.      POP      {r4-r6,pc}
        0x00001cde:    71c3        .q      STRB     r3,[r0,#7]
        0x00001ce0:    79c1        .y      LDRB     r1,[r0,#7]
        0x00001ce2:    2907        .)      CMP      r1,#7
        0x00001ce4:    d1fa        ..      BNE      0x1cdc ; changePort4States + 420
        0x00001ce6:    71c4        .q      STRB     r4,[r0,#7]
        0x00001ce8:    bd70        p.      POP      {r4-r6,pc}
    $d
        0x00001cea:    0000        ..      DCW    0
        0x00001cec:    20000044    D..     DCD    536870980
    $t
    i.fputc
    fputc
        0x00001cf0:    b510        ..      PUSH     {r4,lr}
        0x00001cf2:    4604        .F      MOV      r4,r0
        0x00001cf4:    f7fefd08    ....    BL       SendChar ; 0x708
        0x00001cf8:    4620         F      MOV      r0,r4
        0x00001cfa:    bd10        ..      POP      {r4,pc}
    i.main
    main
        0x00001cfc:    f7fefd7a    ..z.    BL       System_Init ; 0x7f4
        0x00001d00:    4805        .H      LDR      r0,[pc,#20] ; [0x1d18] = 0x40050000
        0x00001d02:    6801        .h      LDR      r1,[r0,#0]
        0x00001d04:    0382        ..      LSLS     r2,r0,#14
        0x00001d06:    4311        .C      ORRS     r1,r1,r2
        0x00001d08:    6001        .`      STR      r1,[r0,#0]
        0x00001d0a:    4904        .I      LDR      r1,[pc,#16] ; [0x1d1c] = 0x40004880
        0x00001d0c:    2001        .       MOVS     r0,#1
        0x00001d0e:    60c8        .`      STR      r0,[r1,#0xc]
        0x00001d10:    f7fefbfe    ....    BL       GetBoardID ; 0x510
        0x00001d14:    e7fe        ..      B        0x1d14 ; main + 24
    $d
        0x00001d16:    0000        ..      DCW    0
        0x00001d18:    40050000    ...@    DCD    1074069504
        0x00001d1c:    40004880    .H.@    DCD    1073760384
    $t
    i.setPort_1
    setPort_1
        0x00001d20:    b518        ..      PUSH     {r3,r4,lr}
        0x00001d22:    07c1        ..      LSLS     r1,r0,#31
        0x00001d24:    0fc9        ..      LSRS     r1,r1,#31
        0x00001d26:    466b        kF      MOV      r3,sp
        0x00001d28:    7019        .p      STRB     r1,[r3,#0]
        0x00001d2a:    4a30        0J      LDR      r2,[pc,#192] ; [0x1dec] = 0x2000002c
        0x00001d2c:    7811        .x      LDRB     r1,[r2,#0]
        0x00001d2e:    0049        I.      LSLS     r1,r1,#1
        0x00001d30:    7011        .p      STRB     r1,[r2,#0]
        0x00001d32:    781b        .x      LDRB     r3,[r3,#0]
        0x00001d34:    2101        .!      MOVS     r1,#1
        0x00001d36:    2b00        .+      CMP      r3,#0
        0x00001d38:    d002        ..      BEQ      0x1d40 ; setPort_1 + 32
        0x00001d3a:    7813        .x      LDRB     r3,[r2,#0]
        0x00001d3c:    430b        .C      ORRS     r3,r3,r1
        0x00001d3e:    7013        .p      STRB     r3,[r2,#0]
        0x00001d40:    2302        .#      MOVS     r3,#2
        0x00001d42:    4003        .@      ANDS     r3,r3,r0
        0x00001d44:    466c        lF      MOV      r4,sp
        0x00001d46:    7023        #p      STRB     r3,[r4,#0]
        0x00001d48:    7853        Sx      LDRB     r3,[r2,#1]
        0x00001d4a:    005b        [.      LSLS     r3,r3,#1
        0x00001d4c:    7053        Sp      STRB     r3,[r2,#1]
        0x00001d4e:    7823        #x      LDRB     r3,[r4,#0]
        0x00001d50:    2b00        .+      CMP      r3,#0
        0x00001d52:    d002        ..      BEQ      0x1d5a ; setPort_1 + 58
        0x00001d54:    7853        Sx      LDRB     r3,[r2,#1]
        0x00001d56:    430b        .C      ORRS     r3,r3,r1
        0x00001d58:    7053        Sp      STRB     r3,[r2,#1]
        0x00001d5a:    2304        .#      MOVS     r3,#4
        0x00001d5c:    4003        .@      ANDS     r3,r3,r0
        0x00001d5e:    7023        #p      STRB     r3,[r4,#0]
        0x00001d60:    7893        .x      LDRB     r3,[r2,#2]
        0x00001d62:    005b        [.      LSLS     r3,r3,#1
        0x00001d64:    7093        .p      STRB     r3,[r2,#2]
        0x00001d66:    7823        #x      LDRB     r3,[r4,#0]
        0x00001d68:    2b00        .+      CMP      r3,#0
        0x00001d6a:    d002        ..      BEQ      0x1d72 ; setPort_1 + 82
        0x00001d6c:    7893        .x      LDRB     r3,[r2,#2]
        0x00001d6e:    430b        .C      ORRS     r3,r3,r1
        0x00001d70:    7093        .p      STRB     r3,[r2,#2]
        0x00001d72:    2308        .#      MOVS     r3,#8
        0x00001d74:    4003        .@      ANDS     r3,r3,r0
        0x00001d76:    7023        #p      STRB     r3,[r4,#0]
        0x00001d78:    78d3        .x      LDRB     r3,[r2,#3]
        0x00001d7a:    005b        [.      LSLS     r3,r3,#1
        0x00001d7c:    70d3        .p      STRB     r3,[r2,#3]
        0x00001d7e:    7823        #x      LDRB     r3,[r4,#0]
        0x00001d80:    2b00        .+      CMP      r3,#0
        0x00001d82:    d002        ..      BEQ      0x1d8a ; setPort_1 + 106
        0x00001d84:    78d3        .x      LDRB     r3,[r2,#3]
        0x00001d86:    430b        .C      ORRS     r3,r3,r1
        0x00001d88:    70d3        .p      STRB     r3,[r2,#3]
        0x00001d8a:    2310        .#      MOVS     r3,#0x10
        0x00001d8c:    4003        .@      ANDS     r3,r3,r0
        0x00001d8e:    7023        #p      STRB     r3,[r4,#0]
        0x00001d90:    7913        .y      LDRB     r3,[r2,#4]
        0x00001d92:    005b        [.      LSLS     r3,r3,#1
        0x00001d94:    7113        .q      STRB     r3,[r2,#4]
        0x00001d96:    7823        #x      LDRB     r3,[r4,#0]
        0x00001d98:    2b00        .+      CMP      r3,#0
        0x00001d9a:    d002        ..      BEQ      0x1da2 ; setPort_1 + 130
        0x00001d9c:    7913        .y      LDRB     r3,[r2,#4]
        0x00001d9e:    430b        .C      ORRS     r3,r3,r1
        0x00001da0:    7113        .q      STRB     r3,[r2,#4]
        0x00001da2:    2320         #      MOVS     r3,#0x20
        0x00001da4:    4003        .@      ANDS     r3,r3,r0
        0x00001da6:    7023        #p      STRB     r3,[r4,#0]
        0x00001da8:    7953        Sy      LDRB     r3,[r2,#5]
        0x00001daa:    005b        [.      LSLS     r3,r3,#1
        0x00001dac:    7153        Sq      STRB     r3,[r2,#5]
        0x00001dae:    7823        #x      LDRB     r3,[r4,#0]
        0x00001db0:    2b00        .+      CMP      r3,#0
        0x00001db2:    d002        ..      BEQ      0x1dba ; setPort_1 + 154
        0x00001db4:    7953        Sy      LDRB     r3,[r2,#5]
        0x00001db6:    430b        .C      ORRS     r3,r3,r1
        0x00001db8:    7153        Sq      STRB     r3,[r2,#5]
        0x00001dba:    2340        @#      MOVS     r3,#0x40
        0x00001dbc:    4003        .@      ANDS     r3,r3,r0
        0x00001dbe:    7023        #p      STRB     r3,[r4,#0]
        0x00001dc0:    7993        .y      LDRB     r3,[r2,#6]
        0x00001dc2:    005b        [.      LSLS     r3,r3,#1
        0x00001dc4:    7193        .q      STRB     r3,[r2,#6]
        0x00001dc6:    7823        #x      LDRB     r3,[r4,#0]
        0x00001dc8:    2b00        .+      CMP      r3,#0
        0x00001dca:    d002        ..      BEQ      0x1dd2 ; setPort_1 + 178
        0x00001dcc:    7993        .y      LDRB     r3,[r2,#6]
        0x00001dce:    430b        .C      ORRS     r3,r3,r1
        0x00001dd0:    7193        .q      STRB     r3,[r2,#6]
        0x00001dd2:    09c0        ..      LSRS     r0,r0,#7
        0x00001dd4:    01c0        ..      LSLS     r0,r0,#7
        0x00001dd6:    7020         p      STRB     r0,[r4,#0]
        0x00001dd8:    79d0        .y      LDRB     r0,[r2,#7]
        0x00001dda:    0040        @.      LSLS     r0,r0,#1
        0x00001ddc:    71d0        .q      STRB     r0,[r2,#7]
        0x00001dde:    7820         x      LDRB     r0,[r4,#0]
        0x00001de0:    2800        .(      CMP      r0,#0
        0x00001de2:    d002        ..      BEQ      0x1dea ; setPort_1 + 202
        0x00001de4:    79d0        .y      LDRB     r0,[r2,#7]
        0x00001de6:    4308        .C      ORRS     r0,r0,r1
        0x00001de8:    71d0        .q      STRB     r0,[r2,#7]
        0x00001dea:    bd18        ..      POP      {r3,r4,pc}
    $d
        0x00001dec:    2000002c    ,..     DCD    536870956
    $t
    i.setPort_2
    setPort_2
        0x00001df0:    b518        ..      PUSH     {r3,r4,lr}
        0x00001df2:    07c1        ..      LSLS     r1,r0,#31
        0x00001df4:    0fc9        ..      LSRS     r1,r1,#31
        0x00001df6:    466b        kF      MOV      r3,sp
        0x00001df8:    7019        .p      STRB     r1,[r3,#0]
        0x00001dfa:    4a30        0J      LDR      r2,[pc,#192] ; [0x1ebc] = 0x20000034
        0x00001dfc:    7811        .x      LDRB     r1,[r2,#0]
        0x00001dfe:    0049        I.      LSLS     r1,r1,#1
        0x00001e00:    7011        .p      STRB     r1,[r2,#0]
        0x00001e02:    781b        .x      LDRB     r3,[r3,#0]
        0x00001e04:    2101        .!      MOVS     r1,#1
        0x00001e06:    2b00        .+      CMP      r3,#0
        0x00001e08:    d002        ..      BEQ      0x1e10 ; setPort_2 + 32
        0x00001e0a:    7813        .x      LDRB     r3,[r2,#0]
        0x00001e0c:    430b        .C      ORRS     r3,r3,r1
        0x00001e0e:    7013        .p      STRB     r3,[r2,#0]
        0x00001e10:    2302        .#      MOVS     r3,#2
        0x00001e12:    4003        .@      ANDS     r3,r3,r0
        0x00001e14:    466c        lF      MOV      r4,sp
        0x00001e16:    7023        #p      STRB     r3,[r4,#0]
        0x00001e18:    7853        Sx      LDRB     r3,[r2,#1]
        0x00001e1a:    005b        [.      LSLS     r3,r3,#1
        0x00001e1c:    7053        Sp      STRB     r3,[r2,#1]
        0x00001e1e:    7823        #x      LDRB     r3,[r4,#0]
        0x00001e20:    2b00        .+      CMP      r3,#0
        0x00001e22:    d002        ..      BEQ      0x1e2a ; setPort_2 + 58
        0x00001e24:    7853        Sx      LDRB     r3,[r2,#1]
        0x00001e26:    430b        .C      ORRS     r3,r3,r1
        0x00001e28:    7053        Sp      STRB     r3,[r2,#1]
        0x00001e2a:    2304        .#      MOVS     r3,#4
        0x00001e2c:    4003        .@      ANDS     r3,r3,r0
        0x00001e2e:    7023        #p      STRB     r3,[r4,#0]
        0x00001e30:    7893        .x      LDRB     r3,[r2,#2]
        0x00001e32:    005b        [.      LSLS     r3,r3,#1
        0x00001e34:    7093        .p      STRB     r3,[r2,#2]
        0x00001e36:    7823        #x      LDRB     r3,[r4,#0]
        0x00001e38:    2b00        .+      CMP      r3,#0
        0x00001e3a:    d002        ..      BEQ      0x1e42 ; setPort_2 + 82
        0x00001e3c:    7893        .x      LDRB     r3,[r2,#2]
        0x00001e3e:    430b        .C      ORRS     r3,r3,r1
        0x00001e40:    7093        .p      STRB     r3,[r2,#2]
        0x00001e42:    2308        .#      MOVS     r3,#8
        0x00001e44:    4003        .@      ANDS     r3,r3,r0
        0x00001e46:    7023        #p      STRB     r3,[r4,#0]
        0x00001e48:    78d3        .x      LDRB     r3,[r2,#3]
        0x00001e4a:    005b        [.      LSLS     r3,r3,#1
        0x00001e4c:    70d3        .p      STRB     r3,[r2,#3]
        0x00001e4e:    7823        #x      LDRB     r3,[r4,#0]
        0x00001e50:    2b00        .+      CMP      r3,#0
        0x00001e52:    d002        ..      BEQ      0x1e5a ; setPort_2 + 106
        0x00001e54:    78d3        .x      LDRB     r3,[r2,#3]
        0x00001e56:    430b        .C      ORRS     r3,r3,r1
        0x00001e58:    70d3        .p      STRB     r3,[r2,#3]
        0x00001e5a:    2310        .#      MOVS     r3,#0x10
        0x00001e5c:    4003        .@      ANDS     r3,r3,r0
        0x00001e5e:    7023        #p      STRB     r3,[r4,#0]
        0x00001e60:    7913        .y      LDRB     r3,[r2,#4]
        0x00001e62:    005b        [.      LSLS     r3,r3,#1
        0x00001e64:    7113        .q      STRB     r3,[r2,#4]
        0x00001e66:    7823        #x      LDRB     r3,[r4,#0]
        0x00001e68:    2b00        .+      CMP      r3,#0
        0x00001e6a:    d002        ..      BEQ      0x1e72 ; setPort_2 + 130
        0x00001e6c:    7913        .y      LDRB     r3,[r2,#4]
        0x00001e6e:    430b        .C      ORRS     r3,r3,r1
        0x00001e70:    7113        .q      STRB     r3,[r2,#4]
        0x00001e72:    2320         #      MOVS     r3,#0x20
        0x00001e74:    4003        .@      ANDS     r3,r3,r0
        0x00001e76:    7023        #p      STRB     r3,[r4,#0]
        0x00001e78:    7953        Sy      LDRB     r3,[r2,#5]
        0x00001e7a:    005b        [.      LSLS     r3,r3,#1
        0x00001e7c:    7153        Sq      STRB     r3,[r2,#5]
        0x00001e7e:    7823        #x      LDRB     r3,[r4,#0]
        0x00001e80:    2b00        .+      CMP      r3,#0
        0x00001e82:    d002        ..      BEQ      0x1e8a ; setPort_2 + 154
        0x00001e84:    7953        Sy      LDRB     r3,[r2,#5]
        0x00001e86:    430b        .C      ORRS     r3,r3,r1
        0x00001e88:    7153        Sq      STRB     r3,[r2,#5]
        0x00001e8a:    2340        @#      MOVS     r3,#0x40
        0x00001e8c:    4003        .@      ANDS     r3,r3,r0
        0x00001e8e:    7023        #p      STRB     r3,[r4,#0]
        0x00001e90:    7993        .y      LDRB     r3,[r2,#6]
        0x00001e92:    005b        [.      LSLS     r3,r3,#1
        0x00001e94:    7193        .q      STRB     r3,[r2,#6]
        0x00001e96:    7823        #x      LDRB     r3,[r4,#0]
        0x00001e98:    2b00        .+      CMP      r3,#0
        0x00001e9a:    d002        ..      BEQ      0x1ea2 ; setPort_2 + 178
        0x00001e9c:    7993        .y      LDRB     r3,[r2,#6]
        0x00001e9e:    430b        .C      ORRS     r3,r3,r1
        0x00001ea0:    7193        .q      STRB     r3,[r2,#6]
        0x00001ea2:    09c0        ..      LSRS     r0,r0,#7
        0x00001ea4:    01c0        ..      LSLS     r0,r0,#7
        0x00001ea6:    7020         p      STRB     r0,[r4,#0]
        0x00001ea8:    79d0        .y      LDRB     r0,[r2,#7]
        0x00001eaa:    0040        @.      LSLS     r0,r0,#1
        0x00001eac:    71d0        .q      STRB     r0,[r2,#7]
        0x00001eae:    7820         x      LDRB     r0,[r4,#0]
        0x00001eb0:    2800        .(      CMP      r0,#0
        0x00001eb2:    d002        ..      BEQ      0x1eba ; setPort_2 + 202
        0x00001eb4:    79d0        .y      LDRB     r0,[r2,#7]
        0x00001eb6:    4308        .C      ORRS     r0,r0,r1
        0x00001eb8:    71d0        .q      STRB     r0,[r2,#7]
        0x00001eba:    bd18        ..      POP      {r3,r4,pc}
    $d
        0x00001ebc:    20000034    4..     DCD    536870964
    $t
    i.setPort_3
    setPort_3
        0x00001ec0:    b518        ..      PUSH     {r3,r4,lr}
        0x00001ec2:    07c1        ..      LSLS     r1,r0,#31
        0x00001ec4:    0fc9        ..      LSRS     r1,r1,#31
        0x00001ec6:    466b        kF      MOV      r3,sp
        0x00001ec8:    7019        .p      STRB     r1,[r3,#0]
        0x00001eca:    4a30        0J      LDR      r2,[pc,#192] ; [0x1f8c] = 0x2000003c
        0x00001ecc:    7811        .x      LDRB     r1,[r2,#0]
        0x00001ece:    0049        I.      LSLS     r1,r1,#1
        0x00001ed0:    7011        .p      STRB     r1,[r2,#0]
        0x00001ed2:    781b        .x      LDRB     r3,[r3,#0]
        0x00001ed4:    2101        .!      MOVS     r1,#1
        0x00001ed6:    2b00        .+      CMP      r3,#0
        0x00001ed8:    d002        ..      BEQ      0x1ee0 ; setPort_3 + 32
        0x00001eda:    7813        .x      LDRB     r3,[r2,#0]
        0x00001edc:    430b        .C      ORRS     r3,r3,r1
        0x00001ede:    7013        .p      STRB     r3,[r2,#0]
        0x00001ee0:    2302        .#      MOVS     r3,#2
        0x00001ee2:    4003        .@      ANDS     r3,r3,r0
        0x00001ee4:    466c        lF      MOV      r4,sp
        0x00001ee6:    7023        #p      STRB     r3,[r4,#0]
        0x00001ee8:    7853        Sx      LDRB     r3,[r2,#1]
        0x00001eea:    005b        [.      LSLS     r3,r3,#1
        0x00001eec:    7053        Sp      STRB     r3,[r2,#1]
        0x00001eee:    7823        #x      LDRB     r3,[r4,#0]
        0x00001ef0:    2b00        .+      CMP      r3,#0
        0x00001ef2:    d002        ..      BEQ      0x1efa ; setPort_3 + 58
        0x00001ef4:    7853        Sx      LDRB     r3,[r2,#1]
        0x00001ef6:    430b        .C      ORRS     r3,r3,r1
        0x00001ef8:    7053        Sp      STRB     r3,[r2,#1]
        0x00001efa:    2304        .#      MOVS     r3,#4
        0x00001efc:    4003        .@      ANDS     r3,r3,r0
        0x00001efe:    7023        #p      STRB     r3,[r4,#0]
        0x00001f00:    7893        .x      LDRB     r3,[r2,#2]
        0x00001f02:    005b        [.      LSLS     r3,r3,#1
        0x00001f04:    7093        .p      STRB     r3,[r2,#2]
        0x00001f06:    7823        #x      LDRB     r3,[r4,#0]
        0x00001f08:    2b00        .+      CMP      r3,#0
        0x00001f0a:    d002        ..      BEQ      0x1f12 ; setPort_3 + 82
        0x00001f0c:    7893        .x      LDRB     r3,[r2,#2]
        0x00001f0e:    430b        .C      ORRS     r3,r3,r1
        0x00001f10:    7093        .p      STRB     r3,[r2,#2]
        0x00001f12:    2308        .#      MOVS     r3,#8
        0x00001f14:    4003        .@      ANDS     r3,r3,r0
        0x00001f16:    7023        #p      STRB     r3,[r4,#0]
        0x00001f18:    78d3        .x      LDRB     r3,[r2,#3]
        0x00001f1a:    005b        [.      LSLS     r3,r3,#1
        0x00001f1c:    70d3        .p      STRB     r3,[r2,#3]
        0x00001f1e:    7823        #x      LDRB     r3,[r4,#0]
        0x00001f20:    2b00        .+      CMP      r3,#0
        0x00001f22:    d002        ..      BEQ      0x1f2a ; setPort_3 + 106
        0x00001f24:    78d3        .x      LDRB     r3,[r2,#3]
        0x00001f26:    430b        .C      ORRS     r3,r3,r1
        0x00001f28:    70d3        .p      STRB     r3,[r2,#3]
        0x00001f2a:    2310        .#      MOVS     r3,#0x10
        0x00001f2c:    4003        .@      ANDS     r3,r3,r0
        0x00001f2e:    7023        #p      STRB     r3,[r4,#0]
        0x00001f30:    7913        .y      LDRB     r3,[r2,#4]
        0x00001f32:    005b        [.      LSLS     r3,r3,#1
        0x00001f34:    7113        .q      STRB     r3,[r2,#4]
        0x00001f36:    7823        #x      LDRB     r3,[r4,#0]
        0x00001f38:    2b00        .+      CMP      r3,#0
        0x00001f3a:    d002        ..      BEQ      0x1f42 ; setPort_3 + 130
        0x00001f3c:    7913        .y      LDRB     r3,[r2,#4]
        0x00001f3e:    430b        .C      ORRS     r3,r3,r1
        0x00001f40:    7113        .q      STRB     r3,[r2,#4]
        0x00001f42:    2320         #      MOVS     r3,#0x20
        0x00001f44:    4003        .@      ANDS     r3,r3,r0
        0x00001f46:    7023        #p      STRB     r3,[r4,#0]
        0x00001f48:    7953        Sy      LDRB     r3,[r2,#5]
        0x00001f4a:    005b        [.      LSLS     r3,r3,#1
        0x00001f4c:    7153        Sq      STRB     r3,[r2,#5]
        0x00001f4e:    7823        #x      LDRB     r3,[r4,#0]
        0x00001f50:    2b00        .+      CMP      r3,#0
        0x00001f52:    d002        ..      BEQ      0x1f5a ; setPort_3 + 154
        0x00001f54:    7953        Sy      LDRB     r3,[r2,#5]
        0x00001f56:    430b        .C      ORRS     r3,r3,r1
        0x00001f58:    7153        Sq      STRB     r3,[r2,#5]
        0x00001f5a:    2340        @#      MOVS     r3,#0x40
        0x00001f5c:    4003        .@      ANDS     r3,r3,r0
        0x00001f5e:    7023        #p      STRB     r3,[r4,#0]
        0x00001f60:    7993        .y      LDRB     r3,[r2,#6]
        0x00001f62:    005b        [.      LSLS     r3,r3,#1
        0x00001f64:    7193        .q      STRB     r3,[r2,#6]
        0x00001f66:    7823        #x      LDRB     r3,[r4,#0]
        0x00001f68:    2b00        .+      CMP      r3,#0
        0x00001f6a:    d002        ..      BEQ      0x1f72 ; setPort_3 + 178
        0x00001f6c:    7993        .y      LDRB     r3,[r2,#6]
        0x00001f6e:    430b        .C      ORRS     r3,r3,r1
        0x00001f70:    7193        .q      STRB     r3,[r2,#6]
        0x00001f72:    09c0        ..      LSRS     r0,r0,#7
        0x00001f74:    01c0        ..      LSLS     r0,r0,#7
        0x00001f76:    7020         p      STRB     r0,[r4,#0]
        0x00001f78:    79d0        .y      LDRB     r0,[r2,#7]
        0x00001f7a:    0040        @.      LSLS     r0,r0,#1
        0x00001f7c:    71d0        .q      STRB     r0,[r2,#7]
        0x00001f7e:    7820         x      LDRB     r0,[r4,#0]
        0x00001f80:    2800        .(      CMP      r0,#0
        0x00001f82:    d002        ..      BEQ      0x1f8a ; setPort_3 + 202
        0x00001f84:    79d0        .y      LDRB     r0,[r2,#7]
        0x00001f86:    4308        .C      ORRS     r0,r0,r1
        0x00001f88:    71d0        .q      STRB     r0,[r2,#7]
        0x00001f8a:    bd18        ..      POP      {r3,r4,pc}
    $d
        0x00001f8c:    2000003c    <..     DCD    536870972
    $t
    i.setPort_4
    setPort_4
        0x00001f90:    b518        ..      PUSH     {r3,r4,lr}
        0x00001f92:    07c1        ..      LSLS     r1,r0,#31
        0x00001f94:    0fc9        ..      LSRS     r1,r1,#31
        0x00001f96:    466b        kF      MOV      r3,sp
        0x00001f98:    7019        .p      STRB     r1,[r3,#0]
        0x00001f9a:    4a30        0J      LDR      r2,[pc,#192] ; [0x205c] = 0x20000044
        0x00001f9c:    7811        .x      LDRB     r1,[r2,#0]
        0x00001f9e:    0049        I.      LSLS     r1,r1,#1
        0x00001fa0:    7011        .p      STRB     r1,[r2,#0]
        0x00001fa2:    781b        .x      LDRB     r3,[r3,#0]
        0x00001fa4:    2101        .!      MOVS     r1,#1
        0x00001fa6:    2b00        .+      CMP      r3,#0
        0x00001fa8:    d002        ..      BEQ      0x1fb0 ; setPort_4 + 32
        0x00001faa:    7813        .x      LDRB     r3,[r2,#0]
        0x00001fac:    430b        .C      ORRS     r3,r3,r1
        0x00001fae:    7013        .p      STRB     r3,[r2,#0]
        0x00001fb0:    2302        .#      MOVS     r3,#2
        0x00001fb2:    4003        .@      ANDS     r3,r3,r0
        0x00001fb4:    466c        lF      MOV      r4,sp
        0x00001fb6:    7023        #p      STRB     r3,[r4,#0]
        0x00001fb8:    7853        Sx      LDRB     r3,[r2,#1]
        0x00001fba:    005b        [.      LSLS     r3,r3,#1
        0x00001fbc:    7053        Sp      STRB     r3,[r2,#1]
        0x00001fbe:    7823        #x      LDRB     r3,[r4,#0]
        0x00001fc0:    2b00        .+      CMP      r3,#0
        0x00001fc2:    d002        ..      BEQ      0x1fca ; setPort_4 + 58
        0x00001fc4:    7853        Sx      LDRB     r3,[r2,#1]
        0x00001fc6:    430b        .C      ORRS     r3,r3,r1
        0x00001fc8:    7053        Sp      STRB     r3,[r2,#1]
        0x00001fca:    2304        .#      MOVS     r3,#4
        0x00001fcc:    4003        .@      ANDS     r3,r3,r0
        0x00001fce:    7023        #p      STRB     r3,[r4,#0]
        0x00001fd0:    7893        .x      LDRB     r3,[r2,#2]
        0x00001fd2:    005b        [.      LSLS     r3,r3,#1
        0x00001fd4:    7093        .p      STRB     r3,[r2,#2]
        0x00001fd6:    7823        #x      LDRB     r3,[r4,#0]
        0x00001fd8:    2b00        .+      CMP      r3,#0
        0x00001fda:    d002        ..      BEQ      0x1fe2 ; setPort_4 + 82
        0x00001fdc:    7893        .x      LDRB     r3,[r2,#2]
        0x00001fde:    430b        .C      ORRS     r3,r3,r1
        0x00001fe0:    7093        .p      STRB     r3,[r2,#2]
        0x00001fe2:    2308        .#      MOVS     r3,#8
        0x00001fe4:    4003        .@      ANDS     r3,r3,r0
        0x00001fe6:    7023        #p      STRB     r3,[r4,#0]
        0x00001fe8:    78d3        .x      LDRB     r3,[r2,#3]
        0x00001fea:    005b        [.      LSLS     r3,r3,#1
        0x00001fec:    70d3        .p      STRB     r3,[r2,#3]
        0x00001fee:    7823        #x      LDRB     r3,[r4,#0]
        0x00001ff0:    2b00        .+      CMP      r3,#0
        0x00001ff2:    d002        ..      BEQ      0x1ffa ; setPort_4 + 106
        0x00001ff4:    78d3        .x      LDRB     r3,[r2,#3]
        0x00001ff6:    430b        .C      ORRS     r3,r3,r1
        0x00001ff8:    70d3        .p      STRB     r3,[r2,#3]
        0x00001ffa:    2310        .#      MOVS     r3,#0x10
        0x00001ffc:    4003        .@      ANDS     r3,r3,r0
        0x00001ffe:    7023        #p      STRB     r3,[r4,#0]
        0x00002000:    7913        .y      LDRB     r3,[r2,#4]
        0x00002002:    005b        [.      LSLS     r3,r3,#1
        0x00002004:    7113        .q      STRB     r3,[r2,#4]
        0x00002006:    7823        #x      LDRB     r3,[r4,#0]
        0x00002008:    2b00        .+      CMP      r3,#0
        0x0000200a:    d002        ..      BEQ      0x2012 ; setPort_4 + 130
        0x0000200c:    7913        .y      LDRB     r3,[r2,#4]
        0x0000200e:    430b        .C      ORRS     r3,r3,r1
        0x00002010:    7113        .q      STRB     r3,[r2,#4]
        0x00002012:    2320         #      MOVS     r3,#0x20
        0x00002014:    4003        .@      ANDS     r3,r3,r0
        0x00002016:    7023        #p      STRB     r3,[r4,#0]
        0x00002018:    7953        Sy      LDRB     r3,[r2,#5]
        0x0000201a:    005b        [.      LSLS     r3,r3,#1
        0x0000201c:    7153        Sq      STRB     r3,[r2,#5]
        0x0000201e:    7823        #x      LDRB     r3,[r4,#0]
        0x00002020:    2b00        .+      CMP      r3,#0
        0x00002022:    d002        ..      BEQ      0x202a ; setPort_4 + 154
        0x00002024:    7953        Sy      LDRB     r3,[r2,#5]
        0x00002026:    430b        .C      ORRS     r3,r3,r1
        0x00002028:    7153        Sq      STRB     r3,[r2,#5]
        0x0000202a:    2340        @#      MOVS     r3,#0x40
        0x0000202c:    4003        .@      ANDS     r3,r3,r0
        0x0000202e:    7023        #p      STRB     r3,[r4,#0]
        0x00002030:    7993        .y      LDRB     r3,[r2,#6]
        0x00002032:    005b        [.      LSLS     r3,r3,#1
        0x00002034:    7193        .q      STRB     r3,[r2,#6]
        0x00002036:    7823        #x      LDRB     r3,[r4,#0]
        0x00002038:    2b00        .+      CMP      r3,#0
        0x0000203a:    d002        ..      BEQ      0x2042 ; setPort_4 + 178
        0x0000203c:    7993        .y      LDRB     r3,[r2,#6]
        0x0000203e:    430b        .C      ORRS     r3,r3,r1
        0x00002040:    7193        .q      STRB     r3,[r2,#6]
        0x00002042:    09c0        ..      LSRS     r0,r0,#7
        0x00002044:    01c0        ..      LSLS     r0,r0,#7
        0x00002046:    7020         p      STRB     r0,[r4,#0]
        0x00002048:    79d0        .y      LDRB     r0,[r2,#7]
        0x0000204a:    0040        @.      LSLS     r0,r0,#1
        0x0000204c:    71d0        .q      STRB     r0,[r2,#7]
        0x0000204e:    7820         x      LDRB     r0,[r4,#0]
        0x00002050:    2800        .(      CMP      r0,#0
        0x00002052:    d002        ..      BEQ      0x205a ; setPort_4 + 202
        0x00002054:    79d0        .y      LDRB     r0,[r2,#7]
        0x00002056:    4308        .C      ORRS     r0,r0,r1
        0x00002058:    71d0        .q      STRB     r0,[r2,#7]
        0x0000205a:    bd18        ..      POP      {r3,r4,pc}
    $d
        0x0000205c:    20000044    D..     DCD    536870980
    $t
    i.stackDump
    stackDump
        0x00002060:    b510        ..      PUSH     {r4,lr}
        0x00002062:    4604        .F      MOV      r4,r0
        0x00002064:    6801        .h      LDR      r1,[r0,#0]
        0x00002066:    a010        ..      ADR      r0,{pc}+0x42 ; 0x20a8
        0x00002068:    f7feff00    ....    BL       __0printf$5 ; 0xe6c
        0x0000206c:    a011        ..      ADR      r0,{pc}+0x48 ; 0x20b4
        0x0000206e:    6861        ah      LDR      r1,[r4,#4]
        0x00002070:    f7fefefc    ....    BL       __0printf$5 ; 0xe6c
        0x00002074:    a012        ..      ADR      r0,{pc}+0x4c ; 0x20c0
        0x00002076:    68a1        .h      LDR      r1,[r4,#8]
        0x00002078:    f7fefef8    ....    BL       __0printf$5 ; 0xe6c
        0x0000207c:    a013        ..      ADR      r0,{pc}+0x50 ; 0x20cc
        0x0000207e:    68e1        .h      LDR      r1,[r4,#0xc]
        0x00002080:    f7fefef4    ....    BL       __0printf$5 ; 0xe6c
        0x00002084:    a014        ..      ADR      r0,{pc}+0x54 ; 0x20d8
        0x00002086:    6921        !i      LDR      r1,[r4,#0x10]
        0x00002088:    f7fefef0    ....    BL       __0printf$5 ; 0xe6c
        0x0000208c:    a015        ..      ADR      r0,{pc}+0x58 ; 0x20e4
        0x0000208e:    6961        ai      LDR      r1,[r4,#0x14]
        0x00002090:    f7fefeec    ....    BL       __0printf$5 ; 0xe6c
        0x00002094:    a016        ..      ADR      r0,{pc}+0x5c ; 0x20f0
        0x00002096:    69a1        .i      LDR      r1,[r4,#0x18]
        0x00002098:    f7fefee8    ....    BL       __0printf$5 ; 0xe6c
        0x0000209c:    a017        ..      ADR      r0,{pc}+0x60 ; 0x20fc
        0x0000209e:    69e1        .i      LDR      r1,[r4,#0x1c]
        0x000020a0:    f7fefee4    ....    BL       __0printf$5 ; 0xe6c
        0x000020a4:    bd10        ..      POP      {r4,pc}
    $d
        0x000020a6:    0000        ..      DCW    0
        0x000020a8:    20203072    r0      DCD    538980466
        0x000020ac:    7830203d    = 0x    DCD    2016419901
        0x000020b0:    000a7825    %x..    DCD    686117
        0x000020b4:    20203172    r1      DCD    538980722
        0x000020b8:    7830203d    = 0x    DCD    2016419901
        0x000020bc:    000a7825    %x..    DCD    686117
        0x000020c0:    20203272    r2      DCD    538980978
        0x000020c4:    7830203d    = 0x    DCD    2016419901
        0x000020c8:    000a7825    %x..    DCD    686117
        0x000020cc:    20203372    r3      DCD    538981234
        0x000020d0:    7830203d    = 0x    DCD    2016419901
        0x000020d4:    000a7825    %x..    DCD    686117
        0x000020d8:    20323172    r12     DCD    540160370
        0x000020dc:    7830203d    = 0x    DCD    2016419901
        0x000020e0:    000a7825    %x..    DCD    686117
        0x000020e4:    2020726c    lr      DCD    538997356
        0x000020e8:    7830203d    = 0x    DCD    2016419901
        0x000020ec:    000a7825    %x..    DCD    686117
        0x000020f0:    20206370    pc      DCD    538993520
        0x000020f4:    7830203d    = 0x    DCD    2016419901
        0x000020f8:    000a7825    %x..    DCD    686117
        0x000020fc:    20727370    psr     DCD    544371568
        0x00002100:    7830203d    = 0x    DCD    2016419901
        0x00002104:    000a7825    %x..    DCD    686117
    $d.realdata
    .constdata
    gau32ClkSrcTbl
        0x00002108:    01e84800    .H..    DCD    32000000
        0x0000210c:    00008000    ....    DCD    32768
        0x00002110:    05b8d800    ....    DCD    96000000
        0x00002114:    00009600    ....    DCD    38400
        0x00002118:    02dc6c00    .l..    DCD    48000000
        0x0000211c:    00000000    ....    DCD    0
        0x00002120:    00000000    ....    DCD    0
        0x00002124:    02dc6c00    .l..    DCD    48000000
    .constdata
        0x00002128:    00000000    ....    DCD    0
        0x0000212c:    00000004    ....    DCD    4
        0x00002130:    00000008    ....    DCD    8
        0x00002134:    0000000c    ....    DCD    12
        0x00002138:    00000000    ....    DCD    0
        0x0000213c:    00000000    ....    DCD    0
        0x00002140:    00000000    ....    DCD    0
        0x00002144:    00000010    ....    DCD    16
        0x00002148:    00000000    ....    DCD    0
        0x0000214c:    00000004    ....    DCD    4
        0x00002150:    00000008    ....    DCD    8
        0x00002154:    00000000    ....    DCD    0
        0x00002158:    00000004    ....    DCD    4
        0x0000215c:    00000008    ....    DCD    8
    .constdata
        0x00002160:    01e84800    .H..    DCD    32000000
        0x00002164:    00008000    ....    DCD    32768
        0x00002168:    00000000    ....    DCD    0
        0x0000216c:    00000000    ....    DCD    0
        0x00002170:    00000000    ....    DCD    0
        0x00002174:    00009600    ....    DCD    38400
        0x00002178:    00000000    ....    DCD    0
        0x0000217c:    02dc6c00    .l..    DCD    48000000
    .constdata
        0x00002180:    01e84800    .H..    DCD    32000000
        0x00002184:    00000000    ....    DCD    0
        0x00002188:    00008000    ....    DCD    32768
        0x0000218c:    02dc6c00    .l..    DCD    48000000
        0x00002190:    00000000    ....    DCD    0
        0x00002194:    00009600    ....    DCD    38400
        0x00002198:    01e84800    .H..    DCD    32000000
        0x0000219c:    00000000    ....    DCD    0
        0x000021a0:    00008000    ....    DCD    32768
        0x000021a4:    02dc6c00    .l..    DCD    48000000
        0x000021a8:    00000000    ....    DCD    0
        0x000021ac:    00009600    ....    DCD    38400
        0x000021b0:    01e84800    .H..    DCD    32000000
        0x000021b4:    00000000    ....    DCD    0
        0x000021b8:    00008000    ....    DCD    32768
        0x000021bc:    02dc6c00    .l..    DCD    48000000
        0x000021c0:    00000000    ....    DCD    0
        0x000021c4:    00009600    ....    DCD    38400
    Region$$Table$$Base
        0x000021c8:    000021e8    .!..    DCD    8680
        0x000021cc:    20000000    ...     DCD    536870912
        0x000021d0:    0000006c    l...    DCD    108
        0x000021d4:    00000e8c    ....    DCD    3724
        0x000021d8:    00002254    T"..    DCD    8788
        0x000021dc:    2000006c    l..     DCD    536871020
        0x000021e0:    0000026c    l...    DCD    620
        0x000021e4:    00000e9c    ....    DCD    3740
    Region$$Table$$Limit

** Section #2 'ER_RW' (SHT_PROGBITS) [SHF_ALLOC + SHF_WRITE]
    Size   : 108 bytes (alignment 4)
    Address: 0x20000000


** Section #3 'ER_ZI' (SHT_NOBITS) [SHF_ALLOC + SHF_WRITE]
    Size   : 620 bytes (alignment 8)
    Address: 0x2000006c


** Section #4 '.debug_abbrev' (SHT_PROGBITS)
    Size   : 1476 bytes


** Section #5 '.debug_frame' (SHT_PROGBITS)
    Size   : 2184 bytes


** Section #6 '.debug_info' (SHT_PROGBITS)
    Size   : 32352 bytes


** Section #7 '.debug_line' (SHT_PROGBITS)
    Size   : 14276 bytes


** Section #8 '.debug_loc' (SHT_PROGBITS)
    Size   : 3232 bytes


** Section #9 '.debug_macinfo' (SHT_PROGBITS)
    Size   : 106344 bytes


** Section #10 '.debug_pubnames' (SHT_PROGBITS)
    Size   : 2723 bytes


** Section #11 '.symtab' (SHT_SYMTAB)
    Size   : 7552 bytes (alignment 4)
    String table #12 '.strtab'
    Last local symbol no. 281


** Section #12 '.strtab' (SHT_STRTAB)
    Size   : 5736 bytes


** Section #13 '.note' (SHT_NOTE)
    Size   : 28 bytes (alignment 4)


** Section #14 '.comment' (SHT_PROGBITS)
    Size   : 15684 bytes


** Section #15 '.shstrtab' (SHT_STRTAB)
    Size   : 156 bytes


