LX51 LINKER/LOCATER V4.66.97.0                                                          10/09/2022  21:02:01  PAGE 1


LX51 LINKER/LOCATER V4.66.97.0, INVOKED BY:
C:\KEIL_V5\C51\BIN\LX51.EXE .\Output\helloworld.obj, .\Output\sys.obj, .\Output\uart.obj, .\Output\STARTUP.obj TO .\Outp
>> ut\Project PRINT (.\LST\Project.map) DISABLEWARNING (16)


CPU MODE:     8051 MODE
MEMORY MODEL: LARGE


INPUT MODULES INCLUDED:
  .\Output\helloworld.obj (HELLOWORLD)
         COMMENT TYPE 0: C51 V9.60.0.0
  .\Output\sys.obj (SYS)
         COMMENT TYPE 0: C51 V9.60.0.0
  .\Output\uart.obj (UART)
         COMMENT TYPE 0: C51 V9.60.0.0
  .\Output\STARTUP.obj (?C_STARTUP)
         COMMENT TYPE 1: A51 / ASM51 Assembler
  C:\KEIL_V5\C51\LIB\C51L.LIB (?C_INIT)
         COMMENT TYPE 1: A51 / ASM51 Assembler
  C:\KEIL_V5\C51\LIB\C51L.LIB (?C?ULDIV)
         COMMENT TYPE 1: A51 / ASM51 Assembler
  C:\KEIL_V5\C51\LIB\C51L.LIB (?C?ULSHR)
         COMMENT TYPE 1: A51 / ASM51 Assembler
  C:\KEIL_V5\C51\LIB\C51L.LIB (?C?LSTXDATA)
         COMMENT TYPE 1: A51 / ASM51 Assembler
  C:\KEIL_V5\C51\LIB\C51L.LIB (?C?LSTKXDATA)
         COMMENT TYPE 1: A51 / ASM51 Assembler
  C:\KEIL_V5\C51\LIB\C51L.LIB (PRINTF)
         COMMENT TYPE 1: A51 / ASM51 Assembler
  C:\KEIL_V5\C51\LIB\C51L.LIB (?C?CLDPTR)
         COMMENT TYPE 1: A51 / ASM51 Assembler
  C:\KEIL_V5\C51\LIB\C51L.LIB (?C?CLDOPTR)
         COMMENT TYPE 1: A51 / ASM51 Assembler
  C:\KEIL_V5\C51\LIB\C51L.LIB (?C?CSTPTR)
         COMMENT TYPE 1: A51 / ASM51 Assembler
  C:\KEIL_V5\C51\LIB\C51L.LIB (?C?PLDIXDATA)
         COMMENT TYPE 1: A51 / ASM51 Assembler
  C:\KEIL_V5\C51\LIB\C51L.LIB (?C?PSTXDATA)
         COMMENT TYPE 1: A51 / ASM51 Assembler
  C:\KEIL_V5\C51\LIB\C51L.LIB (?C?CCASE)
         COMMENT TYPE 1: A51 / ASM51 Assembler
  C:\KEIL_V5\C51\LIB\C51L.LIB (PUTCHAR)
         COMMENT TYPE 1: A51 / ASM51 Assembler


ACTIVE MEMORY CLASSES OF MODULE:  .\Output\Project (HELLOWORLD)

BASE        START       END         USED      MEMORY CLASS
==========================================================
C:000000H   C:000000H   C:00FFFFH   000C55H   CODE
C:000000H   C:000000H   C:00FFFFH   00000FH   CONST
I:000020H.0 I:000020H.0 I:00002FH.7 000001H.6 BIT
I:000000H   I:000000H   I:00007FH   00000DH   DATA
X:000000H   X:000000H   X:00FFFFH   00002AH   XDATA
I:000000H   I:000000H   I:0000FFH   000001H   IDATA


MEMORY MAP OF MODULE:  .\Output\Project (HELLOWORLD)


START     STOP      LENGTH    ALIGN  RELOC    MEMORY CLASS   SEGMENT NAME
=========================================================================

* * * * * * * * * * *   D A T A   M E M O R Y   * * * * * * * * * * * * *
000000H   000007H   000008H   ---    AT..     DATA           "REG BANK 0"
LX51 LINKER/LOCATER V4.66.97.0                                                        10/09/2022  21:02:01  PAGE 2


000008H   00000CH   000005H   BYTE   UNIT     DATA           _DATA_GROUP_
00000DH.0 00001FH.7 000013H.0 ---    ---      **GAP**
000020H.0 000021H.0 000001H.1 BIT    UNIT     BIT            _BIT_GROUP_
000021H.1 000021H.3 000000H.3 BIT    UNIT     BIT            ?BI?UART
000021H.4 000021H.4 000000H.1 BIT    UNIT     BIT            ?BI?_CLOCKDISABLE?SYS
000021H.5 000021H.5 000000H.1 BIT    UNIT     BIT            ?BI?_CLOCKSWITCH?SYS
000021H.6 000021H   000000H.2 ---    ---      **GAP**
000022H   000022H   000001H   BYTE   UNIT     IDATA          ?STACK

* * * * * * * * * * *   C O D E   M E M O R Y   * * * * * * * * * * * * *
000000H   000002H   000003H   ---    OFFS..   CODE           ?CO??C_STARTUP?0
000003H   000021H   00001FH   BYTE   UNIT     CODE           ?PR?SERIAL_ISR?UART
000022H   000022H   000001H   ---    ---      **GAP**
000023H   000025H   000003H   BYTE   OFFS..   CODE           ?UART?00023
000026H   00005CH   000037H   BYTE   UNIT     CODE           ?PR?MAIN?HELLOWORLD
00005DH   000079H   00001DH   BYTE   UNIT     CODE           ?PR?_RECEIVE_DATA?UART
00007AH   00007AH   000001H   ---    ---      **GAP**
00007BH   00007DH   000003H   BYTE   OFFS..   CODE           ?UART?0007B
00007EH   0003E2H   000365H   BYTE   UNIT     CODE           ?PR?PRINTF?PRINTF
0003E3H   00059EH   0001BCH   BYTE   UNIT     CODE           ?C?LIB_CODE
00059FH   000718H   00017AH   BYTE   UNIT     CODE           ?PR?_UART_OPEN?UART
000719H   000844H   00012CH   BYTE   UNIT     CODE           ?PR?_MODIFY_HIRC?SYS
000845H   000939H   0000F5H   BYTE   UNIT     CODE           ?PR?_CLOCKENABLE?SYS
00093AH   0009FEH   0000C5H   BYTE   UNIT     CODE           ?PR?_FSYSSELECT?SYS
0009FFH   000AB2H   0000B4H   BYTE   UNIT     CODE           ?PR?_CLOCKSWITCH?SYS
000AB3H   000B4CH   00009AH   BYTE   UNIT     CODE           ?C_C51STARTUP
000B4DH   000BB9H   00006DH   BYTE   UNIT     CODE           ?PR?_CLOCKDISABLE?SYS
000BBAH   000BE1H   000028H   BYTE   UNIT     CODE           ?PR?SERIALPORT1_ISR?UART
000BE2H   000C08H   000027H   BYTE   UNIT     CODE           ?PR?PUTCHAR?PUTCHAR
000C09H   000C2EH   000026H   BYTE   UNIT     CODE           ?PR?ENABLE_UART0_VCOM_PRINTF_24M_115200?UART
000C2FH   000C51H   000023H   BYTE   UNIT     CODE           ?PR?_UART_SEND_DATA?UART
000C52H   000C56H   000005H   BYTE   UNIT     CODE           ?C_INITSEG
000C57H   000C65H   00000FH   BYTE   UNIT     CONST          ?CO?HELLOWORLD

* * * * * * * * * * *  X D A T A   M E M O R Y  * * * * * * * * * * * * *
000000H   000027H   000028H   BYTE   UNIT     XDATA          _XDATA_GROUP_
000028H   000029H   000002H   BYTE   UNIT     XDATA          ?XD?UART



OVERLAY MAP OF MODULE:   .\Output\Project (HELLOWORLD)


FUNCTION/MODULE                                BIT_GROUP   DATA_GROUP   XDATA_GROUP
--> CALLED FUNCTION/MODULE                    START  STOP  START  STOP  START  STOP
===================================================================================
SERIAL_ISR/UART                               ----- -----  ----- -----  ----- -----

*** NEW ROOT ********************************

SERIALPORT1_ISR/UART                          ----- -----  ----- -----  ----- -----

*** NEW ROOT ********************************

?C_C51STARTUP                                 ----- -----  ----- -----  ----- -----
  +--> MAIN/HELLOWORLD
  +--> ?C_INITSEG

MAIN/HELLOWORLD                               ----- -----  ----- -----  ----- -----
  +--> _MODIFY_HIRC/SYS
  +--> _UART_OPEN/UART
  +--> PRINTF/PRINTF

_MODIFY_HIRC/SYS                              ----- -----  0008H 000BH  ----- -----

LX51 LINKER/LOCATER V4.66.97.0                                                        10/09/2022  21:02:01  PAGE 3


_UART_OPEN/UART                               ----- -----  ----- -----  0000H 0008H

PRINTF/PRINTF                                 20H.0 21H.0  0008H 000CH  0000H 0027H
  +--> PUTCHAR/PUTCHAR

PUTCHAR/PUTCHAR                               ----- -----  ----- -----  ----- -----

?C_INITSEG                                    ----- -----  ----- -----  ----- -----



PUBLIC SYMBOLS OF MODULE:  .\Output\Project (HELLOWORLD)


      VALUE       CLASS    TYPE      PUBLIC SYMBOL NAME
      =================================================
      02000000H   XDATA    ---       ?_PRINTF517?BYTE
      02000000H   XDATA    ---       ?_PRINTF?BYTE
      02000000H   XDATA    ---       ?_SPRINTF517?BYTE
      02000000H   XDATA    ---       ?_SPRINTF?BYTE
      02000000H   XDATA    BYTE      ?_UART_Open?BYTE
      01000579H   CODE     ---       ?C?CCASE
      0100051AH   CODE     ---       ?C?CLDOPTR
      01000501H   CODE     ---       ?C?CLDPTR
      00000000H   NUMBER   ---       ?C?CODESEG
      01000547H   CODE     ---       ?C?CSTPTR
      010004D0H   CODE     ---       ?C?LSTKXDATA
      010004C4H   CODE     ---       ?C?LSTXDATA
      01000559H   CODE     ---       ?C?PLDIXDATA
      01000570H   CODE     ---       ?C?PSTXDATA
      0100041FH   CODE     ---       ?C?ULDIV
      010004B1H   CODE     ---       ?C?ULSHR
      00000000H   NUMBER   ---       ?C?XDATASEG
      01000B08H   CODE     ---       ?C_START
      01000000H   CODE     ---       ?C_STARTUP
      01000B4DH   CODE     ---       _ClockDisable
      01000845H   CODE     ---       _ClockEnable
      010009FFH   CODE     ---       _ClockSwitch
      0100093AH   CODE     ---       _FsysSelect
      01000719H   CODE     ---       _MODIFY_HIRC
      010000E9H   CODE     ---       _PRINTF
      010000E9H   CODE     ---       _PRINTF517
      01000BE2H   CODE     ---       _PUTCHAR
      0100005DH   CODE     ---       _Receive_Data
      010000E3H   CODE     ---       _SPRINTF
      010000E3H   CODE     ---       _SPRINTF517
      0100059FH   CODE     ---       _UART_Open
      01000C2FH   CODE     ---       _UART_Send_Data
*SFR* 000000C0H.2 DATA     BIT       AA
*SFR* 000000D0H.6 DATA     BIT       AC
*SFR* 000000E0H   DATA     BYTE      ACC
*SFR* 00000085H   DATA     BYTE      ADCBAH
*SFR* 00000084H   DATA     BYTE      ADCBAL
*SFR* 0000008EH   DATA     BYTE      ADCCN
*SFR* 000000E8H   DATA     BYTE      ADCCON0
*SFR* 000000E1H   DATA     BYTE      ADCCON1
*SFR* 000000E2H   DATA     BYTE      ADCCON2
*SFR* 00000086H   DATA     BYTE      ADCCON3
*SFR* 000000E3H   DATA     BYTE      ADCDLY
*SFR* 000000E8H.7 DATA     BIT       ADCF
*SFR* 000000E8H.0 DATA     BIT       ADCHS0
*SFR* 000000E8H.1 DATA     BIT       ADCHS1
*SFR* 000000E8H.2 DATA     BIT       ADCHS2
*SFR* 000000E8H.3 DATA     BIT       ADCHS3
*SFR* 000000CFH   DATA     BYTE      ADCMPH
LX51 LINKER/LOCATER V4.66.97.0                                                        10/09/2022  21:02:01  PAGE 4


*SFR* 000000CEH   DATA     BYTE      ADCMPL
*SFR* 000000C3H   DATA     BYTE      ADCRH
*SFR* 000000C2H   DATA     BYTE      ADCRL
*SFR* 000000E8H.6 DATA     BIT       ADCS
*SFR* 0000008DH   DATA     BYTE      ADCSN
*SFR* 0000008FH   DATA     BYTE      ADCSR
*SFR* 000000F6H   DATA     BYTE      AINDIDS0
*SFR* 00000099H   DATA     BYTE      AINDIDS1
*SFR* 000000A2H   DATA     BYTE      AUXR1
*SFR* 000000A1H   DATA     BYTE      AUXR2
*SFR* 000000A2H   DATA     BYTE      AUXR3
*SFR* 000000A3H   DATA     BYTE      AUXR4
*SFR* 000000A4H   DATA     BYTE      AUXR5
*SFR* 000000A5H   DATA     BYTE      AUXR6
*SFR* 000000A6H   DATA     BYTE      AUXR7
*SFR* 000000A7H   DATA     BYTE      AUXR8
*SFR* 000000F0H   DATA     BYTE      B
      *EXTERN*    BIT      BIT       BIT_TMP
*SFR* 000000A3H   DATA     BYTE      BODCON0
*SFR* 000000ABH   DATA     BYTE      BODCON1
*SFR* 000000E5H   DATA     BYTE      C0H
*SFR* 000000E4H   DATA     BYTE      C0L
*SFR* 000000E7H   DATA     BYTE      C1H
*SFR* 000000E6H   DATA     BYTE      C1L
*SFR* 000000EEH   DATA     BYTE      C2H
*SFR* 000000EDH   DATA     BYTE      C2L
*SFR* 00000092H   DATA     BYTE      CAPCON0
*SFR* 00000093H   DATA     BYTE      CAPCON1
*SFR* 00000094H   DATA     BYTE      CAPCON2
*SFR* 000000F1H   DATA     BYTE      CAPCON3
*SFR* 000000F2H   DATA     BYTE      CAPCON4
*SFR* 0000009FH   DATA     BYTE      CHPCON
*SFR* 0000008EH   DATA     BYTE      CKCON
*SFR* 00000095H   DATA     BYTE      CKDIV
*SFR* 00000097H   DATA     BYTE      CKEN
*SFR* 00000096H   DATA     BYTE      CKSWT
*SFR* 000000D8H.4 DATA     BIT       CLRPWM
*SFR* 000000C8H.0 DATA     BIT       CM_RL2
*SFR* 000000D0H.7 DATA     BIT       CY
*SFR* 00000083H   DATA     BYTE      DPH
*SFR* 00000082H   DATA     BYTE      DPL
*SFR* 000000A8H.7 DATA     BIT       EA
*SFR* 000000A8H.6 DATA     BIT       EADC
*SFR* 000000A8H.5 DATA     BIT       EBOD
*SFR* 0000009BH   DATA     BYTE      EIE
*SFR* 0000009CH   DATA     BYTE      EIE1
*SFR* 000000EFH   DATA     BYTE      EIP
*SFR* 000000FEH   DATA     BYTE      EIP1
*SFR* 000000CEH   DATA     BYTE      EIP2
*SFR* 000000F7H   DATA     BYTE      EIPH
*SFR* 000000FFH   DATA     BYTE      EIPH1
*SFR* 000000CFH   DATA     BYTE      EIPH2
      01000C09H   CODE     ---       Enable_UART0_VCOM_printf_24M_115200
*SFR* 000000A8H.4 DATA     BIT       ES
*SFR* 000000A8H.1 DATA     BIT       ET0
*SFR* 000000A8H.3 DATA     BIT       ET1
*SFR* 000000E8H.4 DATA     BIT       ETGSEL0
*SFR* 000000E8H.5 DATA     BIT       ETGSEL1
*SFR* 000000A8H.0 DATA     BIT       EX0
*SFR* 000000A8H.2 DATA     BIT       EX1
*SFR* 000000D0H.5 DATA     BIT       F0
*SFR* 00000098H.7 DATA     BIT       FE
*SFR* 000000F8H.7 DATA     BIT       FE_1
*SFR* 000000C1H   DATA     BYTE      I2ADDR
*SFR* 000000C0H.6 DATA     BIT       I2CEN
LX51 LINKER/LOCATER V4.66.97.0                                                        10/09/2022  21:02:01  PAGE 5


*SFR* 000000BEH   DATA     BYTE      I2CLK
*SFR* 000000C0H   DATA     BYTE      I2CON
*SFR* 000000C0H.0 DATA     BIT       I2CPX
*SFR* 000000BCH   DATA     BYTE      I2DAT
*SFR* 000000BDH   DATA     BYTE      I2STAT
*SFR* 000000BFH   DATA     BYTE      I2TOC
*SFR* 000000A7H   DATA     BYTE      IAPAH
*SFR* 000000A6H   DATA     BYTE      IAPAL
*SFR* 000000AFH   DATA     BYTE      IAPCN
*SFR* 000000AEH   DATA     BYTE      IAPFD
*SFR* 000000A4H   DATA     BYTE      IAPTRG
*SFR* 000000A5H   DATA     BYTE      IAPUEN
*SFR* 000000A8H   DATA     BYTE      IE
*SFR* 00000088H.1 DATA     BIT       IE0
*SFR* 00000088H.3 DATA     BIT       IE1
*SFR* 000000B8H   DATA     BYTE      IP
*SFR* 000000B7H   DATA     BYTE      IPH
*SFR* 00000088H.0 DATA     BIT       IT0
*SFR* 00000088H.2 DATA     BIT       IT1
*SFR* 000000D8H.6 DATA     BIT       LOAD
*SFR* 000000FFH   DATA     BYTE      LVRDIS
      01000026H   CODE     ---       main
*SFR* 00000080H.1 DATA     BIT       MISO
*SFR* 00000080H.0 DATA     BIT       MOSI
*SFR* 000000D0H.2 DATA     BIT       OV
*SFR* 000000D0H.0 DATA     BIT       P
*SFR* 00000080H   DATA     BYTE      P0
*SFR* 00000080H.0 DATA     BIT       P00
*SFR* 00000080H.1 DATA     BIT       P01
*SFR* 00000080H.2 DATA     BIT       P02
*SFR* 00000080H.3 DATA     BIT       P03
*SFR* 00000080H.4 DATA     BIT       P04
*SFR* 00000080H.5 DATA     BIT       P05
*SFR* 00000080H.6 DATA     BIT       P06
*SFR* 00000080H.7 DATA     BIT       P07
*SFR* 0000009AH   DATA     BYTE      P0DW
*SFR* 000000B1H   DATA     BYTE      P0M1
*SFR* 000000B2H   DATA     BYTE      P0M2
*SFR* 000000B1H   DATA     BYTE      P0S
*SFR* 000000B2H   DATA     BYTE      P0SR
*SFR* 00000092H   DATA     BYTE      P0UP
*SFR* 00000090H   DATA     BYTE      P1
*SFR* 00000090H.0 DATA     BIT       P10
*SFR* 00000090H.1 DATA     BIT       P11
*SFR* 00000090H.2 DATA     BIT       P12
*SFR* 00000090H.3 DATA     BIT       P13
*SFR* 00000090H.4 DATA     BIT       P14
*SFR* 00000090H.5 DATA     BIT       P15
*SFR* 00000090H.6 DATA     BIT       P16
*SFR* 00000090H.7 DATA     BIT       P17
*SFR* 0000009BH   DATA     BYTE      P1DW
*SFR* 000000B3H   DATA     BYTE      P1M1
*SFR* 000000B4H   DATA     BYTE      P1M2
*SFR* 000000B3H   DATA     BYTE      P1S
*SFR* 000000B4H   DATA     BYTE      P1SR
*SFR* 00000093H   DATA     BYTE      P1UP
*SFR* 000000A0H   DATA     BYTE      P2
*SFR* 000000A0H.0 DATA     BIT       P20
*SFR* 0000009CH   DATA     BYTE      P2DW
*SFR* 00000089H   DATA     BYTE      P2M1
*SFR* 0000008AH   DATA     BYTE      P2M2
*SFR* 0000008CH   DATA     BYTE      P2S
*SFR* 0000008BH   DATA     BYTE      P2SR
*SFR* 00000094H   DATA     BYTE      P2UP
*SFR* 000000B0H   DATA     BYTE      P3
LX51 LINKER/LOCATER V4.66.97.0                                                        10/09/2022  21:02:01  PAGE 6


*SFR* 000000B0H.0 DATA     BIT       P30
*SFR* 000000B0H.1 DATA     BIT       P31
*SFR* 000000B0H.2 DATA     BIT       P32
*SFR* 000000B0H.3 DATA     BIT       P33
*SFR* 000000B0H.4 DATA     BIT       P34
*SFR* 000000B0H.5 DATA     BIT       P35
*SFR* 000000B0H.6 DATA     BIT       P36
*SFR* 000000B0H.7 DATA     BIT       P37
*SFR* 0000009DH   DATA     BYTE      P3DW
*SFR* 000000ACH   DATA     BYTE      P3M1
*SFR* 000000ADH   DATA     BYTE      P3M2
*SFR* 000000ACH   DATA     BYTE      P3S
*SFR* 000000ADH   DATA     BYTE      P3SR
*SFR* 00000095H   DATA     BYTE      P3UP
*SFR* 000000B8H.6 DATA     BIT       PADC
*SFR* 000000B8H.5 DATA     BIT       PBOD
*SFR* 00000087H   DATA     BYTE      PCON
*SFR* 000000E9H   DATA     BYTE      PICON
*SFR* 000000ECH   DATA     BYTE      PIF
*SFR* 000000EAH   DATA     BYTE      PINEN
*SFR* 000000DEH   DATA     BYTE      PIOCON0
*SFR* 000000C6H   DATA     BYTE      PIOCON1
*SFR* 000000B7H   DATA     BYTE      PIOCON2
*SFR* 000000EBH   DATA     BYTE      PIPEN
*SFR* 000000F9H   DATA     BYTE      PIPS0
*SFR* 000000FAH   DATA     BYTE      PIPS1
*SFR* 000000FBH   DATA     BYTE      PIPS2
*SFR* 000000FCH   DATA     BYTE      PIPS3
*SFR* 000000FDH   DATA     BYTE      PIPS4
*SFR* 000000FEH   DATA     BYTE      PIPS5
*SFR* 000000FFH   DATA     BYTE      PIPS6
*SFR* 000000F7H   DATA     BYTE      PIPS7
*SFR* 000000D6H   DATA     BYTE      PNP
*SFR* 000000FDH   DATA     BYTE      PORDIS
      00000021H.1 BIT      BIT       PRINTFG
*SFR* 000000B8H.4 DATA     BIT       PS
*SFR* 000000D0H   DATA     BYTE      PSW
*SFR* 000000B8H.1 DATA     BIT       PT0
*SFR* 000000B8H.3 DATA     BIT       PT1
*SFR* 000000D2H   DATA     BYTE      PWM0C0H
*SFR* 000000DAH   DATA     BYTE      PWM0C0L
*SFR* 000000D3H   DATA     BYTE      PWM0C1H
*SFR* 000000DBH   DATA     BYTE      PWM0C1L
*SFR* 000000D4H   DATA     BYTE      PWM0C2H
*SFR* 000000DCH   DATA     BYTE      PWM0C2L
*SFR* 000000D5H   DATA     BYTE      PWM0C3H
*SFR* 000000DDH   DATA     BYTE      PWM0C3L
*SFR* 000000C4H   DATA     BYTE      PWM0C4H
*SFR* 000000CCH   DATA     BYTE      PWM0C4L
*SFR* 000000C5H   DATA     BYTE      PWM0C5H
*SFR* 000000CDH   DATA     BYTE      PWM0C5L
*SFR* 000000D8H   DATA     BYTE      PWM0CON0
*SFR* 000000DFH   DATA     BYTE      PWM0CON1
*SFR* 000000FAH   DATA     BYTE      PWM0DTCNT
*SFR* 000000F9H   DATA     BYTE      PWM0DTEN
*SFR* 000000D7H   DATA     BYTE      PWM0FBD
*SFR* 000000B7H   DATA     BYTE      PWM0INTC
*SFR* 000000FCH   DATA     BYTE      PWM0MD
*SFR* 000000FBH   DATA     BYTE      PWM0MEN
*SFR* 000000D1H   DATA     BYTE      PWM0PH
*SFR* 000000D9H   DATA     BYTE      PWM0PL
*SFR* 000000AAH   DATA     BYTE      PWM1C0H
*SFR* 000000B2H   DATA     BYTE      PWM1C0L
*SFR* 000000ABH   DATA     BYTE      PWM1C1H
*SFR* 000000B3H   DATA     BYTE      PWM1C1L
LX51 LINKER/LOCATER V4.66.97.0                                                        10/09/2022  21:02:01  PAGE 7


*SFR* 000000B4H   DATA     BYTE      PWM1CON0
*SFR* 000000B5H   DATA     BYTE      PWM1CON1
*SFR* 000000B6H   DATA     BYTE      PWM1INTC
*SFR* 000000ACH   DATA     BYTE      PWM1MD
*SFR* 000000ADH   DATA     BYTE      PWM1MEN
*SFR* 000000A9H   DATA     BYTE      PWM1PH
*SFR* 000000B1H   DATA     BYTE      PWM1PL
*SFR* 000000BAH   DATA     BYTE      PWM2C0H
*SFR* 000000C2H   DATA     BYTE      PWM2C0L
*SFR* 000000BBH   DATA     BYTE      PWM2C1H
*SFR* 000000C3H   DATA     BYTE      PWM2C1L
*SFR* 000000C4H   DATA     BYTE      PWM2CON0
*SFR* 000000C5H   DATA     BYTE      PWM2CON1
*SFR* 000000C6H   DATA     BYTE      PWM2INTC
*SFR* 000000BCH   DATA     BYTE      PWM2MD
*SFR* 000000BDH   DATA     BYTE      PWM2MEN
*SFR* 000000B9H   DATA     BYTE      PWM2PH
*SFR* 000000C1H   DATA     BYTE      PWM2PL
*SFR* 000000CAH   DATA     BYTE      PWM3C0H
*SFR* 000000D2H   DATA     BYTE      PWM3C0L
*SFR* 000000CBH   DATA     BYTE      PWM3C1H
*SFR* 000000D3H   DATA     BYTE      PWM3C1L
*SFR* 000000D4H   DATA     BYTE      PWM3CON0
*SFR* 000000D5H   DATA     BYTE      PWM3CON1
*SFR* 000000D6H   DATA     BYTE      PWM3INTC
*SFR* 000000CCH   DATA     BYTE      PWM3MD
*SFR* 000000CDH   DATA     BYTE      PWM3MEN
*SFR* 000000C9H   DATA     BYTE      PWM3PH
*SFR* 000000D1H   DATA     BYTE      PWM3PL
*SFR* 000000D8H.5 DATA     BIT       PWMF
*SFR* 000000D8H.7 DATA     BIT       PWMRUN
*SFR* 000000B8H.0 DATA     BIT       PX0
*SFR* 000000B8H.2 DATA     BIT       PX1
*SFR* 00000098H.2 DATA     BIT       RB8
*SFR* 000000F8H.2 DATA     BIT       RB8_1
*SFR* 000000CBH   DATA     BYTE      RCMP2H
*SFR* 000000CAH   DATA     BYTE      RCMP2L
*SFR* 00000084H   DATA     BYTE      RCTRIM0
*SFR* 00000085H   DATA     BYTE      RCTRIM1
*SFR* 00000098H.4 DATA     BIT       REN
*SFR* 000000F8H.4 DATA     BIT       REN_1
*SFR* 000000C6H   DATA     BYTE      RH3
*SFR* 00000098H.0 DATA     BIT       RI
*SFR* 000000F8H.0 DATA     BIT       RI_1
*SFR* 000000C5H   DATA     BYTE      RL3
*SFR* 000000D0H.3 DATA     BIT       RS0
*SFR* 000000D0H.4 DATA     BIT       RS1
*SFR* 00000097H   DATA     BYTE      RWKH
*SFR* 00000086H   DATA     BYTE      RWKL
*SFR* 00000080H.7 DATA     BIT       RXD
*SFR* 00000080H.2 DATA     BIT       RXD_1
*SFR* 000000A9H   DATA     BYTE      SADDR
*SFR* 000000BBH   DATA     BYTE      SADDR_1
*SFR* 000000B9H   DATA     BYTE      SADEN
*SFR* 000000BAH   DATA     BYTE      SADEN_1
*SFR* 00000099H   DATA     BYTE      SBUF
*SFR* 0000009AH   DATA     BYTE      SBUF_1
*SFR* 000000F1H   DATA     BYTE      SC0CR0
*SFR* 000000F2H   DATA     BYTE      SC0CR1
*SFR* 000000D9H   DATA     BYTE      SC0DR
*SFR* 000000DAH   DATA     BYTE      SC0EGT
*SFR* 000000DBH   DATA     BYTE      SC0ETURD0
*SFR* 000000DCH   DATA     BYTE      SC0ETURD1
*SFR* 000000DDH   DATA     BYTE      SC0IE
*SFR* 000000DEH   DATA     BYTE      SC0IS
LX51 LINKER/LOCATER V4.66.97.0                                                        10/09/2022  21:02:01  PAGE 8


*SFR* 000000DFH   DATA     BYTE      SC0TSR
*SFR* 000000F3H   DATA     BYTE      SC1CR0
*SFR* 000000F4H   DATA     BYTE      SC1CR1
*SFR* 000000E1H   DATA     BYTE      SC1DR
*SFR* 000000E2H   DATA     BYTE      SC1EGT
*SFR* 000000E3H   DATA     BYTE      SC1ETURD0
*SFR* 000000E4H   DATA     BYTE      SC1ETURD1
*SFR* 000000E5H   DATA     BYTE      SC1IE
*SFR* 000000E6H   DATA     BYTE      SC1IS
*SFR* 000000E7H   DATA     BYTE      SC1TSR
*SFR* 000000F5H   DATA     BYTE      SC2CR0
*SFR* 000000F6H   DATA     BYTE      SC2CR1
*SFR* 000000E9H   DATA     BYTE      SC2DR
*SFR* 000000EAH   DATA     BYTE      SC2EGT
*SFR* 000000EBH   DATA     BYTE      SC2ETURD0
*SFR* 000000ECH   DATA     BYTE      SC2ETURD1
*SFR* 000000EDH   DATA     BYTE      SC2IE
*SFR* 000000EEH   DATA     BYTE      SC2IS
*SFR* 000000EFH   DATA     BYTE      SC2TSR
*SFR* 00000090H.3 DATA     BIT       SCL
*SFR* 00000098H   DATA     BYTE      SCON
*SFR* 000000F8H   DATA     BYTE      SCON_1
*SFR* 00000090H.4 DATA     BIT       SDA
      01000003H   CODE     ---       Serial_ISR
      01000BBAH   CODE     ---       SerialPort1_ISR
*SFR* 00000091H   DATA     BYTE      SFRS
*SFR* 000000C0H.3 DATA     BIT       SI
*SFR* 00000098H.7 DATA     BIT       SM0
*SFR* 000000F8H.7 DATA     BIT       SM0_1
*SFR* 00000098H.6 DATA     BIT       SM1
*SFR* 000000F8H.6 DATA     BIT       SM1_1
*SFR* 00000098H.5 DATA     BIT       SM2
*SFR* 000000F8H.5 DATA     BIT       SM2_1
*SFR* 00000081H   DATA     BYTE      SP
*SFR* 000000F3H   DATA     BYTE      SPCR
*SFR* 000000F3H   DATA     BYTE      SPCR2
*SFR* 000000F5H   DATA     BYTE      SPDR
*SFR* 000000F4H   DATA     BYTE      SPSR
*SFR* 000000C0H.5 DATA     BIT       STA
*SFR* 00000080H.4 DATA     BIT       STADC
*SFR* 000000C0H.4 DATA     BIT       STO
*SFR* 000000C8H   DATA     BYTE      T2CON
*SFR* 000000C9H   DATA     BYTE      T2MOD
*SFR* 000000C4H   DATA     BYTE      T3CON
*SFR* 000000C7H   DATA     BYTE      TA
*SFR* 00000098H.3 DATA     BIT       TB8
*SFR* 000000F8H.3 DATA     BIT       TB8_1
*SFR* 00000088H   DATA     BYTE      TCON
*SFR* 00000088H.5 DATA     BIT       TF0
*SFR* 00000088H.7 DATA     BIT       TF1
*SFR* 000000C8H.7 DATA     BIT       TF2
*SFR* 0000008CH   DATA     BYTE      TH0
*SFR* 0000008DH   DATA     BYTE      TH1
*SFR* 000000CDH   DATA     BYTE      TH2
*SFR* 00000098H.1 DATA     BIT       TI
*SFR* 000000F8H.1 DATA     BIT       TI_1
*SFR* 0000008AH   DATA     BYTE      TL0
*SFR* 0000008BH   DATA     BYTE      TL1
*SFR* 000000CCH   DATA     BYTE      TL2
*SFR* 00000089H   DATA     BYTE      TMOD
*SFR* 000000B5H   DATA     BYTE      TOE
*SFR* 00000088H.4 DATA     BIT       TR0
*SFR* 00000088H.6 DATA     BIT       TR1
*SFR* 000000C8H.2 DATA     BIT       TR2
*SFR* 00000080H.6 DATA     BIT       TXD
LX51 LINKER/LOCATER V4.66.97.0                                                        10/09/2022  21:02:01  PAGE 9


*SFR* 00000090H.6 DATA     BIT       TXD_1
      02000028H   XDATA    BYTE      uart0_receive_data
      00000021H.2 BIT      BIT       uart0_receive_flag
      02000029H   XDATA    BYTE      uart1_receive_data
      00000021H.3 BIT      BIT       uart1_receive_flag
*SFR* 000000AAH   DATA     BYTE      WDCON
*SFR* 0000008FH   DATA     BYTE      WKCON
*SFR* 000000D7H   DATA     BYTE      XTLCON



UNRESOLVED EXTERNAL SYMBOLS:
   BIT_TMP



SYMBOL TABLE OF MODULE:  .\Output\Project (HELLOWORLD)

      VALUE       REP       CLASS    TYPE      SYMBOL NAME
      ====================================================
      ---         MODULE    ---      ---       HELLOWORLD
      01000026H   PUBLIC    CODE     ---       main
      000000E3H   SFRSYM    DATA     BYTE      SC1ETURD0
      000000DCH   SFRSYM    DATA     BYTE      SC0ETURD1
      000000B1H   SFRSYM    DATA     BYTE      P0M1
      00000080H.2 SFRSYM    DATA     BIT       RXD_1
      000000EBH   SFRSYM    DATA     BYTE      SC2ETURD0
      000000E4H   SFRSYM    DATA     BYTE      SC1ETURD1
      000000B3H   SFRSYM    DATA     BYTE      P1M1
      000000B2H   SFRSYM    DATA     BYTE      P0M2
      00000080H   SFRSYM    DATA     BYTE      P0
      000000ECH   SFRSYM    DATA     BYTE      SC2ETURD1
      00000089H   SFRSYM    DATA     BYTE      P2M1
      000000BBH   SFRSYM    DATA     BYTE      SADDR_1
      000000B4H   SFRSYM    DATA     BYTE      P1M2
      00000090H   SFRSYM    DATA     BYTE      P1
      00000090H.6 SFRSYM    DATA     BIT       TXD_1
      000000C0H.2 SFRSYM    DATA     BIT       AA
      0000008AH   SFRSYM    DATA     BYTE      P2M2
      000000ACH   SFRSYM    DATA     BYTE      P3M1
      000000A0H   SFRSYM    DATA     BYTE      P2
      000000B0H   SFRSYM    DATA     BYTE      P3
      000000ADH   SFRSYM    DATA     BYTE      P3M2
      000000D0H.6 SFRSYM    DATA     BIT       AC
      0000008FH   SFRSYM    DATA     BYTE      WKCON
      00000084H   SFRSYM    DATA     BYTE      RCTRIM0
      0000009CH   SFRSYM    DATA     BYTE      EIE1
      00000085H   SFRSYM    DATA     BYTE      RCTRIM1
      000000A8H.7 SFRSYM    DATA     BIT       EA
      000000FBH   SFRSYM    DATA     BYTE      PWM0MEN
      000000ADH   SFRSYM    DATA     BYTE      PWM1MEN
      000000BDH   SFRSYM    DATA     BYTE      PWM2MEN
      000000CDH   SFRSYM    DATA     BYTE      PWM3MEN
      00000098H.7 SFRSYM    DATA     BIT       FE
      000000F1H   SFRSYM    DATA     BYTE      SC0CR0
      000000A8H.6 SFRSYM    DATA     BIT       EADC
      000000F3H   SFRSYM    DATA     BYTE      SC1CR0
      000000F2H   SFRSYM    DATA     BYTE      SC0CR1
      000000A8H   SFRSYM    DATA     BYTE      IE
      00000096H   SFRSYM    DATA     BYTE      CKSWT
      000000E8H.7 SFRSYM    DATA     BIT       ADCF
      000000F5H   SFRSYM    DATA     BYTE      SC2CR0
      000000F4H   SFRSYM    DATA     BYTE      SC1CR1
      000000F6H   SFRSYM    DATA     BYTE      SC2CR1
      000000FEH   SFRSYM    DATA     BYTE      EIP1
LX51 LINKER/LOCATER V4.66.97.0                                                        10/09/2022  21:02:01  PAGE 10


      000000CEH   SFRSYM    DATA     BYTE      EIP2
      000000E8H.0 SFRSYM    DATA     BIT       ADCHS0
      00000085H   SFRSYM    DATA     BYTE      ADCBAH
      000000C7H   SFRSYM    DATA     BYTE      TA
      000000E8H.1 SFRSYM    DATA     BIT       ADCHS1
      000000E8H.2 SFRSYM    DATA     BIT       ADCHS2
      000000A8H.4 SFRSYM    DATA     BIT       ES
      000000E8H.3 SFRSYM    DATA     BIT       ADCHS3
      000000C1H   SFRSYM    DATA     BYTE      I2ADDR
      000000B8H.6 SFRSYM    DATA     BIT       PADC
      00000084H   SFRSYM    DATA     BYTE      ADCBAL
      000000B8H   SFRSYM    DATA     BYTE      IP
      00000098H.0 SFRSYM    DATA     BIT       RI
      000000A8H.5 SFRSYM    DATA     BIT       EBOD
      000000C0H.3 SFRSYM    DATA     BIT       SI
      000000D0H.7 SFRSYM    DATA     BIT       CY
      000000E8H.6 SFRSYM    DATA     BIT       ADCS
      000000F8H.7 SFRSYM    DATA     BIT       FE_1
      0000009AH   SFRSYM    DATA     BYTE      P0DW
      00000098H.1 SFRSYM    DATA     BIT       TI
      0000009BH   SFRSYM    DATA     BYTE      P1DW
      0000009CH   SFRSYM    DATA     BYTE      P2DW
      0000009DH   SFRSYM    DATA     BYTE      P3DW
      000000D8H.6 SFRSYM    DATA     BIT       LOAD
      00000097H   SFRSYM    DATA     BYTE      CKEN
      000000B8H.4 SFRSYM    DATA     BIT       PS
      00000081H   SFRSYM    DATA     BYTE      SP
      000000D0H.2 SFRSYM    DATA     BIT       OV
      000000FAH   SFRSYM    DATA     BYTE      PWM0DTCNT
      000000B8H.5 SFRSYM    DATA     BIT       PBOD
      00000092H   SFRSYM    DATA     BYTE      P0UP
      000000B2H   SFRSYM    DATA     BYTE      P0SR
      00000093H   SFRSYM    DATA     BYTE      P1UP
      000000B4H   SFRSYM    DATA     BYTE      P1SR
      000000F7H   SFRSYM    DATA     BYTE      EIPH
      000000DAH   SFRSYM    DATA     BYTE      SC0EGT
      00000094H   SFRSYM    DATA     BYTE      P2UP
      0000008BH   SFRSYM    DATA     BYTE      P2SR
      000000E2H   SFRSYM    DATA     BYTE      SC1EGT
      00000095H   SFRSYM    DATA     BYTE      P3UP
      000000ADH   SFRSYM    DATA     BYTE      P3SR
      000000EAH   SFRSYM    DATA     BYTE      SC2EGT
      000000F8H.0 SFRSYM    DATA     BIT       RI_1
      000000F8H.1 SFRSYM    DATA     BIT       TI_1
      000000CBH   SFRSYM    DATA     BYTE      RCMP2H
      000000F6H   SFRSYM    DATA     BYTE      AINDIDS0
      000000CFH   SFRSYM    DATA     BYTE      ADCMPH
      00000080H.0 SFRSYM    DATA     BIT       P00
      00000099H   SFRSYM    DATA     BYTE      AINDIDS1
      00000080H.1 SFRSYM    DATA     BIT       P01
      00000090H.0 SFRSYM    DATA     BIT       P10
      00000099H   SFRSYM    DATA     BYTE      SBUF
      00000087H   SFRSYM    DATA     BYTE      PCON
      00000080H.2 SFRSYM    DATA     BIT       P02
      00000090H.1 SFRSYM    DATA     BIT       P11
      000000A0H.0 SFRSYM    DATA     BIT       P20
      000000CAH   SFRSYM    DATA     BYTE      RCMP2L
      00000080H.3 SFRSYM    DATA     BIT       P03
      00000090H.2 SFRSYM    DATA     BIT       P12
      000000B0H.0 SFRSYM    DATA     BIT       P30
      000000E3H   SFRSYM    DATA     BYTE      ADCDLY
      000000CEH   SFRSYM    DATA     BYTE      ADCMPL
      00000080H.4 SFRSYM    DATA     BIT       P04
      00000090H.3 SFRSYM    DATA     BIT       P13
      000000B0H.1 SFRSYM    DATA     BIT       P31
LX51 LINKER/LOCATER V4.66.97.0                                                        10/09/2022  21:02:01  PAGE 11


      00000098H   SFRSYM    DATA     BYTE      SCON
      00000080H.5 SFRSYM    DATA     BIT       P05
      00000090H.4 SFRSYM    DATA     BIT       P14
      000000B0H.2 SFRSYM    DATA     BIT       P32
      00000089H   SFRSYM    DATA     BYTE      TMOD
      00000088H   SFRSYM    DATA     BYTE      TCON
      00000080H.6 SFRSYM    DATA     BIT       P06
      00000090H.5 SFRSYM    DATA     BIT       P15
      000000B0H.3 SFRSYM    DATA     BIT       P33
      00000080H.7 SFRSYM    DATA     BIT       P07
      00000090H.6 SFRSYM    DATA     BIT       P16
      000000B0H.4 SFRSYM    DATA     BIT       P34
      000000FCH   SFRSYM    DATA     BYTE      PWM0MD
      000000D8H   SFRSYM    DATA     BYTE      PWM0CON0
      00000090H.7 SFRSYM    DATA     BIT       P17
      000000B0H.5 SFRSYM    DATA     BIT       P35
      000000B4H   SFRSYM    DATA     BYTE      PWM1CON0
      000000ACH   SFRSYM    DATA     BYTE      PWM1MD
      000000DFH   SFRSYM    DATA     BYTE      PWM0CON1
      00000080H.0 SFRSYM    DATA     BIT       MOSI
      00000080H.1 SFRSYM    DATA     BIT       MISO
      000000B0H.6 SFRSYM    DATA     BIT       P36
      000000C4H   SFRSYM    DATA     BYTE      PWM2CON0
      000000BCH   SFRSYM    DATA     BYTE      PWM2MD
      000000B5H   SFRSYM    DATA     BYTE      PWM1CON1
      000000F3H   SFRSYM    DATA     BYTE      SPCR
      000000BDH   SFRSYM    DATA     BYTE      I2STAT
      000000B0H.7 SFRSYM    DATA     BIT       P37
      000000D4H   SFRSYM    DATA     BYTE      PWM3CON0
      000000CCH   SFRSYM    DATA     BYTE      PWM3MD
      000000C5H   SFRSYM    DATA     BYTE      PWM2CON1
      000000F5H   SFRSYM    DATA     BYTE      SPDR
      000000D8H.5 SFRSYM    DATA     BIT       PWMF
      000000D5H   SFRSYM    DATA     BYTE      PWM3CON1
      000000E5H   SFRSYM    DATA     BYTE      C0H
      000000E7H   SFRSYM    DATA     BYTE      C1H
      00000097H   SFRSYM    DATA     BYTE      RWKH
      000000EEH   SFRSYM    DATA     BYTE      C2H
      0000009FH   SFRSYM    DATA     BYTE      CHPCON
      00000088H.1 SFRSYM    DATA     BIT       IE0
      000000D1H   SFRSYM    DATA     BYTE      PWM0PH
      00000088H.3 SFRSYM    DATA     BIT       IE1
      000000A9H   SFRSYM    DATA     BYTE      PWM1PH
      000000E4H   SFRSYM    DATA     BYTE      C0L
      00000091H   SFRSYM    DATA     BYTE      SFRS
      000000B9H   SFRSYM    DATA     BYTE      PWM2PH
      000000E6H   SFRSYM    DATA     BYTE      C1L
      000000C8H.0 SFRSYM    DATA     BIT       CM_RL2
      000000DFH   SFRSYM    DATA     BYTE      SC0TSR
      000000C9H   SFRSYM    DATA     BYTE      PWM3PH
      000000F0H   SFRSYM    DATA     BYTE      B
      000000EDH   SFRSYM    DATA     BYTE      C2L
      00000086H   SFRSYM    DATA     BYTE      RWKL
      000000E7H   SFRSYM    DATA     BYTE      SC1TSR
      000000D9H   SFRSYM    DATA     BYTE      PWM0PL
      0000009AH   SFRSYM    DATA     BYTE      SBUF_1
      000000EFH   SFRSYM    DATA     BYTE      SC2TSR
      000000B1H   SFRSYM    DATA     BYTE      PWM1PL
      000000C1H   SFRSYM    DATA     BYTE      PWM2PL
      000000A5H   SFRSYM    DATA     BYTE      IAPUEN
      000000D1H   SFRSYM    DATA     BYTE      PWM3PL
      000000F8H   SFRSYM    DATA     BYTE      SCON_1
      000000E0H   SFRSYM    DATA     BYTE      ACC
      000000A8H.1 SFRSYM    DATA     BIT       ET0
      000000F4H   SFRSYM    DATA     BYTE      SPSR
LX51 LINKER/LOCATER V4.66.97.0                                                        10/09/2022  21:02:01  PAGE 12


      000000A4H   SFRSYM    DATA     BYTE      IAPTRG
      00000088H.5 SFRSYM    DATA     BIT       TF0
      000000A8H.3 SFRSYM    DATA     BIT       ET1
      00000088H.7 SFRSYM    DATA     BIT       TF1
      00000098H.2 SFRSYM    DATA     BIT       RB8
      000000C8H.7 SFRSYM    DATA     BIT       TF2
      0000008CH   SFRSYM    DATA     BYTE      TH0
      00000088H.0 SFRSYM    DATA     BIT       IT0
      000000A8H.0 SFRSYM    DATA     BIT       EX0
      000000C6H   SFRSYM    DATA     BYTE      RH3
      0000008DH   SFRSYM    DATA     BYTE      TH1
      00000088H.2 SFRSYM    DATA     BIT       IT1
      00000098H.3 SFRSYM    DATA     BIT       TB8
      000000A8H.2 SFRSYM    DATA     BIT       EX1
      000000CDH   SFRSYM    DATA     BYTE      TH2
      000000D0H.0 SFRSYM    DATA     BIT       P
      00000098H.7 SFRSYM    DATA     BIT       SM0
      0000008AH   SFRSYM    DATA     BYTE      TL0
      00000098H.6 SFRSYM    DATA     BIT       SM1
      000000C5H   SFRSYM    DATA     BYTE      RL3
      0000008BH   SFRSYM    DATA     BYTE      TL1
      00000098H.5 SFRSYM    DATA     BIT       SM2
      000000C0H.6 SFRSYM    DATA     BIT       I2CEN
      000000F9H   SFRSYM    DATA     BYTE      PWM0DTEN
      000000CCH   SFRSYM    DATA     BYTE      TL2
      000000B1H   SFRSYM    DATA     BYTE      P0S
      000000FDH   SFRSYM    DATA     BYTE      PORDIS
      0000009BH   SFRSYM    DATA     BYTE      EIE
      000000B8H.1 SFRSYM    DATA     BIT       PT0
      000000B3H   SFRSYM    DATA     BYTE      P1S
      000000B8H.3 SFRSYM    DATA     BIT       PT1
      000000D0H.3 SFRSYM    DATA     BIT       RS0
      000000DDH   SFRSYM    DATA     BYTE      SC0IE
      0000008CH   SFRSYM    DATA     BYTE      P2S
      000000B7H   SFRSYM    DATA     BYTE      PWM0INTC
      000000BCH   SFRSYM    DATA     BYTE      I2DAT
      00000088H.4 SFRSYM    DATA     BIT       TR0
      000000D0H.4 SFRSYM    DATA     BIT       RS1
      000000E5H   SFRSYM    DATA     BYTE      SC1IE
      000000B6H   SFRSYM    DATA     BYTE      PWM1INTC
      000000FFH   SFRSYM    DATA     BYTE      LVRDIS
      000000ACH   SFRSYM    DATA     BYTE      P3S
      000000BEH   SFRSYM    DATA     BYTE      I2CLK
      00000088H.6 SFRSYM    DATA     BIT       TR1
      000000D8H.4 SFRSYM    DATA     BIT       CLRPWM
      000000EDH   SFRSYM    DATA     BYTE      SC2IE
      000000C6H   SFRSYM    DATA     BYTE      PWM2INTC
      00000090H.4 SFRSYM    DATA     BIT       SDA
      000000B8H.0 SFRSYM    DATA     BIT       PX0
      000000C8H.2 SFRSYM    DATA     BIT       TR2
      000000D6H   SFRSYM    DATA     BYTE      PWM3INTC
      000000FFH   SFRSYM    DATA     BYTE      EIPH1
      000000B8H.2 SFRSYM    DATA     BIT       PX1
      000000CFH   SFRSYM    DATA     BYTE      EIPH2
      000000D7H   SFRSYM    DATA     BYTE      XTLCON
      0000008EH   SFRSYM    DATA     BYTE      ADCCN
      000000E8H   SFRSYM    DATA     BYTE      ADCCON0
      000000E1H   SFRSYM    DATA     BYTE      ADCCON1
      000000E2H   SFRSYM    DATA     BYTE      ADCCON2
      000000C0H   SFRSYM    DATA     BYTE      I2CON
      00000083H   SFRSYM    DATA     BYTE      DPH
      000000F8H.2 SFRSYM    DATA     BIT       RB8_1
      000000D9H   SFRSYM    DATA     BYTE      SC0DR
      00000086H   SFRSYM    DATA     BYTE      ADCCON3
      000000E1H   SFRSYM    DATA     BYTE      SC1DR
LX51 LINKER/LOCATER V4.66.97.0                                                        10/09/2022  21:02:01  PAGE 13


      000000EFH   SFRSYM    DATA     BYTE      EIP
      000000F8H.3 SFRSYM    DATA     BIT       TB8_1
      000000E9H   SFRSYM    DATA     BYTE      SC2DR
      000000ECH   SFRSYM    DATA     BYTE      PIF
      00000082H   SFRSYM    DATA     BYTE      DPL
      000000F8H.7 SFRSYM    DATA     BIT       SM0_1
      000000D2H   SFRSYM    DATA     BYTE      PWM0C0H
      000000B7H   SFRSYM    DATA     BYTE      IPH
      00000090H.3 SFRSYM    DATA     BIT       SCL
      000000F8H.6 SFRSYM    DATA     BIT       SM1_1
      000000AAH   SFRSYM    DATA     BYTE      PWM1C0H
      000000D3H   SFRSYM    DATA     BYTE      PWM0C1H
      000000BFH   SFRSYM    DATA     BYTE      I2TOC
      000000F8H.5 SFRSYM    DATA     BIT       SM2_1
      000000DEH   SFRSYM    DATA     BYTE      SC0IS
      000000BAH   SFRSYM    DATA     BYTE      PWM2C0H
      000000ABH   SFRSYM    DATA     BYTE      PWM1C1H
      000000D4H   SFRSYM    DATA     BYTE      PWM0C2H
      000000C3H   SFRSYM    DATA     BYTE      ADCRH
      000000E6H   SFRSYM    DATA     BYTE      SC1IS
      000000CAH   SFRSYM    DATA     BYTE      PWM3C0H
      000000BBH   SFRSYM    DATA     BYTE      PWM2C1H
      000000D5H   SFRSYM    DATA     BYTE      PWM0C3H
      000000A7H   SFRSYM    DATA     BYTE      IAPAH
      00000098H.4 SFRSYM    DATA     BIT       REN
      000000EEH   SFRSYM    DATA     BYTE      SC2IS
      000000CBH   SFRSYM    DATA     BYTE      PWM3C1H
      000000C4H   SFRSYM    DATA     BYTE      PWM0C4H
      000000DAH   SFRSYM    DATA     BYTE      PWM0C0L
      000000AEH   SFRSYM    DATA     BYTE      IAPFD
      000000B2H   SFRSYM    DATA     BYTE      PWM1C0L
      000000C5H   SFRSYM    DATA     BYTE      PWM0C5H
      000000DBH   SFRSYM    DATA     BYTE      PWM0C1L
      00000092H   SFRSYM    DATA     BYTE      CAPCON0
      000000C0H.0 SFRSYM    DATA     BIT       I2CPX
      000000C2H   SFRSYM    DATA     BYTE      PWM2C0L
      000000B3H   SFRSYM    DATA     BYTE      PWM1C1L
      000000DCH   SFRSYM    DATA     BYTE      PWM0C2L
      000000C9H   SFRSYM    DATA     BYTE      T2MOD
      000000C8H   SFRSYM    DATA     BYTE      T2CON
      000000C2H   SFRSYM    DATA     BYTE      ADCRL
      000000A3H   SFRSYM    DATA     BYTE      BODCON0
      00000093H   SFRSYM    DATA     BYTE      CAPCON1
      000000C0H.5 SFRSYM    DATA     BIT       STA
      000000D2H   SFRSYM    DATA     BYTE      PWM3C0L
      000000C3H   SFRSYM    DATA     BYTE      PWM2C1L
      000000DDH   SFRSYM    DATA     BYTE      PWM0C3L
      000000C4H   SFRSYM    DATA     BYTE      T3CON
      000000B5H   SFRSYM    DATA     BYTE      TOE
      000000ABH   SFRSYM    DATA     BYTE      BODCON1
      000000A6H   SFRSYM    DATA     BYTE      IAPAL
      00000094H   SFRSYM    DATA     BYTE      CAPCON2
      000000D3H   SFRSYM    DATA     BYTE      PWM3C1L
      000000CCH   SFRSYM    DATA     BYTE      PWM0C4L
      000000F1H   SFRSYM    DATA     BYTE      CAPCON3
      0000008DH   SFRSYM    DATA     BYTE      ADCSN
      000000CDH   SFRSYM    DATA     BYTE      PWM0C5L
      000000F2H   SFRSYM    DATA     BYTE      CAPCON4
      000000D8H.7 SFRSYM    DATA     BIT       PWMRUN
      000000F3H   SFRSYM    DATA     BYTE      SPCR2
      000000B9H   SFRSYM    DATA     BYTE      SADEN
      000000AFH   SFRSYM    DATA     BYTE      IAPCN
      000000F9H   SFRSYM    DATA     BYTE      PIPS0
      00000080H.7 SFRSYM    DATA     BIT       RXD
      000000FAH   SFRSYM    DATA     BYTE      PIPS1
LX51 LINKER/LOCATER V4.66.97.0                                                        10/09/2022  21:02:01  PAGE 14


      0000008FH   SFRSYM    DATA     BYTE      ADCSR
      000000D6H   SFRSYM    DATA     BYTE      PNP
      000000FBH   SFRSYM    DATA     BYTE      PIPS2
      000000A9H   SFRSYM    DATA     BYTE      SADDR
      0000008EH   SFRSYM    DATA     BYTE      CKCON
      00000080H.4 SFRSYM    DATA     BIT       STADC
      00000080H.6 SFRSYM    DATA     BIT       TXD
      000000FCH   SFRSYM    DATA     BYTE      PIPS3
      000000FDH   SFRSYM    DATA     BYTE      PIPS4
      000000FEH   SFRSYM    DATA     BYTE      PIPS5
      000000D7H   SFRSYM    DATA     BYTE      PWM0FBD
      000000A2H   SFRSYM    DATA     BYTE      AUXR1
      00000095H   SFRSYM    DATA     BYTE      CKDIV
      000000FFH   SFRSYM    DATA     BYTE      PIPS6
      000000A1H   SFRSYM    DATA     BYTE      AUXR2
      000000F7H   SFRSYM    DATA     BYTE      PIPS7
      000000A2H   SFRSYM    DATA     BYTE      AUXR3
      000000D0H.5 SFRSYM    DATA     BIT       F0
      000000A3H   SFRSYM    DATA     BYTE      AUXR4
      000000C0H.4 SFRSYM    DATA     BIT       STO
      000000E8H.4 SFRSYM    DATA     BIT       ETGSEL0
      000000F8H.4 SFRSYM    DATA     BIT       REN_1
      000000A4H   SFRSYM    DATA     BYTE      AUXR5
      000000E8H.5 SFRSYM    DATA     BIT       ETGSEL1
      000000A5H   SFRSYM    DATA     BYTE      AUXR6
      000000A6H   SFRSYM    DATA     BYTE      AUXR7
      000000A7H   SFRSYM    DATA     BYTE      AUXR8
      000000E9H   SFRSYM    DATA     BYTE      PICON
      000000DEH   SFRSYM    DATA     BYTE      PIOCON0
      000000D0H   SFRSYM    DATA     BYTE      PSW
      000000C6H   SFRSYM    DATA     BYTE      PIOCON1
      000000EAH   SFRSYM    DATA     BYTE      PINEN
      000000B7H   SFRSYM    DATA     BYTE      PIOCON2
      000000AAH   SFRSYM    DATA     BYTE      WDCON
      000000DBH   SFRSYM    DATA     BYTE      SC0ETURD0
      000000EBH   SFRSYM    DATA     BYTE      PIPEN
      000000BAH   SFRSYM    DATA     BYTE      SADEN_1

      01000026H   BLOCK     CODE     ---       LVL=0
      01000026H   LINE      CODE     ---       #16
      01000026H   LINE      CODE     ---       #17
      01000026H   LINE      CODE     ---       #22
      0100002BH   LINE      CODE     ---       #23
      01000034H   LINE      CODE     ---       #24
      0100004CH   LINE      CODE     ---       #25
      01000051H   LINE      CODE     ---       #27
      0100005AH   LINE      CODE     ---       #28
      ---         BLOCKEND  ---      ---       LVL=0

      ---         MODULE    ---      ---       SYS
      010009FFH   PUBLIC    CODE     ---       _ClockSwitch
      01000B4DH   PUBLIC    CODE     ---       _ClockDisable
      01000845H   PUBLIC    CODE     ---       _ClockEnable
      0100093AH   PUBLIC    CODE     ---       _FsysSelect
      01000719H   PUBLIC    CODE     ---       _MODIFY_HIRC
      000000E3H   SFRSYM    DATA     BYTE      SC1ETURD0
      000000DCH   SFRSYM    DATA     BYTE      SC0ETURD1
      000000B1H   SFRSYM    DATA     BYTE      P0M1
      00000080H.2 SFRSYM    DATA     BIT       RXD_1
      000000EBH   SFRSYM    DATA     BYTE      SC2ETURD0
      000000E4H   SFRSYM    DATA     BYTE      SC1ETURD1
      000000B3H   SFRSYM    DATA     BYTE      P1M1
      000000B2H   SFRSYM    DATA     BYTE      P0M2
      00000080H   SFRSYM    DATA     BYTE      P0
      000000ECH   SFRSYM    DATA     BYTE      SC2ETURD1
LX51 LINKER/LOCATER V4.66.97.0                                                        10/09/2022  21:02:01  PAGE 15


      00000089H   SFRSYM    DATA     BYTE      P2M1
      000000BBH   SFRSYM    DATA     BYTE      SADDR_1
      000000B4H   SFRSYM    DATA     BYTE      P1M2
      00000090H   SFRSYM    DATA     BYTE      P1
      00000090H.6 SFRSYM    DATA     BIT       TXD_1
      000000C0H.2 SFRSYM    DATA     BIT       AA
      0000008AH   SFRSYM    DATA     BYTE      P2M2
      000000ACH   SFRSYM    DATA     BYTE      P3M1
      000000A0H   SFRSYM    DATA     BYTE      P2
      000000B0H   SFRSYM    DATA     BYTE      P3
      000000ADH   SFRSYM    DATA     BYTE      P3M2
      000000D0H.6 SFRSYM    DATA     BIT       AC
      0000008FH   SFRSYM    DATA     BYTE      WKCON
      00000084H   SFRSYM    DATA     BYTE      RCTRIM0
      0000009CH   SFRSYM    DATA     BYTE      EIE1
      00000085H   SFRSYM    DATA     BYTE      RCTRIM1
      000000A8H.7 SFRSYM    DATA     BIT       EA
      000000FBH   SFRSYM    DATA     BYTE      PWM0MEN
      000000ADH   SFRSYM    DATA     BYTE      PWM1MEN
      000000BDH   SFRSYM    DATA     BYTE      PWM2MEN
      000000CDH   SFRSYM    DATA     BYTE      PWM3MEN
      00000098H.7 SFRSYM    DATA     BIT       FE
      000000F1H   SFRSYM    DATA     BYTE      SC0CR0
      000000A8H.6 SFRSYM    DATA     BIT       EADC
      000000F3H   SFRSYM    DATA     BYTE      SC1CR0
      000000F2H   SFRSYM    DATA     BYTE      SC0CR1
      000000A8H   SFRSYM    DATA     BYTE      IE
      00000096H   SFRSYM    DATA     BYTE      CKSWT
      000000E8H.7 SFRSYM    DATA     BIT       ADCF
      000000F5H   SFRSYM    DATA     BYTE      SC2CR0
      000000F4H   SFRSYM    DATA     BYTE      SC1CR1
      000000F6H   SFRSYM    DATA     BYTE      SC2CR1
      000000FEH   SFRSYM    DATA     BYTE      EIP1
      000000CEH   SFRSYM    DATA     BYTE      EIP2
      000000E8H.0 SFRSYM    DATA     BIT       ADCHS0
      00000085H   SFRSYM    DATA     BYTE      ADCBAH
      000000C7H   SFRSYM    DATA     BYTE      TA
      000000E8H.1 SFRSYM    DATA     BIT       ADCHS1
      000000E8H.2 SFRSYM    DATA     BIT       ADCHS2
      000000A8H.4 SFRSYM    DATA     BIT       ES
      000000E8H.3 SFRSYM    DATA     BIT       ADCHS3
      000000C1H   SFRSYM    DATA     BYTE      I2ADDR
      000000B8H.6 SFRSYM    DATA     BIT       PADC
      00000084H   SFRSYM    DATA     BYTE      ADCBAL
      000000B8H   SFRSYM    DATA     BYTE      IP
      00000098H.0 SFRSYM    DATA     BIT       RI
      000000A8H.5 SFRSYM    DATA     BIT       EBOD
      000000C0H.3 SFRSYM    DATA     BIT       SI
      000000D0H.7 SFRSYM    DATA     BIT       CY
      000000E8H.6 SFRSYM    DATA     BIT       ADCS
      000000F8H.7 SFRSYM    DATA     BIT       FE_1
      0000009AH   SFRSYM    DATA     BYTE      P0DW
      00000098H.1 SFRSYM    DATA     BIT       TI
      0000009BH   SFRSYM    DATA     BYTE      P1DW
      0000009CH   SFRSYM    DATA     BYTE      P2DW
      0000009DH   SFRSYM    DATA     BYTE      P3DW
      000000D8H.6 SFRSYM    DATA     BIT       LOAD
      00000097H   SFRSYM    DATA     BYTE      CKEN
      000000B8H.4 SFRSYM    DATA     BIT       PS
      00000081H   SFRSYM    DATA     BYTE      SP
      000000D0H.2 SFRSYM    DATA     BIT       OV
      000000FAH   SFRSYM    DATA     BYTE      PWM0DTCNT
      000000B8H.5 SFRSYM    DATA     BIT       PBOD
      00000092H   SFRSYM    DATA     BYTE      P0UP
      000000B2H   SFRSYM    DATA     BYTE      P0SR
LX51 LINKER/LOCATER V4.66.97.0                                                        10/09/2022  21:02:01  PAGE 16


      00000093H   SFRSYM    DATA     BYTE      P1UP
      000000B4H   SFRSYM    DATA     BYTE      P1SR
      000000F7H   SFRSYM    DATA     BYTE      EIPH
      000000DAH   SFRSYM    DATA     BYTE      SC0EGT
      00000094H   SFRSYM    DATA     BYTE      P2UP
      0000008BH   SFRSYM    DATA     BYTE      P2SR
      000000E2H   SFRSYM    DATA     BYTE      SC1EGT
      00000095H   SFRSYM    DATA     BYTE      P3UP
      000000ADH   SFRSYM    DATA     BYTE      P3SR
      000000EAH   SFRSYM    DATA     BYTE      SC2EGT
      000000F8H.0 SFRSYM    DATA     BIT       RI_1
      000000F8H.1 SFRSYM    DATA     BIT       TI_1
      000000CBH   SFRSYM    DATA     BYTE      RCMP2H
      000000F6H   SFRSYM    DATA     BYTE      AINDIDS0
      000000CFH   SFRSYM    DATA     BYTE      ADCMPH
      00000080H.0 SFRSYM    DATA     BIT       P00
      00000099H   SFRSYM    DATA     BYTE      AINDIDS1
      00000080H.1 SFRSYM    DATA     BIT       P01
      00000090H.0 SFRSYM    DATA     BIT       P10
      00000099H   SFRSYM    DATA     BYTE      SBUF
      00000087H   SFRSYM    DATA     BYTE      PCON
      00000080H.2 SFRSYM    DATA     BIT       P02
      00000090H.1 SFRSYM    DATA     BIT       P11
      000000A0H.0 SFRSYM    DATA     BIT       P20
      000000CAH   SFRSYM    DATA     BYTE      RCMP2L
      00000080H.3 SFRSYM    DATA     BIT       P03
      00000090H.2 SFRSYM    DATA     BIT       P12
      000000B0H.0 SFRSYM    DATA     BIT       P30
      000000E3H   SFRSYM    DATA     BYTE      ADCDLY
      000000CEH   SFRSYM    DATA     BYTE      ADCMPL
      00000080H.4 SFRSYM    DATA     BIT       P04
      00000090H.3 SFRSYM    DATA     BIT       P13
      000000B0H.1 SFRSYM    DATA     BIT       P31
      00000098H   SFRSYM    DATA     BYTE      SCON
      00000080H.5 SFRSYM    DATA     BIT       P05
      00000090H.4 SFRSYM    DATA     BIT       P14
      000000B0H.2 SFRSYM    DATA     BIT       P32
      00000089H   SFRSYM    DATA     BYTE      TMOD
      00000088H   SFRSYM    DATA     BYTE      TCON
      00000080H.6 SFRSYM    DATA     BIT       P06
      00000090H.5 SFRSYM    DATA     BIT       P15
      000000B0H.3 SFRSYM    DATA     BIT       P33
      00000080H.7 SFRSYM    DATA     BIT       P07
      00000090H.6 SFRSYM    DATA     BIT       P16
      000000B0H.4 SFRSYM    DATA     BIT       P34
      000000FCH   SFRSYM    DATA     BYTE      PWM0MD
      000000D8H   SFRSYM    DATA     BYTE      PWM0CON0
      00000090H.7 SFRSYM    DATA     BIT       P17
      000000B0H.5 SFRSYM    DATA     BIT       P35
      000000B4H   SFRSYM    DATA     BYTE      PWM1CON0
      000000ACH   SFRSYM    DATA     BYTE      PWM1MD
      000000DFH   SFRSYM    DATA     BYTE      PWM0CON1
      00000080H.0 SFRSYM    DATA     BIT       MOSI
      00000080H.1 SFRSYM    DATA     BIT       MISO
      000000B0H.6 SFRSYM    DATA     BIT       P36
      000000C4H   SFRSYM    DATA     BYTE      PWM2CON0
      000000BCH   SFRSYM    DATA     BYTE      PWM2MD
      000000B5H   SFRSYM    DATA     BYTE      PWM1CON1
      000000F3H   SFRSYM    DATA     BYTE      SPCR
      000000BDH   SFRSYM    DATA     BYTE      I2STAT
      000000B0H.7 SFRSYM    DATA     BIT       P37
      000000D4H   SFRSYM    DATA     BYTE      PWM3CON0
      000000CCH   SFRSYM    DATA     BYTE      PWM3MD
      000000C5H   SFRSYM    DATA     BYTE      PWM2CON1
      000000F5H   SFRSYM    DATA     BYTE      SPDR
LX51 LINKER/LOCATER V4.66.97.0                                                        10/09/2022  21:02:01  PAGE 17


      000000D8H.5 SFRSYM    DATA     BIT       PWMF
      000000D5H   SFRSYM    DATA     BYTE      PWM3CON1
      000000E5H   SFRSYM    DATA     BYTE      C0H
      000000E7H   SFRSYM    DATA     BYTE      C1H
      00000097H   SFRSYM    DATA     BYTE      RWKH
      000000EEH   SFRSYM    DATA     BYTE      C2H
      0000009FH   SFRSYM    DATA     BYTE      CHPCON
      00000088H.1 SFRSYM    DATA     BIT       IE0
      000000D1H   SFRSYM    DATA     BYTE      PWM0PH
      00000088H.3 SFRSYM    DATA     BIT       IE1
      000000A9H   SFRSYM    DATA     BYTE      PWM1PH
      000000E4H   SFRSYM    DATA     BYTE      C0L
      00000091H   SFRSYM    DATA     BYTE      SFRS
      000000B9H   SFRSYM    DATA     BYTE      PWM2PH
      000000E6H   SFRSYM    DATA     BYTE      C1L
      000000C8H.0 SFRSYM    DATA     BIT       CM_RL2
      000000DFH   SFRSYM    DATA     BYTE      SC0TSR
      000000C9H   SFRSYM    DATA     BYTE      PWM3PH
      000000F0H   SFRSYM    DATA     BYTE      B
      000000EDH   SFRSYM    DATA     BYTE      C2L
      00000086H   SFRSYM    DATA     BYTE      RWKL
      000000E7H   SFRSYM    DATA     BYTE      SC1TSR
      000000D9H   SFRSYM    DATA     BYTE      PWM0PL
      0000009AH   SFRSYM    DATA     BYTE      SBUF_1
      000000EFH   SFRSYM    DATA     BYTE      SC2TSR
      000000B1H   SFRSYM    DATA     BYTE      PWM1PL
      000000C1H   SFRSYM    DATA     BYTE      PWM2PL
      000000A5H   SFRSYM    DATA     BYTE      IAPUEN
      000000D1H   SFRSYM    DATA     BYTE      PWM3PL
      000000F8H   SFRSYM    DATA     BYTE      SCON_1
      000000E0H   SFRSYM    DATA     BYTE      ACC
      000000A8H.1 SFRSYM    DATA     BIT       ET0
      000000F4H   SFRSYM    DATA     BYTE      SPSR
      000000A4H   SFRSYM    DATA     BYTE      IAPTRG
      00000088H.5 SFRSYM    DATA     BIT       TF0
      000000A8H.3 SFRSYM    DATA     BIT       ET1
      00000088H.7 SFRSYM    DATA     BIT       TF1
      00000098H.2 SFRSYM    DATA     BIT       RB8
      000000C8H.7 SFRSYM    DATA     BIT       TF2
      0000008CH   SFRSYM    DATA     BYTE      TH0
      00000088H.0 SFRSYM    DATA     BIT       IT0
      000000A8H.0 SFRSYM    DATA     BIT       EX0
      000000C6H   SFRSYM    DATA     BYTE      RH3
      0000008DH   SFRSYM    DATA     BYTE      TH1
      00000088H.2 SFRSYM    DATA     BIT       IT1
      00000098H.3 SFRSYM    DATA     BIT       TB8
      000000A8H.2 SFRSYM    DATA     BIT       EX1
      000000CDH   SFRSYM    DATA     BYTE      TH2
      000000D0H.0 SFRSYM    DATA     BIT       P
      00000098H.7 SFRSYM    DATA     BIT       SM0
      0000008AH   SFRSYM    DATA     BYTE      TL0
      00000098H.6 SFRSYM    DATA     BIT       SM1
      000000C5H   SFRSYM    DATA     BYTE      RL3
      0000008BH   SFRSYM    DATA     BYTE      TL1
      00000098H.5 SFRSYM    DATA     BIT       SM2
      000000C0H.6 SFRSYM    DATA     BIT       I2CEN
      000000F9H   SFRSYM    DATA     BYTE      PWM0DTEN
      000000CCH   SFRSYM    DATA     BYTE      TL2
      000000B1H   SFRSYM    DATA     BYTE      P0S
      000000FDH   SFRSYM    DATA     BYTE      PORDIS
      0000009BH   SFRSYM    DATA     BYTE      EIE
      000000B8H.1 SFRSYM    DATA     BIT       PT0
      000000B3H   SFRSYM    DATA     BYTE      P1S
      000000B8H.3 SFRSYM    DATA     BIT       PT1
      000000D0H.3 SFRSYM    DATA     BIT       RS0
LX51 LINKER/LOCATER V4.66.97.0                                                        10/09/2022  21:02:01  PAGE 18


      000000DDH   SFRSYM    DATA     BYTE      SC0IE
      0000008CH   SFRSYM    DATA     BYTE      P2S
      000000B7H   SFRSYM    DATA     BYTE      PWM0INTC
      000000BCH   SFRSYM    DATA     BYTE      I2DAT
      00000088H.4 SFRSYM    DATA     BIT       TR0
      000000D0H.4 SFRSYM    DATA     BIT       RS1
      000000E5H   SFRSYM    DATA     BYTE      SC1IE
      000000B6H   SFRSYM    DATA     BYTE      PWM1INTC
      000000FFH   SFRSYM    DATA     BYTE      LVRDIS
      000000ACH   SFRSYM    DATA     BYTE      P3S
      000000BEH   SFRSYM    DATA     BYTE      I2CLK
      00000088H.6 SFRSYM    DATA     BIT       TR1
      000000D8H.4 SFRSYM    DATA     BIT       CLRPWM
      000000EDH   SFRSYM    DATA     BYTE      SC2IE
      000000C6H   SFRSYM    DATA     BYTE      PWM2INTC
      00000090H.4 SFRSYM    DATA     BIT       SDA
      000000B8H.0 SFRSYM    DATA     BIT       PX0
      000000C8H.2 SFRSYM    DATA     BIT       TR2
      000000D6H   SFRSYM    DATA     BYTE      PWM3INTC
      000000FFH   SFRSYM    DATA     BYTE      EIPH1
      000000B8H.2 SFRSYM    DATA     BIT       PX1
      000000CFH   SFRSYM    DATA     BYTE      EIPH2
      000000D7H   SFRSYM    DATA     BYTE      XTLCON
      0000008EH   SFRSYM    DATA     BYTE      ADCCN
      000000E8H   SFRSYM    DATA     BYTE      ADCCON0
      000000E1H   SFRSYM    DATA     BYTE      ADCCON1
      000000E2H   SFRSYM    DATA     BYTE      ADCCON2
      000000C0H   SFRSYM    DATA     BYTE      I2CON
      00000083H   SFRSYM    DATA     BYTE      DPH
      000000F8H.2 SFRSYM    DATA     BIT       RB8_1
      000000D9H   SFRSYM    DATA     BYTE      SC0DR
      00000086H   SFRSYM    DATA     BYTE      ADCCON3
      000000E1H   SFRSYM    DATA     BYTE      SC1DR
      000000EFH   SFRSYM    DATA     BYTE      EIP
      000000F8H.3 SFRSYM    DATA     BIT       TB8_1
      000000E9H   SFRSYM    DATA     BYTE      SC2DR
      000000ECH   SFRSYM    DATA     BYTE      PIF
      00000082H   SFRSYM    DATA     BYTE      DPL
      000000F8H.7 SFRSYM    DATA     BIT       SM0_1
      000000D2H   SFRSYM    DATA     BYTE      PWM0C0H
      000000B7H   SFRSYM    DATA     BYTE      IPH
      00000090H.3 SFRSYM    DATA     BIT       SCL
      000000F8H.6 SFRSYM    DATA     BIT       SM1_1
      000000AAH   SFRSYM    DATA     BYTE      PWM1C0H
      000000D3H   SFRSYM    DATA     BYTE      PWM0C1H
      000000BFH   SFRSYM    DATA     BYTE      I2TOC
      000000F8H.5 SFRSYM    DATA     BIT       SM2_1
      000000DEH   SFRSYM    DATA     BYTE      SC0IS
      000000BAH   SFRSYM    DATA     BYTE      PWM2C0H
      000000ABH   SFRSYM    DATA     BYTE      PWM1C1H
      000000D4H   SFRSYM    DATA     BYTE      PWM0C2H
      000000C3H   SFRSYM    DATA     BYTE      ADCRH
      000000E6H   SFRSYM    DATA     BYTE      SC1IS
      000000CAH   SFRSYM    DATA     BYTE      PWM3C0H
      000000BBH   SFRSYM    DATA     BYTE      PWM2C1H
      000000D5H   SFRSYM    DATA     BYTE      PWM0C3H
      000000A7H   SFRSYM    DATA     BYTE      IAPAH
      00000098H.4 SFRSYM    DATA     BIT       REN
      000000EEH   SFRSYM    DATA     BYTE      SC2IS
      000000CBH   SFRSYM    DATA     BYTE      PWM3C1H
      000000C4H   SFRSYM    DATA     BYTE      PWM0C4H
      000000DAH   SFRSYM    DATA     BYTE      PWM0C0L
      000000AEH   SFRSYM    DATA     BYTE      IAPFD
      000000B2H   SFRSYM    DATA     BYTE      PWM1C0L
      000000C5H   SFRSYM    DATA     BYTE      PWM0C5H
LX51 LINKER/LOCATER V4.66.97.0                                                        10/09/2022  21:02:01  PAGE 19


      000000DBH   SFRSYM    DATA     BYTE      PWM0C1L
      00000092H   SFRSYM    DATA     BYTE      CAPCON0
      000000C0H.0 SFRSYM    DATA     BIT       I2CPX
      000000C2H   SFRSYM    DATA     BYTE      PWM2C0L
      000000B3H   SFRSYM    DATA     BYTE      PWM1C1L
      000000DCH   SFRSYM    DATA     BYTE      PWM0C2L
      000000C9H   SFRSYM    DATA     BYTE      T2MOD
      000000C8H   SFRSYM    DATA     BYTE      T2CON
      000000C2H   SFRSYM    DATA     BYTE      ADCRL
      000000A3H   SFRSYM    DATA     BYTE      BODCON0
      00000093H   SFRSYM    DATA     BYTE      CAPCON1
      000000C0H.5 SFRSYM    DATA     BIT       STA
      000000D2H   SFRSYM    DATA     BYTE      PWM3C0L
      000000C3H   SFRSYM    DATA     BYTE      PWM2C1L
      000000DDH   SFRSYM    DATA     BYTE      PWM0C3L
      000000C4H   SFRSYM    DATA     BYTE      T3CON
      000000B5H   SFRSYM    DATA     BYTE      TOE
      000000ABH   SFRSYM    DATA     BYTE      BODCON1
      000000A6H   SFRSYM    DATA     BYTE      IAPAL
      00000094H   SFRSYM    DATA     BYTE      CAPCON2
      000000D3H   SFRSYM    DATA     BYTE      PWM3C1L
      000000CCH   SFRSYM    DATA     BYTE      PWM0C4L
      000000F1H   SFRSYM    DATA     BYTE      CAPCON3
      0000008DH   SFRSYM    DATA     BYTE      ADCSN
      000000CDH   SFRSYM    DATA     BYTE      PWM0C5L
      000000F2H   SFRSYM    DATA     BYTE      CAPCON4
      000000D8H.7 SFRSYM    DATA     BIT       PWMRUN
      000000F3H   SFRSYM    DATA     BYTE      SPCR2
      000000B9H   SFRSYM    DATA     BYTE      SADEN
      000000AFH   SFRSYM    DATA     BYTE      IAPCN
      000000F9H   SFRSYM    DATA     BYTE      PIPS0
      00000080H.7 SFRSYM    DATA     BIT       RXD
      000000FAH   SFRSYM    DATA     BYTE      PIPS1
      0000008FH   SFRSYM    DATA     BYTE      ADCSR
      000000D6H   SFRSYM    DATA     BYTE      PNP
      000000FBH   SFRSYM    DATA     BYTE      PIPS2
      000000A9H   SFRSYM    DATA     BYTE      SADDR
      0000008EH   SFRSYM    DATA     BYTE      CKCON
      00000080H.4 SFRSYM    DATA     BIT       STADC
      00000080H.6 SFRSYM    DATA     BIT       TXD
      000000FCH   SFRSYM    DATA     BYTE      PIPS3
      000000FDH   SFRSYM    DATA     BYTE      PIPS4
      000000FEH   SFRSYM    DATA     BYTE      PIPS5
      000000D7H   SFRSYM    DATA     BYTE      PWM0FBD
      000000A2H   SFRSYM    DATA     BYTE      AUXR1
      00000095H   SFRSYM    DATA     BYTE      CKDIV
      000000FFH   SFRSYM    DATA     BYTE      PIPS6
      000000A1H   SFRSYM    DATA     BYTE      AUXR2
      000000F7H   SFRSYM    DATA     BYTE      PIPS7
      000000A2H   SFRSYM    DATA     BYTE      AUXR3
      000000D0H.5 SFRSYM    DATA     BIT       F0
      000000A3H   SFRSYM    DATA     BYTE      AUXR4
      000000C0H.4 SFRSYM    DATA     BIT       STO
      000000E8H.4 SFRSYM    DATA     BIT       ETGSEL0
      000000F8H.4 SFRSYM    DATA     BIT       REN_1
      000000A4H   SFRSYM    DATA     BYTE      AUXR5
      000000E8H.5 SFRSYM    DATA     BIT       ETGSEL1
      000000A5H   SFRSYM    DATA     BYTE      AUXR6
      000000A6H   SFRSYM    DATA     BYTE      AUXR7
      000000A7H   SFRSYM    DATA     BYTE      AUXR8
      000000E9H   SFRSYM    DATA     BYTE      PICON
      000000DEH   SFRSYM    DATA     BYTE      PIOCON0
      000000D0H   SFRSYM    DATA     BYTE      PSW
      000000C6H   SFRSYM    DATA     BYTE      PIOCON1
      000000EAH   SFRSYM    DATA     BYTE      PINEN
LX51 LINKER/LOCATER V4.66.97.0                                                        10/09/2022  21:02:01  PAGE 20


      000000B7H   SFRSYM    DATA     BYTE      PIOCON2
      000000AAH   SFRSYM    DATA     BYTE      WDCON
      000000DBH   SFRSYM    DATA     BYTE      SC0ETURD0
      000000EBH   SFRSYM    DATA     BYTE      PIPEN
      000000BAH   SFRSYM    DATA     BYTE      SADEN_1

      01000719H   BLOCK     CODE     ---       LVL=0
      00000007H   SYMBOL    DATA     BYTE      u8HIRCSEL
      01000719H   BLOCK     CODE     NEAR LAB  LVL=1
      00000008H   SYMBOL    DATA     BYTE      hircmap0
      00000009H   SYMBOL    DATA     BYTE      hircmap1
      0000000AH   SYMBOL    DATA     BYTE      offset
      0000000BH   SYMBOL    DATA     BYTE      judge
      00000006H   SYMBOL    DATA     WORD      trimvalue16bit
      ---         BLOCKEND  ---      ---       LVL=1
      01000719H   LINE      CODE     ---       #24
      01000719H   LINE      CODE     ---       #25
      01000719H   LINE      CODE     ---       #29
      0100071CH   LINE      CODE     ---       #30
      01000728H   LINE      CODE     ---       #31
      01000728H   LINE      CODE     ---       #32
      01000728H   LINE      CODE     ---       #33
      0100072BH   LINE      CODE     ---       #34
      0100072DH   LINE      CODE     ---       #35
      0100072DH   LINE      CODE     ---       #36
      01000730H   LINE      CODE     ---       #37
      01000732H   LINE      CODE     ---       #38
      01000732H   LINE      CODE     ---       #39
      01000735H   LINE      CODE     ---       #40
      01000735H   LINE      CODE     ---       #41
      01000735H   LINE      CODE     ---       #42
      0100074BH   LINE      CODE     ---       #43
      0100074DH   LINE      CODE     ---       #44
      01000750H   LINE      CODE     ---       #45
      01000765H   LINE      CODE     ---       #46
      01000768H   LINE      CODE     ---       #47
      0100076AH   LINE      CODE     ---       #48
      0100077FH   LINE      CODE     ---       #49
      01000782H   LINE      CODE     ---       #51
      0100078AH   LINE      CODE     ---       #52
      0100078AH   LINE      CODE     ---       #53
      0100078AH   LINE      CODE     ---       #54
      0100079DH   LINE      CODE     ---       #55
      010007A4H   LINE      CODE     ---       #56
      010007A9H   LINE      CODE     ---       #57
      010007B1H   LINE      CODE     ---       #59
      010007B4H   LINE      CODE     ---       #60
      010007B7H   LINE      CODE     ---       #61
      010007BAH   LINE      CODE     ---       #62
      010007CFH   LINE      CODE     ---       #63
      010007E4H   LINE      CODE     ---       #64
      010007E4H   LINE      CODE     ---       #65
      010007EFH   LINE      CODE     ---       #66
      010007EFH   LINE      CODE     ---       #67
      01000800H   LINE      CODE     ---       #68
      01000808H   LINE      CODE     ---       #69
      0100080AH   LINE      CODE     ---       #71
      01000812H   LINE      CODE     ---       #72
      01000812H   LINE      CODE     ---       #73
      01000819H   LINE      CODE     ---       #75
      01000819H   LINE      CODE     ---       #76
      01000819H   LINE      CODE     ---       #77
      01000819H   LINE      CODE     ---       #79
      0100081CH   LINE      CODE     ---       #80
      0100081FH   LINE      CODE     ---       #81
LX51 LINKER/LOCATER V4.66.97.0                                                        10/09/2022  21:02:01  PAGE 21


      01000822H   LINE      CODE     ---       #82
      01000825H   LINE      CODE     ---       #83
      01000828H   LINE      CODE     ---       #84
      0100082BH   LINE      CODE     ---       #85
      01000841H   LINE      CODE     ---       #86
      01000844H   LINE      CODE     ---       #87
      ---         BLOCKEND  ---      ---       LVL=0

      0100093AH   BLOCK     CODE     ---       LVL=0
      00000007H   SYMBOL    DATA     BYTE      u8FsysMode
      0100093AH   LINE      CODE     ---       #101
      0100093AH   LINE      CODE     ---       #102
      0100093AH   LINE      CODE     ---       #103
      01000952H   LINE      CODE     ---       #104
      01000952H   LINE      CODE     ---       #106
      01000952H   LINE      CODE     ---       #107
      01000957H   LINE      CODE     ---       #108
      0100095CH   LINE      CODE     ---       #109
      01000961H   LINE      CODE     ---       #110
      01000966H   LINE      CODE     ---       #111
      0100097CH   LINE      CODE     ---       #112
      0100097DH   LINE      CODE     ---       #115
      0100097DH   LINE      CODE     ---       #116
      01000982H   LINE      CODE     ---       #117
      01000987H   LINE      CODE     ---       #118
      01000988H   LINE      CODE     ---       #121
      01000988H   LINE      CODE     ---       #122
      0100098DH   LINE      CODE     ---       #123
      01000992H   LINE      CODE     ---       #124
      010009A8H   LINE      CODE     ---       #125
      010009A9H   LINE      CODE     ---       #128
      010009A9H   LINE      CODE     ---       #129
      010009AEH   LINE      CODE     ---       #130
      010009B3H   LINE      CODE     ---       #131
      010009B8H   LINE      CODE     ---       #132
      010009BDH   LINE      CODE     ---       #133
      010009D3H   LINE      CODE     ---       #134
      010009D4H   LINE      CODE     ---       #137
      010009D4H   LINE      CODE     ---       #138
      010009D9H   LINE      CODE     ---       #139
      010009DEH   LINE      CODE     ---       #140
      010009E3H   LINE      CODE     ---       #141
      010009E8H   LINE      CODE     ---       #142
      010009FEH   LINE      CODE     ---       #143
      010009FEH   LINE      CODE     ---       #144
      010009FEH   LINE      CODE     ---       #145
      ---         BLOCKEND  ---      ---       LVL=0

      01000845H   BLOCK     CODE     ---       LVL=0
      00000007H   SYMBOL    DATA     BYTE      u8FsysMode
      01000845H   LINE      CODE     ---       #147
      01000845H   LINE      CODE     ---       #148
      01000845H   LINE      CODE     ---       #149
      01000860H   LINE      CODE     ---       #150
      01000860H   LINE      CODE     ---       #152
      01000860H   LINE      CODE     ---       #153
      01000876H   LINE      CODE     ---       #154
      0100088BH   LINE      CODE     ---       #155
      01000896H   LINE      CODE     ---       #156
      01000897H   LINE      CODE     ---       #159
      01000897H   LINE      CODE     ---       #160
      010008ADH   LINE      CODE     ---       #161
      010008B7H   LINE      CODE     ---       #162
      010008B8H   LINE      CODE     ---       #165
      010008B8H   LINE      CODE     ---       #166
LX51 LINKER/LOCATER V4.66.97.0                                                        10/09/2022  21:02:01  PAGE 22


      010008CEH   LINE      CODE     ---       #167
      010008D5H   LINE      CODE     ---       #168
      010008D6H   LINE      CODE     ---       #171
      010008D6H   LINE      CODE     ---       #172
      010008ECH   LINE      CODE     ---       #173
      01000901H   LINE      CODE     ---       #174
      01000908H   LINE      CODE     ---       #175
      01000909H   LINE      CODE     ---       #178
      01000909H   LINE      CODE     ---       #179
      0100091FH   LINE      CODE     ---       #180
      01000934H   LINE      CODE     ---       #181
      01000939H   LINE      CODE     ---       #182
      01000939H   LINE      CODE     ---       #183
      01000939H   LINE      CODE     ---       #184
      ---         BLOCKEND  ---      ---       LVL=0

      01000B4DH   BLOCK     CODE     ---       LVL=0
      00000007H   SYMBOL    DATA     BYTE      u8FsysMode
      01000B4DH   BLOCK     CODE     NEAR LAB  LVL=1
      00000021H.4 SYMBOL    BIT      BIT       closeflag
      ---         BLOCKEND  ---      ---       LVL=1
      01000B4DH   LINE      CODE     ---       #186
      01000B4DH   LINE      CODE     ---       #187
      01000B4DH   LINE      CODE     ---       #188
      01000B4FH   LINE      CODE     ---       #190
      01000B52H   LINE      CODE     ---       #191
      01000B64H   LINE      CODE     ---       #192
      01000B64H   LINE      CODE     ---       #194
      01000B64H   LINE      CODE     ---       #195
      01000B66H   LINE      CODE     ---       #196
      01000B68H   LINE      CODE     ---       #198
      01000B68H   LINE      CODE     ---       #199
      01000B7EH   LINE      CODE     ---       #200
      01000B80H   LINE      CODE     ---       #202
      01000B80H   LINE      CODE     ---       #203
      01000B96H   LINE      CODE     ---       #204
      01000B98H   LINE      CODE     ---       #206
      01000B98H   LINE      CODE     ---       #207
      01000B9AH   LINE      CODE     ---       #208
      01000B9CH   LINE      CODE     ---       #210
      01000B9CH   LINE      CODE     ---       #211
      01000B9EH   LINE      CODE     ---       #212
      01000B9EH   LINE      CODE     ---       #213
      01000B9EH   LINE      CODE     ---       #214
      01000BA1H   LINE      CODE     ---       #215
      01000BA1H   LINE      CODE     ---       #216
      01000BB7H   LINE      CODE     ---       #217
      01000BB9H   LINE      CODE     ---       #218
      01000BB9H   LINE      CODE     ---       #220
      ---         BLOCKEND  ---      ---       LVL=0

      010009FFH   BLOCK     CODE     ---       LVL=0
      00000007H   SYMBOL    DATA     BYTE      u8FsysMode
      010009FFH   BLOCK     CODE     NEAR LAB  LVL=1
      00000021H.5 SYMBOL    BIT      BIT       exflag
      ---         BLOCKEND  ---      ---       LVL=1
      010009FFH   LINE      CODE     ---       #222
      010009FFH   LINE      CODE     ---       #223
      010009FFH   LINE      CODE     ---       #224
      01000A01H   LINE      CODE     ---       #225
      01000A04H   LINE      CODE     ---       #226
      01000A0AH   LINE      CODE     ---       #227
      01000A1CH   LINE      CODE     ---       #228
      01000A1CH   LINE      CODE     ---       #230
      01000A1CH   LINE      CODE     ---       #231
LX51 LINKER/LOCATER V4.66.97.0                                                        10/09/2022  21:02:01  PAGE 23


      01000A1EH   LINE      CODE     ---       #232
      01000A20H   LINE      CODE     ---       #234
      01000A20H   LINE      CODE     ---       #235
      01000A36H   LINE      CODE     ---       #236
      01000A4BH   LINE      CODE     ---       #237
      01000A4DH   LINE      CODE     ---       #239
      01000A4DH   LINE      CODE     ---       #240
      01000A63H   LINE      CODE     ---       #241
      01000A78H   LINE      CODE     ---       #242
      01000A7AH   LINE      CODE     ---       #244
      01000A7AH   LINE      CODE     ---       #245
      01000A7CH   LINE      CODE     ---       #246
      01000A7EH   LINE      CODE     ---       #248
      01000A7EH   LINE      CODE     ---       #249
      01000A80H   LINE      CODE     ---       #250
      01000A80H   LINE      CODE     ---       #251
      01000A80H   LINE      CODE     ---       #252
      01000A83H   LINE      CODE     ---       #253
      01000A83H   LINE      CODE     ---       #254
      01000A99H   LINE      CODE     ---       #255
      01000AAEH   LINE      CODE     ---       #256
      01000AAEH   LINE      CODE     ---       #257
      01000AB2H   LINE      CODE     ---       #258
      ---         BLOCKEND  ---      ---       LVL=0

      ---         MODULE    ---      ---       UART
      00000021H.3 PUBLIC    BIT      BIT       uart1_receive_flag
      02000029H   PUBLIC    XDATA    BYTE      uart1_receive_data
      00000021H.2 PUBLIC    BIT      BIT       uart0_receive_flag
      02000028H   PUBLIC    XDATA    BYTE      uart0_receive_data
      00000021H.1 PUBLIC    BIT      BIT       PRINTFG
      01000C09H   PUBLIC    CODE     ---       Enable_UART0_VCOM_printf_24M_115200
      01000C2FH   PUBLIC    CODE     ---       _UART_Send_Data
      0100005DH   PUBLIC    CODE     ---       _Receive_Data
      02000000H   PUBLIC    XDATA    BYTE      ?_UART_Open?BYTE
      0100059FH   PUBLIC    CODE     ---       _UART_Open
      01000BBAH   PUBLIC    CODE     ---       SerialPort1_ISR
      01000003H   PUBLIC    CODE     ---       Serial_ISR
      000000E3H   SFRSYM    DATA     BYTE      SC1ETURD0
      000000DCH   SFRSYM    DATA     BYTE      SC0ETURD1
      000000B1H   SFRSYM    DATA     BYTE      P0M1
      00000080H.2 SFRSYM    DATA     BIT       RXD_1
      000000EBH   SFRSYM    DATA     BYTE      SC2ETURD0
      000000E4H   SFRSYM    DATA     BYTE      SC1ETURD1
      000000B3H   SFRSYM    DATA     BYTE      P1M1
      000000B2H   SFRSYM    DATA     BYTE      P0M2
      00000080H   SFRSYM    DATA     BYTE      P0
      000000ECH   SFRSYM    DATA     BYTE      SC2ETURD1
      00000089H   SFRSYM    DATA     BYTE      P2M1
      000000BBH   SFRSYM    DATA     BYTE      SADDR_1
      000000B4H   SFRSYM    DATA     BYTE      P1M2
      00000090H   SFRSYM    DATA     BYTE      P1
      00000090H.6 SFRSYM    DATA     BIT       TXD_1
      000000C0H.2 SFRSYM    DATA     BIT       AA
      0000008AH   SFRSYM    DATA     BYTE      P2M2
      000000ACH   SFRSYM    DATA     BYTE      P3M1
      000000A0H   SFRSYM    DATA     BYTE      P2
      000000B0H   SFRSYM    DATA     BYTE      P3
      000000ADH   SFRSYM    DATA     BYTE      P3M2
      000000D0H.6 SFRSYM    DATA     BIT       AC
      0000008FH   SFRSYM    DATA     BYTE      WKCON
      00000084H   SFRSYM    DATA     BYTE      RCTRIM0
      0000009CH   SFRSYM    DATA     BYTE      EIE1
      00000085H   SFRSYM    DATA     BYTE      RCTRIM1
      000000A8H.7 SFRSYM    DATA     BIT       EA
LX51 LINKER/LOCATER V4.66.97.0                                                        10/09/2022  21:02:01  PAGE 24


      000000FBH   SFRSYM    DATA     BYTE      PWM0MEN
      000000ADH   SFRSYM    DATA     BYTE      PWM1MEN
      000000BDH   SFRSYM    DATA     BYTE      PWM2MEN
      000000CDH   SFRSYM    DATA     BYTE      PWM3MEN
      00000098H.7 SFRSYM    DATA     BIT       FE
      000000F1H   SFRSYM    DATA     BYTE      SC0CR0
      000000A8H.6 SFRSYM    DATA     BIT       EADC
      000000F3H   SFRSYM    DATA     BYTE      SC1CR0
      000000F2H   SFRSYM    DATA     BYTE      SC0CR1
      000000A8H   SFRSYM    DATA     BYTE      IE
      00000096H   SFRSYM    DATA     BYTE      CKSWT
      000000E8H.7 SFRSYM    DATA     BIT       ADCF
      000000F5H   SFRSYM    DATA     BYTE      SC2CR0
      000000F4H   SFRSYM    DATA     BYTE      SC1CR1
      000000F6H   SFRSYM    DATA     BYTE      SC2CR1
      000000FEH   SFRSYM    DATA     BYTE      EIP1
      000000CEH   SFRSYM    DATA     BYTE      EIP2
      000000E8H.0 SFRSYM    DATA     BIT       ADCHS0
      00000085H   SFRSYM    DATA     BYTE      ADCBAH
      000000C7H   SFRSYM    DATA     BYTE      TA
      000000E8H.1 SFRSYM    DATA     BIT       ADCHS1
      000000E8H.2 SFRSYM    DATA     BIT       ADCHS2
      000000A8H.4 SFRSYM    DATA     BIT       ES
      000000E8H.3 SFRSYM    DATA     BIT       ADCHS3
      000000C1H   SFRSYM    DATA     BYTE      I2ADDR
      000000B8H.6 SFRSYM    DATA     BIT       PADC
      00000084H   SFRSYM    DATA     BYTE      ADCBAL
      000000B8H   SFRSYM    DATA     BYTE      IP
      00000098H.0 SFRSYM    DATA     BIT       RI
      000000A8H.5 SFRSYM    DATA     BIT       EBOD
      000000C0H.3 SFRSYM    DATA     BIT       SI
      000000D0H.7 SFRSYM    DATA     BIT       CY
      000000E8H.6 SFRSYM    DATA     BIT       ADCS
      000000F8H.7 SFRSYM    DATA     BIT       FE_1
      0000009AH   SFRSYM    DATA     BYTE      P0DW
      00000098H.1 SFRSYM    DATA     BIT       TI
      0000009BH   SFRSYM    DATA     BYTE      P1DW
      0000009CH   SFRSYM    DATA     BYTE      P2DW
      0000009DH   SFRSYM    DATA     BYTE      P3DW
      000000D8H.6 SFRSYM    DATA     BIT       LOAD
      00000097H   SFRSYM    DATA     BYTE      CKEN
      000000B8H.4 SFRSYM    DATA     BIT       PS
      00000081H   SFRSYM    DATA     BYTE      SP
      000000D0H.2 SFRSYM    DATA     BIT       OV
      000000FAH   SFRSYM    DATA     BYTE      PWM0DTCNT
      000000B8H.5 SFRSYM    DATA     BIT       PBOD
      00000092H   SFRSYM    DATA     BYTE      P0UP
      000000B2H   SFRSYM    DATA     BYTE      P0SR
      00000093H   SFRSYM    DATA     BYTE      P1UP
      000000B4H   SFRSYM    DATA     BYTE      P1SR
      000000F7H   SFRSYM    DATA     BYTE      EIPH
      000000DAH   SFRSYM    DATA     BYTE      SC0EGT
      00000094H   SFRSYM    DATA     BYTE      P2UP
      0000008BH   SFRSYM    DATA     BYTE      P2SR
      000000E2H   SFRSYM    DATA     BYTE      SC1EGT
      00000095H   SFRSYM    DATA     BYTE      P3UP
      000000ADH   SFRSYM    DATA     BYTE      P3SR
      000000EAH   SFRSYM    DATA     BYTE      SC2EGT
      000000F8H.0 SFRSYM    DATA     BIT       RI_1
      000000F8H.1 SFRSYM    DATA     BIT       TI_1
      000000CBH   SFRSYM    DATA     BYTE      RCMP2H
      000000F6H   SFRSYM    DATA     BYTE      AINDIDS0
      000000CFH   SFRSYM    DATA     BYTE      ADCMPH
      00000080H.0 SFRSYM    DATA     BIT       P00
      00000099H   SFRSYM    DATA     BYTE      AINDIDS1
LX51 LINKER/LOCATER V4.66.97.0                                                        10/09/2022  21:02:01  PAGE 25


      00000080H.1 SFRSYM    DATA     BIT       P01
      00000090H.0 SFRSYM    DATA     BIT       P10
      00000099H   SFRSYM    DATA     BYTE      SBUF
      00000087H   SFRSYM    DATA     BYTE      PCON
      00000080H.2 SFRSYM    DATA     BIT       P02
      00000090H.1 SFRSYM    DATA     BIT       P11
      000000A0H.0 SFRSYM    DATA     BIT       P20
      000000CAH   SFRSYM    DATA     BYTE      RCMP2L
      00000080H.3 SFRSYM    DATA     BIT       P03
      00000090H.2 SFRSYM    DATA     BIT       P12
      000000B0H.0 SFRSYM    DATA     BIT       P30
      000000E3H   SFRSYM    DATA     BYTE      ADCDLY
      000000CEH   SFRSYM    DATA     BYTE      ADCMPL
      00000080H.4 SFRSYM    DATA     BIT       P04
      00000090H.3 SFRSYM    DATA     BIT       P13
      000000B0H.1 SFRSYM    DATA     BIT       P31
      00000098H   SFRSYM    DATA     BYTE      SCON
      00000080H.5 SFRSYM    DATA     BIT       P05
      00000090H.4 SFRSYM    DATA     BIT       P14
      000000B0H.2 SFRSYM    DATA     BIT       P32
      00000089H   SFRSYM    DATA     BYTE      TMOD
      00000088H   SFRSYM    DATA     BYTE      TCON
      00000080H.6 SFRSYM    DATA     BIT       P06
      00000090H.5 SFRSYM    DATA     BIT       P15
      000000B0H.3 SFRSYM    DATA     BIT       P33
      00000080H.7 SFRSYM    DATA     BIT       P07
      00000090H.6 SFRSYM    DATA     BIT       P16
      000000B0H.4 SFRSYM    DATA     BIT       P34
      000000FCH   SFRSYM    DATA     BYTE      PWM0MD
      000000D8H   SFRSYM    DATA     BYTE      PWM0CON0
      00000090H.7 SFRSYM    DATA     BIT       P17
      000000B0H.5 SFRSYM    DATA     BIT       P35
      000000B4H   SFRSYM    DATA     BYTE      PWM1CON0
      000000ACH   SFRSYM    DATA     BYTE      PWM1MD
      000000DFH   SFRSYM    DATA     BYTE      PWM0CON1
      00000080H.0 SFRSYM    DATA     BIT       MOSI
      00000080H.1 SFRSYM    DATA     BIT       MISO
      000000B0H.6 SFRSYM    DATA     BIT       P36
      000000C4H   SFRSYM    DATA     BYTE      PWM2CON0
      000000BCH   SFRSYM    DATA     BYTE      PWM2MD
      000000B5H   SFRSYM    DATA     BYTE      PWM1CON1
      000000F3H   SFRSYM    DATA     BYTE      SPCR
      000000BDH   SFRSYM    DATA     BYTE      I2STAT
      000000B0H.7 SFRSYM    DATA     BIT       P37
      000000D4H   SFRSYM    DATA     BYTE      PWM3CON0
      000000CCH   SFRSYM    DATA     BYTE      PWM3MD
      000000C5H   SFRSYM    DATA     BYTE      PWM2CON1
      000000F5H   SFRSYM    DATA     BYTE      SPDR
      000000D8H.5 SFRSYM    DATA     BIT       PWMF
      000000D5H   SFRSYM    DATA     BYTE      PWM3CON1
      000000E5H   SFRSYM    DATA     BYTE      C0H
      000000E7H   SFRSYM    DATA     BYTE      C1H
      00000097H   SFRSYM    DATA     BYTE      RWKH
      000000EEH   SFRSYM    DATA     BYTE      C2H
      0000009FH   SFRSYM    DATA     BYTE      CHPCON
      00000088H.1 SFRSYM    DATA     BIT       IE0
      000000D1H   SFRSYM    DATA     BYTE      PWM0PH
      00000088H.3 SFRSYM    DATA     BIT       IE1
      000000A9H   SFRSYM    DATA     BYTE      PWM1PH
      000000E4H   SFRSYM    DATA     BYTE      C0L
      00000091H   SFRSYM    DATA     BYTE      SFRS
      000000B9H   SFRSYM    DATA     BYTE      PWM2PH
      000000E6H   SFRSYM    DATA     BYTE      C1L
      000000C8H.0 SFRSYM    DATA     BIT       CM_RL2
      000000DFH   SFRSYM    DATA     BYTE      SC0TSR
LX51 LINKER/LOCATER V4.66.97.0                                                        10/09/2022  21:02:01  PAGE 26


      000000C9H   SFRSYM    DATA     BYTE      PWM3PH
      000000F0H   SFRSYM    DATA     BYTE      B
      000000EDH   SFRSYM    DATA     BYTE      C2L
      00000086H   SFRSYM    DATA     BYTE      RWKL
      000000E7H   SFRSYM    DATA     BYTE      SC1TSR
      000000D9H   SFRSYM    DATA     BYTE      PWM0PL
      0000009AH   SFRSYM    DATA     BYTE      SBUF_1
      000000EFH   SFRSYM    DATA     BYTE      SC2TSR
      000000B1H   SFRSYM    DATA     BYTE      PWM1PL
      000000C1H   SFRSYM    DATA     BYTE      PWM2PL
      000000A5H   SFRSYM    DATA     BYTE      IAPUEN
      000000D1H   SFRSYM    DATA     BYTE      PWM3PL
      000000F8H   SFRSYM    DATA     BYTE      SCON_1
      000000E0H   SFRSYM    DATA     BYTE      ACC
      000000A8H.1 SFRSYM    DATA     BIT       ET0
      000000F4H   SFRSYM    DATA     BYTE      SPSR
      000000A4H   SFRSYM    DATA     BYTE      IAPTRG
      00000088H.5 SFRSYM    DATA     BIT       TF0
      000000A8H.3 SFRSYM    DATA     BIT       ET1
      00000088H.7 SFRSYM    DATA     BIT       TF1
      00000098H.2 SFRSYM    DATA     BIT       RB8
      000000C8H.7 SFRSYM    DATA     BIT       TF2
      0000008CH   SFRSYM    DATA     BYTE      TH0
      00000088H.0 SFRSYM    DATA     BIT       IT0
      000000A8H.0 SFRSYM    DATA     BIT       EX0
      000000C6H   SFRSYM    DATA     BYTE      RH3
      0000008DH   SFRSYM    DATA     BYTE      TH1
      00000088H.2 SFRSYM    DATA     BIT       IT1
      00000098H.3 SFRSYM    DATA     BIT       TB8
      000000A8H.2 SFRSYM    DATA     BIT       EX1
      000000CDH   SFRSYM    DATA     BYTE      TH2
      000000D0H.0 SFRSYM    DATA     BIT       P
      00000098H.7 SFRSYM    DATA     BIT       SM0
      0000008AH   SFRSYM    DATA     BYTE      TL0
      00000098H.6 SFRSYM    DATA     BIT       SM1
      000000C5H   SFRSYM    DATA     BYTE      RL3
      0000008BH   SFRSYM    DATA     BYTE      TL1
      00000098H.5 SFRSYM    DATA     BIT       SM2
      000000C0H.6 SFRSYM    DATA     BIT       I2CEN
      000000F9H   SFRSYM    DATA     BYTE      PWM0DTEN
      000000CCH   SFRSYM    DATA     BYTE      TL2
      000000B1H   SFRSYM    DATA     BYTE      P0S
      000000FDH   SFRSYM    DATA     BYTE      PORDIS
      0000009BH   SFRSYM    DATA     BYTE      EIE
      000000B8H.1 SFRSYM    DATA     BIT       PT0
      000000B3H   SFRSYM    DATA     BYTE      P1S
      000000B8H.3 SFRSYM    DATA     BIT       PT1
      000000D0H.3 SFRSYM    DATA     BIT       RS0
      000000DDH   SFRSYM    DATA     BYTE      SC0IE
      0000008CH   SFRSYM    DATA     BYTE      P2S
      000000B7H   SFRSYM    DATA     BYTE      PWM0INTC
      000000BCH   SFRSYM    DATA     BYTE      I2DAT
      00000088H.4 SFRSYM    DATA     BIT       TR0
      000000D0H.4 SFRSYM    DATA     BIT       RS1
      000000E5H   SFRSYM    DATA     BYTE      SC1IE
      000000B6H   SFRSYM    DATA     BYTE      PWM1INTC
      000000FFH   SFRSYM    DATA     BYTE      LVRDIS
      000000ACH   SFRSYM    DATA     BYTE      P3S
      000000BEH   SFRSYM    DATA     BYTE      I2CLK
      00000088H.6 SFRSYM    DATA     BIT       TR1
      000000D8H.4 SFRSYM    DATA     BIT       CLRPWM
      000000EDH   SFRSYM    DATA     BYTE      SC2IE
      000000C6H   SFRSYM    DATA     BYTE      PWM2INTC
      00000090H.4 SFRSYM    DATA     BIT       SDA
      000000B8H.0 SFRSYM    DATA     BIT       PX0
LX51 LINKER/LOCATER V4.66.97.0                                                        10/09/2022  21:02:01  PAGE 27


      000000C8H.2 SFRSYM    DATA     BIT       TR2
      000000D6H   SFRSYM    DATA     BYTE      PWM3INTC
      000000FFH   SFRSYM    DATA     BYTE      EIPH1
      000000B8H.2 SFRSYM    DATA     BIT       PX1
      000000CFH   SFRSYM    DATA     BYTE      EIPH2
      000000D7H   SFRSYM    DATA     BYTE      XTLCON
      0000008EH   SFRSYM    DATA     BYTE      ADCCN
      000000E8H   SFRSYM    DATA     BYTE      ADCCON0
      000000E1H   SFRSYM    DATA     BYTE      ADCCON1
      000000E2H   SFRSYM    DATA     BYTE      ADCCON2
      000000C0H   SFRSYM    DATA     BYTE      I2CON
      00000083H   SFRSYM    DATA     BYTE      DPH
      000000F8H.2 SFRSYM    DATA     BIT       RB8_1
      000000D9H   SFRSYM    DATA     BYTE      SC0DR
      00000086H   SFRSYM    DATA     BYTE      ADCCON3
      000000E1H   SFRSYM    DATA     BYTE      SC1DR
      000000EFH   SFRSYM    DATA     BYTE      EIP
      000000F8H.3 SFRSYM    DATA     BIT       TB8_1
      000000E9H   SFRSYM    DATA     BYTE      SC2DR
      000000ECH   SFRSYM    DATA     BYTE      PIF
      00000082H   SFRSYM    DATA     BYTE      DPL
      000000F8H.7 SFRSYM    DATA     BIT       SM0_1
      000000D2H   SFRSYM    DATA     BYTE      PWM0C0H
      000000B7H   SFRSYM    DATA     BYTE      IPH
      00000090H.3 SFRSYM    DATA     BIT       SCL
      000000F8H.6 SFRSYM    DATA     BIT       SM1_1
      000000AAH   SFRSYM    DATA     BYTE      PWM1C0H
      000000D3H   SFRSYM    DATA     BYTE      PWM0C1H
      000000BFH   SFRSYM    DATA     BYTE      I2TOC
      000000F8H.5 SFRSYM    DATA     BIT       SM2_1
      000000DEH   SFRSYM    DATA     BYTE      SC0IS
      000000BAH   SFRSYM    DATA     BYTE      PWM2C0H
      000000ABH   SFRSYM    DATA     BYTE      PWM1C1H
      000000D4H   SFRSYM    DATA     BYTE      PWM0C2H
      000000C3H   SFRSYM    DATA     BYTE      ADCRH
      000000E6H   SFRSYM    DATA     BYTE      SC1IS
      000000CAH   SFRSYM    DATA     BYTE      PWM3C0H
      000000BBH   SFRSYM    DATA     BYTE      PWM2C1H
      000000D5H   SFRSYM    DATA     BYTE      PWM0C3H
      000000A7H   SFRSYM    DATA     BYTE      IAPAH
      00000098H.4 SFRSYM    DATA     BIT       REN
      000000EEH   SFRSYM    DATA     BYTE      SC2IS
      000000CBH   SFRSYM    DATA     BYTE      PWM3C1H
      000000C4H   SFRSYM    DATA     BYTE      PWM0C4H
      000000DAH   SFRSYM    DATA     BYTE      PWM0C0L
      000000AEH   SFRSYM    DATA     BYTE      IAPFD
      000000B2H   SFRSYM    DATA     BYTE      PWM1C0L
      000000C5H   SFRSYM    DATA     BYTE      PWM0C5H
      000000DBH   SFRSYM    DATA     BYTE      PWM0C1L
      00000092H   SFRSYM    DATA     BYTE      CAPCON0
      000000C0H.0 SFRSYM    DATA     BIT       I2CPX
      000000C2H   SFRSYM    DATA     BYTE      PWM2C0L
      000000B3H   SFRSYM    DATA     BYTE      PWM1C1L
      000000DCH   SFRSYM    DATA     BYTE      PWM0C2L
      000000C9H   SFRSYM    DATA     BYTE      T2MOD
      000000C8H   SFRSYM    DATA     BYTE      T2CON
      000000C2H   SFRSYM    DATA     BYTE      ADCRL
      000000A3H   SFRSYM    DATA     BYTE      BODCON0
      00000093H   SFRSYM    DATA     BYTE      CAPCON1
      000000C0H.5 SFRSYM    DATA     BIT       STA
      000000D2H   SFRSYM    DATA     BYTE      PWM3C0L
      000000C3H   SFRSYM    DATA     BYTE      PWM2C1L
      000000DDH   SFRSYM    DATA     BYTE      PWM0C3L
      000000C4H   SFRSYM    DATA     BYTE      T3CON
      000000B5H   SFRSYM    DATA     BYTE      TOE
LX51 LINKER/LOCATER V4.66.97.0                                                        10/09/2022  21:02:01  PAGE 28


      000000ABH   SFRSYM    DATA     BYTE      BODCON1
      000000A6H   SFRSYM    DATA     BYTE      IAPAL
      00000094H   SFRSYM    DATA     BYTE      CAPCON2
      000000D3H   SFRSYM    DATA     BYTE      PWM3C1L
      000000CCH   SFRSYM    DATA     BYTE      PWM0C4L
      000000F1H   SFRSYM    DATA     BYTE      CAPCON3
      0000008DH   SFRSYM    DATA     BYTE      ADCSN
      000000CDH   SFRSYM    DATA     BYTE      PWM0C5L
      000000F2H   SFRSYM    DATA     BYTE      CAPCON4
      000000D8H.7 SFRSYM    DATA     BIT       PWMRUN
      000000F3H   SFRSYM    DATA     BYTE      SPCR2
      000000B9H   SFRSYM    DATA     BYTE      SADEN
      000000AFH   SFRSYM    DATA     BYTE      IAPCN
      000000F9H   SFRSYM    DATA     BYTE      PIPS0
      00000080H.7 SFRSYM    DATA     BIT       RXD
      000000FAH   SFRSYM    DATA     BYTE      PIPS1
      0000008FH   SFRSYM    DATA     BYTE      ADCSR
      000000D6H   SFRSYM    DATA     BYTE      PNP
      000000FBH   SFRSYM    DATA     BYTE      PIPS2
      000000A9H   SFRSYM    DATA     BYTE      SADDR
      0000008EH   SFRSYM    DATA     BYTE      CKCON
      00000080H.4 SFRSYM    DATA     BIT       STADC
      00000080H.6 SFRSYM    DATA     BIT       TXD
      000000FCH   SFRSYM    DATA     BYTE      PIPS3
      000000FDH   SFRSYM    DATA     BYTE      PIPS4
      000000FEH   SFRSYM    DATA     BYTE      PIPS5
      000000D7H   SFRSYM    DATA     BYTE      PWM0FBD
      000000A2H   SFRSYM    DATA     BYTE      AUXR1
      00000095H   SFRSYM    DATA     BYTE      CKDIV
      000000FFH   SFRSYM    DATA     BYTE      PIPS6
      000000A1H   SFRSYM    DATA     BYTE      AUXR2
      000000F7H   SFRSYM    DATA     BYTE      PIPS7
      000000A2H   SFRSYM    DATA     BYTE      AUXR3
      000000D0H.5 SFRSYM    DATA     BIT       F0
      000000A3H   SFRSYM    DATA     BYTE      AUXR4
      000000C0H.4 SFRSYM    DATA     BIT       STO
      000000E8H.4 SFRSYM    DATA     BIT       ETGSEL0
      000000F8H.4 SFRSYM    DATA     BIT       REN_1
      000000A4H   SFRSYM    DATA     BYTE      AUXR5
      000000E8H.5 SFRSYM    DATA     BIT       ETGSEL1
      000000A5H   SFRSYM    DATA     BYTE      AUXR6
      000000A6H   SFRSYM    DATA     BYTE      AUXR7
      000000A7H   SFRSYM    DATA     BYTE      AUXR8
      000000E9H   SFRSYM    DATA     BYTE      PICON
      000000DEH   SFRSYM    DATA     BYTE      PIOCON0
      000000D0H   SFRSYM    DATA     BYTE      PSW
      000000C6H   SFRSYM    DATA     BYTE      PIOCON1
      000000EAH   SFRSYM    DATA     BYTE      PINEN
      000000B7H   SFRSYM    DATA     BYTE      PIOCON2
      000000AAH   SFRSYM    DATA     BYTE      WDCON
      000000DBH   SFRSYM    DATA     BYTE      SC0ETURD0
      000000EBH   SFRSYM    DATA     BYTE      PIPEN
      000000BAH   SFRSYM    DATA     BYTE      SADEN_1

      01000003H   BLOCK     CODE     ---       LVL=0
      01000003H   LINE      CODE     ---       #18
      01000009H   LINE      CODE     ---       #20
      0100000BH   LINE      CODE     ---       #21
      0100000EH   LINE      CODE     ---       #22
      0100000EH   LINE      CODE     ---       #23
      01000010H   LINE      CODE     ---       #24
      01000016H   LINE      CODE     ---       #25
      01000019H   LINE      CODE     ---       #26
      01000019H   LINE      CODE     ---       #28
      01000019H   LINE      CODE     ---       #29
LX51 LINKER/LOCATER V4.66.97.0                                                        10/09/2022  21:02:01  PAGE 29


      01000019H   LINE      CODE     ---       #34
      01000019H   LINE      CODE     ---       #35
      0100001BH   LINE      CODE     ---       #36
      ---         BLOCKEND  ---      ---       LVL=0

      01000BBAH   BLOCK     CODE     ---       LVL=0
      01000BBAH   LINE      CODE     ---       #40
      01000BC0H   LINE      CODE     ---       #42
      01000BC2H   LINE      CODE     ---       #44
      01000BC5H   LINE      CODE     ---       #45
      01000BC5H   LINE      CODE     ---       #46
      01000BC8H   LINE      CODE     ---       #47
      01000BCEH   LINE      CODE     ---       #48
      01000BD0H   LINE      CODE     ---       #49
      01000BD0H   LINE      CODE     ---       #51
      01000BD3H   LINE      CODE     ---       #52
      01000BD3H   LINE      CODE     ---       #53
      01000BD6H   LINE      CODE     ---       #54
      01000BD6H   LINE      CODE     ---       #55
      01000BD9H   LINE      CODE     ---       #56
      01000BD9H   LINE      CODE     ---       #57
      01000BD9H   LINE      CODE     ---       #58
      01000BDBH   LINE      CODE     ---       #59
      ---         BLOCKEND  ---      ---       LVL=0

      0100059FH   BLOCK     CODE     ---       LVL=0
      02000000H   SYMBOL    XDATA    DWORD     u32SysClock
      02000004H   SYMBOL    XDATA    BYTE      u8UARTPort
      02000005H   SYMBOL    XDATA    DWORD     u32Baudrate
      0100059FH   LINE      CODE     ---       #62
      010005A5H   LINE      CODE     ---       #63
      010005A5H   LINE      CODE     ---       #64
      010005A8H   LINE      CODE     ---       #65
      010005BCH   LINE      CODE     ---       #66
      010005BCH   LINE      CODE     ---       #67
      010005BCH   LINE      CODE     ---       #68
      010005BFH   LINE      CODE     ---       #69
      010005C2H   LINE      CODE     ---       #70
      010005C5H   LINE      CODE     ---       #71
      010005CBH   LINE      CODE     ---       #72
      010005D0H   LINE      CODE     ---       #73
      010005FCH   LINE      CODE     ---       #74
      010005FFH   LINE      CODE     ---       #75
      01000602H   LINE      CODE     ---       #76
      01000603H   LINE      CODE     ---       #78
      01000603H   LINE      CODE     ---       #79
      01000606H   LINE      CODE     ---       #80
      01000609H   LINE      CODE     ---       #81
      0100060CH   LINE      CODE     ---       #82
      01000612H   LINE      CODE     ---       #83
      0100064EH   LINE      CODE     ---       #84
      01000688H   LINE      CODE     ---       #85
      0100068DH   LINE      CODE     ---       #86
      01000690H   LINE      CODE     ---       #87
      01000691H   LINE      CODE     ---       #89
      01000691H   LINE      CODE     ---       #90
      01000694H   LINE      CODE     ---       #91
      01000697H   LINE      CODE     ---       #92
      010006D4H   LINE      CODE     ---       #93
      0100070EH   LINE      CODE     ---       #94
      01000713H   LINE      CODE     ---       #95
      01000718H   LINE      CODE     ---       #96
      01000718H   LINE      CODE     ---       #97
      01000718H   LINE      CODE     ---       #98
      ---         BLOCKEND  ---      ---       LVL=0
LX51 LINKER/LOCATER V4.66.97.0                                                        10/09/2022  21:02:01  PAGE 30



      0100005DH   BLOCK     CODE     ---       LVL=0
      00000007H   SYMBOL    DATA     BYTE      UARTPort
      0100005DH   BLOCK     CODE     NEAR LAB  LVL=1
      00000006H   SYMBOL    DATA     BYTE      c
      ---         BLOCKEND  ---      ---       LVL=1
      0100005DH   LINE      CODE     ---       #100
      0100005DH   LINE      CODE     ---       #101
      0100005DH   LINE      CODE     ---       #103
      01000060H   LINE      CODE     ---       #104
      01000067H   LINE      CODE     ---       #105
      01000067H   LINE      CODE     ---       #106
      01000067H   LINE      CODE     ---       #107
      0100006AH   LINE      CODE     ---       #108
      0100006CH   LINE      CODE     ---       #109
      0100006EH   LINE      CODE     ---       #110
      01000070H   LINE      CODE     ---       #112
      01000070H   LINE      CODE     ---       #113
      01000073H   LINE      CODE     ---       #114
      01000075H   LINE      CODE     ---       #115
      01000077H   LINE      CODE     ---       #116
      01000077H   LINE      CODE     ---       #117
      01000077H   LINE      CODE     ---       #119
      01000079H   LINE      CODE     ---       #120
      ---         BLOCKEND  ---      ---       LVL=0

      01000C2FH   BLOCK     CODE     ---       LVL=0
      00000007H   SYMBOL    DATA     BYTE      UARTPort
      00000005H   SYMBOL    DATA     BYTE      c
      01000C2FH   LINE      CODE     ---       #122
      01000C2FH   LINE      CODE     ---       #123
      01000C2FH   LINE      CODE     ---       #124
      01000C31H   LINE      CODE     ---       #125
      01000C34H   LINE      CODE     ---       #126
      01000C3BH   LINE      CODE     ---       #127
      01000C3BH   LINE      CODE     ---       #128
      01000C3BH   LINE      CODE     ---       #129
      01000C3DH   LINE      CODE     ---       #130
      01000C3FH   LINE      CODE     ---       #131
      01000C44H   LINE      CODE     ---       #132
      01000C46H   LINE      CODE     ---       #133
      01000C46H   LINE      CODE     ---       #134
      01000C48H   LINE      CODE     ---       #135
      01000C4CH   LINE      CODE     ---       #136
      01000C4FH   LINE      CODE     ---       #137
      01000C4FH   LINE      CODE     ---       #138
      01000C4FH   LINE      CODE     ---       #139
      01000C51H   LINE      CODE     ---       #140
      ---         BLOCKEND  ---      ---       LVL=0

      01000C09H   BLOCK     CODE     ---       LVL=0
      01000C09H   LINE      CODE     ---       #143
      01000C09H   LINE      CODE     ---       #144
      01000C09H   LINE      CODE     ---       #145
      01000C12H   LINE      CODE     ---       #146
      01000C29H   LINE      CODE     ---       #147
      01000C2EH   LINE      CODE     ---       #148
      ---         BLOCKEND  ---      ---       LVL=0

      ---         MODULE    ---      ---       ?C_STARTUP
      01000000H   PUBLIC    CODE     ---       ?C_STARTUP
      000000E0H   SYMBOL    DATA     ---       ACC
      000000F0H   SYMBOL    DATA     ---       B
      00000083H   SYMBOL    DATA     ---       DPH
      00000082H   SYMBOL    DATA     ---       DPL
LX51 LINKER/LOCATER V4.66.97.0                                                        10/09/2022  21:02:01  PAGE 31


      00000000H   SYMBOL    NUMBER   ---       IBPSTACK
      00000100H   SYMBOL    NUMBER   ---       IBPSTACKTOP
      00000080H   SYMBOL    NUMBER   ---       IDATALEN
      01000AB6H   SYMBOL    CODE     ---       IDATALOOP
      00000000H   SYMBOL    NUMBER   ---       PBPSTACK
      00000000H   SYMBOL    NUMBER   ---       PBPSTACKTOP
      00000000H   SYMBOL    NUMBER   ---       PDATALEN
      00000000H   SYMBOL    NUMBER   ---       PDATASTART
      00000000H   SYMBOL    NUMBER   ---       PPAGE
      00000000H   SYMBOL    NUMBER   ---       PPAGEENABLE
      000000A0H   SYMBOL    DATA     ---       PPAGE_SFR
      00000081H   SYMBOL    DATA     ---       SP
      01000AB3H   SYMBOL    CODE     ---       STARTUP1
      00000000H   SYMBOL    NUMBER   ---       XBPSTACK
      00000000H   SYMBOL    NUMBER   ---       XBPSTACKTOP
      000002FFH   SYMBOL    NUMBER   ---       XDATALEN
      01000AC1H   SYMBOL    CODE     ---       XDATALOOP
      00000000H   SYMBOL    NUMBER   ---       XDATASTART
      01000000H   LINE      CODE     ---       #94
      01000AB3H   LINE      CODE     ---       #109
      01000AB5H   LINE      CODE     ---       #110
      01000AB6H   LINE      CODE     ---       #111
      01000AB7H   LINE      CODE     ---       #112
      01000AB9H   LINE      CODE     ---       #116
      01000ABCH   LINE      CODE     ---       #117
      01000ABEH   LINE      CODE     ---       #119
      01000AC0H   LINE      CODE     ---       #123
      01000AC1H   LINE      CODE     ---       #124
      01000AC2H   LINE      CODE     ---       #125
      01000AC3H   LINE      CODE     ---       #126
      01000AC5H   LINE      CODE     ---       #127
      01000AC7H   LINE      CODE     ---       #161
      01000ACAH   LINE      CODE     ---       #165

      ---         MODULE    ---      ---       ?C_INIT
      01000B08H   PUBLIC    CODE     ---       ?C_START

      ---         MODULE    ---      ---       ?C?ULDIV
      0100041FH   PUBLIC    CODE     ---       ?C?ULDIV

      ---         MODULE    ---      ---       ?C?ULSHR
      010004B1H   PUBLIC    CODE     ---       ?C?ULSHR

      ---         MODULE    ---      ---       ?C?LSTXDATA
      010004C4H   PUBLIC    CODE     ---       ?C?LSTXDATA

      ---         MODULE    ---      ---       ?C?LSTKXDATA
      010004D0H   PUBLIC    CODE     ---       ?C?LSTKXDATA

      ---         MODULE    ---      ---       PRINTF
      02000000H   PUBLIC    XDATA    ---       ?_PRINTF517?BYTE
      02000000H   PUBLIC    XDATA    ---       ?_PRINTF?BYTE
      02000000H   PUBLIC    XDATA    ---       ?_SPRINTF517?BYTE
      02000000H   PUBLIC    XDATA    ---       ?_SPRINTF?BYTE
      010000E9H   PUBLIC    CODE     ---       _PRINTF
      010000E9H   PUBLIC    CODE     ---       _PRINTF517
      010000E3H   PUBLIC    CODE     ---       _SPRINTF
      010000E3H   PUBLIC    CODE     ---       _SPRINTF517

      ---         MODULE    ---      ---       ?C?CLDPTR
      01000501H   PUBLIC    CODE     ---       ?C?CLDPTR

      ---         MODULE    ---      ---       ?C?CLDOPTR
      0100051AH   PUBLIC    CODE     ---       ?C?CLDOPTR

LX51 LINKER/LOCATER V4.66.97.0                                                        10/09/2022  21:02:01  PAGE 32


      ---         MODULE    ---      ---       ?C?CSTPTR
      01000547H   PUBLIC    CODE     ---       ?C?CSTPTR

      ---         MODULE    ---      ---       ?C?PLDIXDATA
      01000559H   PUBLIC    CODE     ---       ?C?PLDIXDATA

      ---         MODULE    ---      ---       ?C?PSTXDATA
      01000570H   PUBLIC    CODE     ---       ?C?PSTXDATA

      ---         MODULE    ---      ---       ?C?CCASE
      01000579H   PUBLIC    CODE     ---       ?C?CCASE

      ---         MODULE    ---      ---       PUTCHAR
      01000BE2H   PUBLIC    CODE     ---       _PUTCHAR



*** WARNING L57: UNCALLED FUNCTION, IGNORED FOR OVERLAY PROCESS
    NAME:    _FSYSSELECT/SYS

*** WARNING L57: UNCALLED FUNCTION, IGNORED FOR OVERLAY PROCESS
    NAME:    _CLOCKDISABLE/SYS

*** WARNING L57: UNCALLED FUNCTION, IGNORED FOR OVERLAY PROCESS
    NAME:    _RECEIVE_DATA/UART

*** WARNING L57: UNCALLED FUNCTION, IGNORED FOR OVERLAY PROCESS
    NAME:    _UART_SEND_DATA/UART

*** WARNING L57: UNCALLED FUNCTION, IGNORED FOR OVERLAY PROCESS
    NAME:    ENABLE_UART0_VCOM_PRINTF_24M_115200/UART

*** ERROR L127: UNRESOLVED EXTERNAL SYMBOL
    SYMBOL:  BIT_TMP
    MODULE:  .\Output\sys.obj (SYS)

*** ERROR L128: REFERENCE MADE TO UNRESOLVED EXTERNAL
    SYMBOL:  BIT_TMP
    MODULE:  .\Output\sys.obj (SYS)
    ADDRESS: 100073BH

*** ERROR L128: REFERENCE MADE TO UNRESOLVED EXTERNAL
    SYMBOL:  BIT_TMP
    MODULE:  .\Output\sys.obj (SYS)
    ADDRESS: 1000748H

*** ERROR L128: REFERENCE MADE TO UNRESOLVED EXTERNAL
    SYMBOL:  BIT_TMP
    MODULE:  .\Output\sys.obj (SYS)
    ADDRESS: 1000755H

*** ERROR L128: REFERENCE MADE TO UNRESOLVED EXTERNAL
    SYMBOL:  BIT_TMP
    MODULE:  .\Output\sys.obj (SYS)
    ADDRESS: 1000762H

*** ERROR L128: REFERENCE MADE TO UNRESOLVED EXTERNAL
    SYMBOL:  BIT_TMP
    MODULE:  .\Output\sys.obj (SYS)
    ADDRESS: 100076FH

*** ERROR L128: REFERENCE MADE TO UNRESOLVED EXTERNAL
    SYMBOL:  BIT_TMP
    MODULE:  .\Output\sys.obj (SYS)
    ADDRESS: 100077CH
LX51 LINKER/LOCATER V4.66.97.0                                                        10/09/2022  21:02:01  PAGE 33



*** ERROR L128: REFERENCE MADE TO UNRESOLVED EXTERNAL
    SYMBOL:  BIT_TMP
    MODULE:  .\Output\sys.obj (SYS)
    ADDRESS: 10007BFH

*** ERROR L128: REFERENCE MADE TO UNRESOLVED EXTERNAL
    SYMBOL:  BIT_TMP
    MODULE:  .\Output\sys.obj (SYS)
    ADDRESS: 10007CCH

*** ERROR L128: REFERENCE MADE TO UNRESOLVED EXTERNAL
    SYMBOL:  BIT_TMP
    MODULE:  .\Output\sys.obj (SYS)
    ADDRESS: 1000831H

*** ERROR L128: REFERENCE MADE TO UNRESOLVED EXTERNAL
    SYMBOL:  BIT_TMP
    MODULE:  .\Output\sys.obj (SYS)
    ADDRESS: 100083EH

*** ERROR L128: REFERENCE MADE TO UNRESOLVED EXTERNAL
    SYMBOL:  BIT_TMP
    MODULE:  .\Output\sys.obj (SYS)
    ADDRESS: 100096CH

*** ERROR L128: REFERENCE MADE TO UNRESOLVED EXTERNAL
    SYMBOL:  BIT_TMP
    MODULE:  .\Output\sys.obj (SYS)
    ADDRESS: 1000979H

*** ERROR L128: REFERENCE MADE TO UNRESOLVED EXTERNAL
    SYMBOL:  BIT_TMP
    MODULE:  .\Output\sys.obj (SYS)
    ADDRESS: 1000998H

*** ERROR L128: REFERENCE MADE TO UNRESOLVED EXTERNAL
    SYMBOL:  BIT_TMP
    MODULE:  .\Output\sys.obj (SYS)
    ADDRESS: 10009A5H

*** ERROR L128: REFERENCE MADE TO UNRESOLVED EXTERNAL
    SYMBOL:  BIT_TMP
    MODULE:  .\Output\sys.obj (SYS)
    ADDRESS: 10009C3H

*** ERROR L128: REFERENCE MADE TO UNRESOLVED EXTERNAL
    SYMBOL:  BIT_TMP
    MODULE:  .\Output\sys.obj (SYS)
    ADDRESS: 10009D0H

*** ERROR L128: REFERENCE MADE TO UNRESOLVED EXTERNAL
    SYMBOL:  BIT_TMP
    MODULE:  .\Output\sys.obj (SYS)
    ADDRESS: 10009EEH

*** ERROR L128: REFERENCE MADE TO UNRESOLVED EXTERNAL
    SYMBOL:  BIT_TMP
    MODULE:  .\Output\sys.obj (SYS)
    ADDRESS: 10009FBH

*** ERROR L128: REFERENCE MADE TO UNRESOLVED EXTERNAL
    SYMBOL:  BIT_TMP
    MODULE:  .\Output\sys.obj (SYS)
    ADDRESS: 1000866H
LX51 LINKER/LOCATER V4.66.97.0                                                        10/09/2022  21:02:01  PAGE 34



*** ERROR L128: REFERENCE MADE TO UNRESOLVED EXTERNAL
    SYMBOL:  BIT_TMP
    MODULE:  .\Output\sys.obj (SYS)
    ADDRESS: 1000873H

*** ERROR L128: REFERENCE MADE TO UNRESOLVED EXTERNAL
    SYMBOL:  BIT_TMP
    MODULE:  .\Output\sys.obj (SYS)
    ADDRESS: 100087BH

*** ERROR L128: REFERENCE MADE TO UNRESOLVED EXTERNAL
    SYMBOL:  BIT_TMP
    MODULE:  .\Output\sys.obj (SYS)
    ADDRESS: 1000888H

*** ERROR L128: REFERENCE MADE TO UNRESOLVED EXTERNAL
    SYMBOL:  BIT_TMP
    MODULE:  .\Output\sys.obj (SYS)
    ADDRESS: 100089DH

*** ERROR L128: REFERENCE MADE TO UNRESOLVED EXTERNAL
    SYMBOL:  BIT_TMP
    MODULE:  .\Output\sys.obj (SYS)
    ADDRESS: 10008AAH

*** ERROR L128: REFERENCE MADE TO UNRESOLVED EXTERNAL
    SYMBOL:  BIT_TMP
    MODULE:  .\Output\sys.obj (SYS)
    ADDRESS: 10008BEH

*** ERROR L128: REFERENCE MADE TO UNRESOLVED EXTERNAL
    SYMBOL:  BIT_TMP
    MODULE:  .\Output\sys.obj (SYS)
    ADDRESS: 10008CBH

*** ERROR L128: REFERENCE MADE TO UNRESOLVED EXTERNAL
    SYMBOL:  BIT_TMP
    MODULE:  .\Output\sys.obj (SYS)
    ADDRESS: 10008DCH

*** ERROR L128: REFERENCE MADE TO UNRESOLVED EXTERNAL
    SYMBOL:  BIT_TMP
    MODULE:  .\Output\sys.obj (SYS)
    ADDRESS: 10008E9H

*** ERROR L128: REFERENCE MADE TO UNRESOLVED EXTERNAL
    SYMBOL:  BIT_TMP
    MODULE:  .\Output\sys.obj (SYS)
    ADDRESS: 10008F1H

*** ERROR L128: REFERENCE MADE TO UNRESOLVED EXTERNAL
    SYMBOL:  BIT_TMP
    MODULE:  .\Output\sys.obj (SYS)
    ADDRESS: 10008FEH

*** ERROR L128: REFERENCE MADE TO UNRESOLVED EXTERNAL
    SYMBOL:  BIT_TMP
    MODULE:  .\Output\sys.obj (SYS)
    ADDRESS: 100090FH

*** ERROR L128: REFERENCE MADE TO UNRESOLVED EXTERNAL
    SYMBOL:  BIT_TMP
    MODULE:  .\Output\sys.obj (SYS)
    ADDRESS: 100091CH
LX51 LINKER/LOCATER V4.66.97.0                                                        10/09/2022  21:02:01  PAGE 35



*** ERROR L128: REFERENCE MADE TO UNRESOLVED EXTERNAL
    SYMBOL:  BIT_TMP
    MODULE:  .\Output\sys.obj (SYS)
    ADDRESS: 1000924H

*** ERROR L128: REFERENCE MADE TO UNRESOLVED EXTERNAL
    SYMBOL:  BIT_TMP
    MODULE:  .\Output\sys.obj (SYS)
    ADDRESS: 1000931H

*** ERROR L128: REFERENCE MADE TO UNRESOLVED EXTERNAL
    SYMBOL:  BIT_TMP
    MODULE:  .\Output\sys.obj (SYS)
    ADDRESS: 1000B6EH

*** ERROR L128: REFERENCE MADE TO UNRESOLVED EXTERNAL
    SYMBOL:  BIT_TMP
    MODULE:  .\Output\sys.obj (SYS)
    ADDRESS: 1000B7BH

*** ERROR L128: REFERENCE MADE TO UNRESOLVED EXTERNAL
    SYMBOL:  BIT_TMP
    MODULE:  .\Output\sys.obj (SYS)
    ADDRESS: 1000B86H

*** ERROR L128: REFERENCE MADE TO UNRESOLVED EXTERNAL
    SYMBOL:  BIT_TMP
    MODULE:  .\Output\sys.obj (SYS)
    ADDRESS: 1000B93H

*** ERROR L128: REFERENCE MADE TO UNRESOLVED EXTERNAL
    SYMBOL:  BIT_TMP
    MODULE:  .\Output\sys.obj (SYS)
    ADDRESS: 1000BA7H

*** ERROR L128: REFERENCE MADE TO UNRESOLVED EXTERNAL
    SYMBOL:  BIT_TMP
    MODULE:  .\Output\sys.obj (SYS)
    ADDRESS: 1000BB4H

*** ERROR L128: REFERENCE MADE TO UNRESOLVED EXTERNAL
    SYMBOL:  BIT_TMP
    MODULE:  .\Output\sys.obj (SYS)
    ADDRESS: 1000A07H

*** ERROR L128: REFERENCE MADE TO UNRESOLVED EXTERNAL
    SYMBOL:  BIT_TMP
    MODULE:  .\Output\sys.obj (SYS)
    ADDRESS: 1000A26H

*** ERROR L128: REFERENCE MADE TO UNRESOLVED EXTERNAL
    SYMBOL:  BIT_TMP
    MODULE:  .\Output\sys.obj (SYS)
    ADDRESS: 1000A33H

*** ERROR L128: REFERENCE MADE TO UNRESOLVED EXTERNAL
    SYMBOL:  BIT_TMP
    MODULE:  .\Output\sys.obj (SYS)
    ADDRESS: 1000A3BH

*** ERROR L128: REFERENCE MADE TO UNRESOLVED EXTERNAL
    SYMBOL:  BIT_TMP
    MODULE:  .\Output\sys.obj (SYS)
    ADDRESS: 1000A48H
LX51 LINKER/LOCATER V4.66.97.0                                                        10/09/2022  21:02:01  PAGE 36



*** ERROR L128: REFERENCE MADE TO UNRESOLVED EXTERNAL
    SYMBOL:  BIT_TMP
    MODULE:  .\Output\sys.obj (SYS)
    ADDRESS: 1000A53H

*** ERROR L128: REFERENCE MADE TO UNRESOLVED EXTERNAL
    SYMBOL:  BIT_TMP
    MODULE:  .\Output\sys.obj (SYS)
    ADDRESS: 1000A60H

*** ERROR L128: REFERENCE MADE TO UNRESOLVED EXTERNAL
    SYMBOL:  BIT_TMP
    MODULE:  .\Output\sys.obj (SYS)
    ADDRESS: 1000A68H

*** ERROR L128: REFERENCE MADE TO UNRESOLVED EXTERNAL
    SYMBOL:  BIT_TMP
    MODULE:  .\Output\sys.obj (SYS)
    ADDRESS: 1000A75H

*** ERROR L128: REFERENCE MADE TO UNRESOLVED EXTERNAL
    SYMBOL:  BIT_TMP
    MODULE:  .\Output\sys.obj (SYS)
    ADDRESS: 1000A89H

*** ERROR L128: REFERENCE MADE TO UNRESOLVED EXTERNAL
    SYMBOL:  BIT_TMP
    MODULE:  .\Output\sys.obj (SYS)
    ADDRESS: 1000A96H

*** ERROR L128: REFERENCE MADE TO UNRESOLVED EXTERNAL
    SYMBOL:  BIT_TMP
    MODULE:  .\Output\sys.obj (SYS)
    ADDRESS: 1000A9EH

*** ERROR L128: REFERENCE MADE TO UNRESOLVED EXTERNAL
    SYMBOL:  BIT_TMP
    MODULE:  .\Output\sys.obj (SYS)
    ADDRESS: 1000AABH

*** ERROR L128: REFERENCE MADE TO UNRESOLVED EXTERNAL
    SYMBOL:  BIT_TMP
    MODULE:  .\Output\sys.obj (SYS)
    ADDRESS: 1000AAFH

Program Size: data=15.6 xdata=42 const=15 code=3157
LX51 RUN COMPLETE.  5 WARNING(S),  55 ERROR(S)
