; generated by Component: ARM Compiler 5.06 update 7 (build 960) Tool: ArmCC [4d365d]
; commandline ArmCC [--list --split_sections --debug -c --asm --interleave -o.\obj\control_logic.o --asm_dir=.\lst\ --list_dir=.\lst\ --depend=.\obj\control_logic.d --cpu=Cortex-M0 --apcs=interwork --diag_suppress=9931 -I..\..\..\..\Library\CMSIS\Include -I..\..\..\..\Library\Device\Nuvoton\M031\Include -I..\..\..\..\Library\StdDriver\inc -I..\ -IC:\Keil_v5\ARM\RV31\INC -IC:\Keil_v5\ARM\CMSIS\Include -D__MICROLIB -D__UVISION_VERSION=535 --omf_browse=.\obj\control_logic.crf ..\control_logic.c]
                          THUMB

                          AREA ||i.GetBoardID||, CODE, READONLY, ALIGN=2

                          REQUIRE _printf_percent
                          REQUIRE _printf_d
                          REQUIRE _printf_int_dec
                  GetBoardID PROC
;;;39     
;;;40     void GetBoardID()
000000  b510              PUSH     {r4,lr}
;;;41     {
;;;42     	if(PD0 == 0)
000002  491d              LDR      r1,|L1.120|
000004  680b              LDR      r3,[r1,#0]
;;;43     		boardID = boardID | 0x01;
000006  2201              MOVS     r2,#1
000008  481c              LDR      r0,|L1.124|
00000a  2b00              CMP      r3,#0                 ;42
00000c  d102              BNE      |L1.20|
00000e  78c3              LDRB     r3,[r0,#3]  ; boardID
000010  4313              ORRS     r3,r3,r2
000012  70c3              STRB     r3,[r0,#3]
                  |L1.20|
;;;44     	if(PD1 == 0)
000014  684b              LDR      r3,[r1,#4]
000016  2b00              CMP      r3,#0
000018  d103              BNE      |L1.34|
;;;45     		boardID = boardID | 0x02;
00001a  78c3              LDRB     r3,[r0,#3]  ; boardID
00001c  2402              MOVS     r4,#2
00001e  4323              ORRS     r3,r3,r4
000020  70c3              STRB     r3,[r0,#3]
                  |L1.34|
;;;46     	if(PD2 == 0)
000022  688b              LDR      r3,[r1,#8]
000024  2b00              CMP      r3,#0
000026  d103              BNE      |L1.48|
;;;47     		boardID = boardID | 0x04;
000028  78c3              LDRB     r3,[r0,#3]  ; boardID
00002a  2404              MOVS     r4,#4
00002c  4323              ORRS     r3,r3,r4
00002e  70c3              STRB     r3,[r0,#3]
                  |L1.48|
;;;48     	if(PD3 == 0)
000030  68c9              LDR      r1,[r1,#0xc]
000032  2900              CMP      r1,#0
000034  d103              BNE      |L1.62|
;;;49     		boardID = boardID | 0x08;
000036  78c1              LDRB     r1,[r0,#3]  ; boardID
000038  2308              MOVS     r3,#8
00003a  4319              ORRS     r1,r1,r3
00003c  70c1              STRB     r1,[r0,#3]
                  |L1.62|
;;;50     	if(PC0 == 0)
00003e  490e              LDR      r1,|L1.120|
000040  3940              SUBS     r1,r1,#0x40
000042  680b              LDR      r3,[r1,#0]
000044  2b00              CMP      r3,#0
000046  d103              BNE      |L1.80|
;;;51     		boardID = boardID | 0x10;
000048  78c3              LDRB     r3,[r0,#3]  ; boardID
00004a  2410              MOVS     r4,#0x10
00004c  4323              ORRS     r3,r3,r4
00004e  70c3              STRB     r3,[r0,#3]
                  |L1.80|
;;;52     	if(PC1 == 0)
000050  6849              LDR      r1,[r1,#4]
000052  2900              CMP      r1,#0
000054  d103              BNE      |L1.94|
;;;53     		boardID = boardID | 0x20;
000056  78c1              LDRB     r1,[r0,#3]  ; boardID
000058  2320              MOVS     r3,#0x20
00005a  4319              ORRS     r1,r1,r3
00005c  70c1              STRB     r1,[r0,#3]
                  |L1.94|
;;;54     	
;;;55     	//Variable Initialization
;;;56     	toatalDataBytesToReceived = 2 * totalRegsToRead;
00005e  7801              LDRB     r1,[r0,#0]  ; totalRegsToRead
000060  0049              LSLS     r1,r1,#1
000062  7041              STRB     r1,[r0,#1]
;;;57     	responceSize = toatalDataBytesToReceived + 3;
000064  7841              LDRB     r1,[r0,#1]  ; toatalDataBytesToReceived
000066  1cc9              ADDS     r1,r1,#3
000068  7081              STRB     r1,[r0,#2]
;;;58     	boardID = 1;
00006a  70c2              STRB     r2,[r0,#3]
;;;59     	printf("%d", boardID);
00006c  78c1              LDRB     r1,[r0,#3]  ; boardID
00006e  a004              ADR      r0,|L1.128|
000070  f7fffffe          BL       __2printf
;;;60     }
000074  bd10              POP      {r4,pc}
;;;61     
                          ENDP

000076  0000              DCW      0x0000
                  |L1.120|
                          DCD      0x400048c0
                  |L1.124|
                          DCD      ||.data||
                  |L1.128|
000080  256400            DCB      "%d",0
000083  00                DCB      0

                          AREA ||i.TIMER0_LOGIC||, CODE, READONLY, ALIGN=2

                  TIMER0_LOGIC PROC
;;;987    	
;;;988    void TIMER0_LOGIC()
000000  b570              PUSH     {r4-r6,lr}
;;;989    {
;;;990    	ticks = ticks + 1;
000002  4c0f              LDR      r4,|L2.64|
000004  6960              LDR      r0,[r4,#0x14]  ; ticks
000006  1c40              ADDS     r0,r0,#1
000008  6160              STR      r0,[r4,#0x14]  ; ticks
;;;991    	if(ticks == 2)
00000a  6960              LDR      r0,[r4,#0x14]  ; ticks
00000c  2500              MOVS     r5,#0
00000e  2802              CMP      r0,#2
000010  d108              BNE      |L2.36|
;;;992    	{
;;;993    		changePort1();
000012  f7fffffe          BL       changePort1
;;;994    		changePort2();
000016  f7fffffe          BL       changePort2
;;;995    		changePort3();
00001a  f7fffffe          BL       changePort3
;;;996    		changePort4();
00001e  f7fffffe          BL       changePort4
;;;997    		ticks = 0;
000022  6165              STR      r5,[r4,#0x14]  ; ticks
                  |L2.36|
;;;998    	}					
;;;999    
;;;1000   	if(dataReceiving != 0)
000024  68e0              LDR      r0,[r4,#0xc]  ; dataReceiving
000026  2800              CMP      r0,#0
000028  d008              BEQ      |L2.60|
;;;1001   	{
;;;1002   		seconds = seconds + 1;
00002a  6920              LDR      r0,[r4,#0x10]  ; seconds
00002c  1c40              ADDS     r0,r0,#1
00002e  6120              STR      r0,[r4,#0x10]  ; seconds
;;;1003   		if(seconds > 4)
000030  6920              LDR      r0,[r4,#0x10]  ; seconds
000032  2804              CMP      r0,#4
000034  d902              BLS      |L2.60|
;;;1004   		{
;;;1005   			seconds = 0;
000036  6125              STR      r5,[r4,#0x10]  ; seconds
;;;1006   			dataReceiving = 0;
000038  60e5              STR      r5,[r4,#0xc]  ; dataReceiving
;;;1007   			arrayIndex = 0;
00003a  60a5              STR      r5,[r4,#8]  ; arrayIndex
                  |L2.60|
;;;1008   		}
;;;1009   	}	
;;;1010   }
00003c  bd70              POP      {r4-r6,pc}
                          ENDP

00003e  0000              DCW      0x0000
                  |L2.64|
                          DCD      ||.data||

                          AREA ||i.UART_LOGIC||, CODE, READONLY, ALIGN=2

                  UART_LOGIC PROC
;;;930    
;;;931    void UART_LOGIC(uint8_t u8InChar)
000000  b570              PUSH     {r4-r6,lr}
;;;932    {
;;;933    	if(dataReceiving == 1)
000002  4c32              LDR      r4,|L3.204|
000004  4605              MOV      r5,r0                 ;932
000006  68e0              LDR      r0,[r4,#0xc]  ; dataReceiving
;;;934    		{
;;;935    			responce[arrayIndex] = u8InChar;					
000008  4e31              LDR      r6,|L3.208|
00000a  2801              CMP      r0,#1                 ;933
00000c  d150              BNE      |L3.176|
00000e  68a0              LDR      r0,[r4,#8]  ; arrayIndex
000010  5435              STRB     r5,[r6,r0]
;;;936    			if(arrayIndex == 1)
000012  68a1              LDR      r1,[r4,#8]  ; arrayIndex
000014  2000              MOVS     r0,#0
000016  2901              CMP      r1,#1
000018  d10e              BNE      |L3.56|
;;;937    				{					
;;;938    					if(u8InChar != 0x03)
00001a  2d03              CMP      r5,#3
00001c  d00c              BEQ      |L3.56|
;;;939    						{
;;;940    							if(u8InChar == 0x83)
00001e  2d83              CMP      r5,#0x83
000020  d108              BNE      |L3.52|
;;;941    							{
;;;942    								totalRegsToRead = totalRegsToRead - 1;
000022  7821              LDRB     r1,[r4,#0]  ; totalRegsToRead
000024  1e49              SUBS     r1,r1,#1
000026  7021              STRB     r1,[r4,#0]
;;;943    								toatalDataBytesToReceived = 2 * totalRegsToRead;
000028  7821              LDRB     r1,[r4,#0]  ; totalRegsToRead
00002a  0049              LSLS     r1,r1,#1
00002c  7061              STRB     r1,[r4,#1]
;;;944    								responceSize = toatalDataBytesToReceived + 3;
00002e  7861              LDRB     r1,[r4,#1]  ; toatalDataBytesToReceived
000030  1cc9              ADDS     r1,r1,#3
000032  70a1              STRB     r1,[r4,#2]
                  |L3.52|
;;;945    								//masterCommand[11] = totalRegsToRead;
;;;946    							}
;;;947    							dataReceiving = 0;
000034  60e0              STR      r0,[r4,#0xc]  ; dataReceiving
;;;948    							arrayIndex = 0;
000036  60a0              STR      r0,[r4,#8]  ; arrayIndex
                  |L3.56|
;;;949    						}
;;;950    				}
;;;951    			if(arrayIndex == 2)
000038  68a1              LDR      r1,[r4,#8]  ; arrayIndex
00003a  2902              CMP      r1,#2
00003c  d104              BNE      |L3.72|
;;;952    				{
;;;953    					if(u8InChar != toatalDataBytesToReceived)
00003e  7861              LDRB     r1,[r4,#1]  ; toatalDataBytesToReceived
000040  428d              CMP      r5,r1
000042  d001              BEQ      |L3.72|
;;;954    						{
;;;955    							dataReceiving = 0;
000044  60e0              STR      r0,[r4,#0xc]  ; dataReceiving
;;;956    							arrayIndex = 0;
000046  60a0              STR      r0,[r4,#8]  ; arrayIndex
                  |L3.72|
;;;957    						}
;;;958    				}
;;;959    			if(dataReceiving == 1)
000048  68e1              LDR      r1,[r4,#0xc]  ; dataReceiving
00004a  2901              CMP      r1,#1
00004c  d102              BNE      |L3.84|
;;;960    				arrayIndex = arrayIndex + 1;
00004e  68a1              LDR      r1,[r4,#8]  ; arrayIndex
000050  1c49              ADDS     r1,r1,#1
000052  60a1              STR      r1,[r4,#8]  ; arrayIndex
                  |L3.84|
;;;961    			if(arrayIndex == responceSize)
000054  68a1              LDR      r1,[r4,#8]  ; arrayIndex
000056  78a2              LDRB     r2,[r4,#2]  ; responceSize
000058  4291              CMP      r1,r2
00005a  d129              BNE      |L3.176|
;;;962    				{
;;;963    					dataReceiving = 0;
00005c  60e0              STR      r0,[r4,#0xc]  ; dataReceiving
;;;964    					arrayIndex = 0;
00005e  60a0              STR      r0,[r4,#8]  ; arrayIndex
;;;965    					First_Reg_L = (3 * boardID) + (boardID - 1);
000060  78e0              LDRB     r0,[r4,#3]  ; boardID
000062  0041              LSLS     r1,r0,#1
000064  1840              ADDS     r0,r0,r1
000066  78e1              LDRB     r1,[r4,#3]  ; boardID
000068  1840              ADDS     r0,r0,r1
00006a  1e40              SUBS     r0,r0,#1
00006c  7120              STRB     r0,[r4,#4]
;;;966    					First_Reg_H = First_Reg_L + 1;
00006e  7920              LDRB     r0,[r4,#4]  ; First_Reg_L
000070  1c40              ADDS     r0,r0,#1
000072  7160              STRB     r0,[r4,#5]
;;;967    					Second_Reg_L = First_Reg_H + 1;
000074  7960              LDRB     r0,[r4,#5]  ; First_Reg_H
000076  1c40              ADDS     r0,r0,#1
000078  71a0              STRB     r0,[r4,#6]
;;;968    					Second_Reg_H = Second_Reg_L + 1;					
00007a  79a0              LDRB     r0,[r4,#6]  ; Second_Reg_L
00007c  1c40              ADDS     r0,r0,#1
00007e  71e0              STRB     r0,[r4,#7]
;;;969    					setPort_4(responce[First_Reg_H]);
000080  7960              LDRB     r0,[r4,#5]  ; First_Reg_H
000082  5c30              LDRB     r0,[r6,r0]
000084  f7fffffe          BL       setPort_4
;;;970    					setPort_2(responce[First_Reg_L]);
000088  7920              LDRB     r0,[r4,#4]  ; First_Reg_L
00008a  5c30              LDRB     r0,[r6,r0]
00008c  f7fffffe          BL       setPort_2
;;;971    					setPort_3(responce[Second_Reg_H]);
000090  79e0              LDRB     r0,[r4,#7]  ; Second_Reg_H
000092  5c30              LDRB     r0,[r6,r0]
000094  f7fffffe          BL       setPort_3
;;;972    					setPort_1(responce[Second_Reg_L]);
000098  79a0              LDRB     r0,[r4,#6]  ; Second_Reg_L
00009a  5c30              LDRB     r0,[r6,r0]
00009c  f7fffffe          BL       setPort_1
;;;973    					
;;;974    					changePort1States();
0000a0  f7fffffe          BL       changePort1States
;;;975    					changePort2States();
0000a4  f7fffffe          BL       changePort2States
;;;976    					changePort3States();
0000a8  f7fffffe          BL       changePort3States
;;;977    					changePort4States();
0000ac  f7fffffe          BL       changePort4States
                  |L3.176|
;;;978    				}
;;;979    		}
;;;980    	if(u8InChar == 0x01 && dataReceiving == 0)
0000b0  2d01              CMP      r5,#1
0000b2  d109              BNE      |L3.200|
0000b4  68e0              LDR      r0,[r4,#0xc]  ; dataReceiving
0000b6  2800              CMP      r0,#0
0000b8  d106              BNE      |L3.200|
;;;981    		{
;;;982    			responce[arrayIndex] = u8InChar;
0000ba  68a0              LDR      r0,[r4,#8]  ; arrayIndex
0000bc  5435              STRB     r5,[r6,r0]
;;;983    			dataReceiving = 1;
0000be  2001              MOVS     r0,#1
0000c0  60e0              STR      r0,[r4,#0xc]  ; dataReceiving
;;;984    			arrayIndex = arrayIndex + 1;
0000c2  68a0              LDR      r0,[r4,#8]  ; arrayIndex
0000c4  1c40              ADDS     r0,r0,#1
0000c6  60a0              STR      r0,[r4,#8]  ; arrayIndex
                  |L3.200|
;;;985    		}
;;;986    }
0000c8  bd70              POP      {r4-r6,pc}
;;;987    	
                          ENDP

0000ca  0000              DCW      0x0000
                  |L3.204|
                          DCD      ||.data||
                  |L3.208|
                          DCD      ||.bss||

                          AREA ||i.changePort1||, CODE, READONLY, ALIGN=2

                  changePort1 PROC
;;;693    
;;;694    void changePort1()
000000  b510              PUSH     {r4,lr}
;;;695    {
;;;696    	printf("1");
000002  a046              ADR      r0,|L4.284|
000004  f7fffffe          BL       __2printf
;;;697    	if(port1States[0] == 1)
000008  4b45              LDR      r3,|L4.288|
00000a  781c              LDRB     r4,[r3,#0]  ; port1States
;;;698    		PB15 = 1;
00000c  2101              MOVS     r1,#1
00000e  2200              MOVS     r2,#0
000010  4844              LDR      r0,|L4.292|
000012  2c01              CMP      r4,#1                 ;697
000014  d006              BEQ      |L4.36|
;;;699    	else if(port1States[0] == 0)
000016  781c              LDRB     r4,[r3,#0]  ; port1States
000018  2c00              CMP      r4,#0
00001a  d005              BEQ      |L4.40|
;;;700    		PB15 = 0;
;;;701    	else if(port1States[0] == 6)
00001c  781c              LDRB     r4,[r3,#0]  ; port1States
00001e  2c06              CMP      r4,#6
000020  d004              BEQ      |L4.44|
000022  e006              B        |L4.50|
                  |L4.36|
000024  63c1              STR      r1,[r0,#0x3c]         ;698
000026  e004              B        |L4.50|
                  |L4.40|
000028  63c2              STR      r2,[r0,#0x3c]         ;700
00002a  e002              B        |L4.50|
                  |L4.44|
;;;702    		PB15 = ~(PB15);
00002c  6bc4              LDR      r4,[r0,#0x3c]
00002e  43e4              MVNS     r4,r4
000030  63c4              STR      r4,[r0,#0x3c]
                  |L4.50|
;;;703    	
;;;704    	if(port1States[1] == 1)
000032  785c              LDRB     r4,[r3,#1]  ; port1States
000034  2c01              CMP      r4,#1
000036  d006              BEQ      |L4.70|
;;;705    		PB14 = 1;
;;;706    	else if(port1States[1] == 0)
000038  785c              LDRB     r4,[r3,#1]  ; port1States
00003a  2c00              CMP      r4,#0
00003c  d005              BEQ      |L4.74|
;;;707    		PB14 = 0;
;;;708    	else if(port1States[1] == 6)
00003e  785c              LDRB     r4,[r3,#1]  ; port1States
000040  2c06              CMP      r4,#6
000042  d004              BEQ      |L4.78|
000044  e006              B        |L4.84|
                  |L4.70|
000046  6381              STR      r1,[r0,#0x38]         ;705
000048  e004              B        |L4.84|
                  |L4.74|
00004a  6382              STR      r2,[r0,#0x38]         ;707
00004c  e002              B        |L4.84|
                  |L4.78|
;;;709    		PB14 = ~(PB14);
00004e  6b84              LDR      r4,[r0,#0x38]
000050  43e4              MVNS     r4,r4
000052  6384              STR      r4,[r0,#0x38]
                  |L4.84|
;;;710    	
;;;711    	if(port1States[2] == 1)
000054  789c              LDRB     r4,[r3,#2]  ; port1States
000056  2c01              CMP      r4,#1
000058  d006              BEQ      |L4.104|
;;;712    		PB13 = 1;
;;;713    	else if(port1States[2] == 0)
00005a  789c              LDRB     r4,[r3,#2]  ; port1States
00005c  2c00              CMP      r4,#0
00005e  d005              BEQ      |L4.108|
;;;714    		PB13 = 0;
;;;715    	else if(port1States[2] == 6)
000060  789c              LDRB     r4,[r3,#2]  ; port1States
000062  2c06              CMP      r4,#6
000064  d004              BEQ      |L4.112|
000066  e006              B        |L4.118|
                  |L4.104|
000068  6341              STR      r1,[r0,#0x34]         ;712
00006a  e004              B        |L4.118|
                  |L4.108|
00006c  6342              STR      r2,[r0,#0x34]         ;714
00006e  e002              B        |L4.118|
                  |L4.112|
;;;716    		PB13 = ~(PB13);
000070  6b44              LDR      r4,[r0,#0x34]
000072  43e4              MVNS     r4,r4
000074  6344              STR      r4,[r0,#0x34]
                  |L4.118|
;;;717    	
;;;718    	if(port1States[3] == 1)
000076  78dc              LDRB     r4,[r3,#3]  ; port1States
000078  2c01              CMP      r4,#1
00007a  d006              BEQ      |L4.138|
;;;719    		PB12 = 1;
;;;720    	else if(port1States[3] == 0)
00007c  78dc              LDRB     r4,[r3,#3]  ; port1States
00007e  2c00              CMP      r4,#0
000080  d005              BEQ      |L4.142|
;;;721    		PB12 = 0;
;;;722    	else if(port1States[3] == 6)
000082  78dc              LDRB     r4,[r3,#3]  ; port1States
000084  2c06              CMP      r4,#6
000086  d004              BEQ      |L4.146|
000088  e006              B        |L4.152|
                  |L4.138|
00008a  6301              STR      r1,[r0,#0x30]         ;719
00008c  e004              B        |L4.152|
                  |L4.142|
00008e  6302              STR      r2,[r0,#0x30]         ;721
000090  e002              B        |L4.152|
                  |L4.146|
;;;723    		PB12 = ~(PB12);
000092  6b04              LDR      r4,[r0,#0x30]
000094  43e4              MVNS     r4,r4
000096  6304              STR      r4,[r0,#0x30]
                  |L4.152|
;;;724    	
;;;725    	if(port1States[4] == 1)
000098  791c              LDRB     r4,[r3,#4]  ; port1States
00009a  2c01              CMP      r4,#1
00009c  d006              BEQ      |L4.172|
;;;726    		PB11 = 1;
;;;727    	else if(port1States[4] == 0)
00009e  791c              LDRB     r4,[r3,#4]  ; port1States
0000a0  2c00              CMP      r4,#0
0000a2  d005              BEQ      |L4.176|
;;;728    		PB11 = 0;
;;;729    	else if(port1States[4] == 6)
0000a4  791c              LDRB     r4,[r3,#4]  ; port1States
0000a6  2c06              CMP      r4,#6
0000a8  d004              BEQ      |L4.180|
0000aa  e006              B        |L4.186|
                  |L4.172|
0000ac  62c1              STR      r1,[r0,#0x2c]         ;726
0000ae  e004              B        |L4.186|
                  |L4.176|
0000b0  62c2              STR      r2,[r0,#0x2c]         ;728
0000b2  e002              B        |L4.186|
                  |L4.180|
;;;730    		PB11 = ~(PB11);
0000b4  6ac4              LDR      r4,[r0,#0x2c]
0000b6  43e4              MVNS     r4,r4
0000b8  62c4              STR      r4,[r0,#0x2c]
                  |L4.186|
;;;731    	
;;;732    	if(port1States[5] == 1)
0000ba  795c              LDRB     r4,[r3,#5]  ; port1States
0000bc  2c01              CMP      r4,#1
0000be  d006              BEQ      |L4.206|
;;;733    		PB10 = 1;
;;;734    	else if(port1States[5] == 0)
0000c0  795c              LDRB     r4,[r3,#5]  ; port1States
0000c2  2c00              CMP      r4,#0
0000c4  d005              BEQ      |L4.210|
;;;735    		PB10 = 0;
;;;736    	else if(port1States[5] == 6)
0000c6  795c              LDRB     r4,[r3,#5]  ; port1States
0000c8  2c06              CMP      r4,#6
0000ca  d004              BEQ      |L4.214|
0000cc  e006              B        |L4.220|
                  |L4.206|
0000ce  6281              STR      r1,[r0,#0x28]         ;733
0000d0  e004              B        |L4.220|
                  |L4.210|
0000d2  6282              STR      r2,[r0,#0x28]         ;735
0000d4  e002              B        |L4.220|
                  |L4.214|
;;;737    		PB10 = ~(PB10);
0000d6  6a84              LDR      r4,[r0,#0x28]
0000d8  43e4              MVNS     r4,r4
0000da  6284              STR      r4,[r0,#0x28]
                  |L4.220|
;;;738    	
;;;739    	if(port1States[6] == 1)
0000dc  799c              LDRB     r4,[r3,#6]  ; port1States
0000de  2c01              CMP      r4,#1
0000e0  d006              BEQ      |L4.240|
;;;740    		PB9 = 1;
;;;741    	else if(port1States[6] == 0)
0000e2  799c              LDRB     r4,[r3,#6]  ; port1States
0000e4  2c00              CMP      r4,#0
0000e6  d005              BEQ      |L4.244|
;;;742    		PB9 = 0;
;;;743    	else if(port1States[6] == 6)
0000e8  799c              LDRB     r4,[r3,#6]  ; port1States
0000ea  2c06              CMP      r4,#6
0000ec  d004              BEQ      |L4.248|
0000ee  e006              B        |L4.254|
                  |L4.240|
0000f0  6241              STR      r1,[r0,#0x24]         ;740
0000f2  e004              B        |L4.254|
                  |L4.244|
0000f4  6242              STR      r2,[r0,#0x24]         ;742
0000f6  e002              B        |L4.254|
                  |L4.248|
;;;744    		PB9 = ~(PB9);
0000f8  6a44              LDR      r4,[r0,#0x24]
0000fa  43e4              MVNS     r4,r4
0000fc  6244              STR      r4,[r0,#0x24]
                  |L4.254|
;;;745    	
;;;746    	if(port1States[7] == 1)
0000fe  79dc              LDRB     r4,[r3,#7]  ; port1States
000100  2c01              CMP      r4,#1
000102  d007              BEQ      |L4.276|
;;;747    		PB8 = 1;
;;;748    	else if(port1States[7] == 0)
000104  79d9              LDRB     r1,[r3,#7]  ; port1States
000106  2900              CMP      r1,#0
000108  d006              BEQ      |L4.280|
;;;749    		PB8 = 0;
;;;750    	else if(port1States[7] == 6)
00010a  79d9              LDRB     r1,[r3,#7]  ; port1States
00010c  2906              CMP      r1,#6
00010e  d102              BNE      |L4.278|
;;;751    		PB8 = ~(PB8);
000110  6a01              LDR      r1,[r0,#0x20]
000112  43c9              MVNS     r1,r1
                  |L4.276|
000114  6201              STR      r1,[r0,#0x20]         ;747
                  |L4.278|
;;;752    }
000116  bd10              POP      {r4,pc}
                  |L4.280|
000118  6202              STR      r2,[r0,#0x20]         ;749
00011a  bd10              POP      {r4,pc}
;;;753    
                          ENDP

                  |L4.284|
00011c  3100              DCB      "1",0
00011e  00                DCB      0
00011f  00                DCB      0
                  |L4.288|
                          DCD      ||.data||+0x38
                  |L4.292|
                          DCD      0x40004840

                          AREA ||i.changePort1States||, CODE, READONLY, ALIGN=2

                  changePort1States PROC
;;;233    
;;;234    void changePort1States()
000000  b570              PUSH     {r4-r6,lr}
;;;235    {
;;;236    	port1Readings[0] = port1Readings[0] & 0x1F;
000002  4d6c              LDR      r5,|L5.436|
000004  7828              LDRB     r0,[r5,#0]  ; port1Readings
000006  06c0              LSLS     r0,r0,#27
000008  0ec0              LSRS     r0,r0,#27
00000a  7028              STRB     r0,[r5,#0]
;;;237    	if(port1Readings[0] == 0x1F)
00000c  782e              LDRB     r6,[r5,#0]  ; port1Readings
;;;238    		port1States[0] = 1;
00000e  4628              MOV      r0,r5
000010  2101              MOVS     r1,#1
000012  2200              MOVS     r2,#0
;;;239    	else if(port1Readings[0] == 0x00)
;;;240    		port1States[0] = 0;
;;;241    	else
;;;242    		{
;;;243    			port1States[0] = port1States[0] + 1;
;;;244    			if(port1States[0] == 1)
;;;245    				port1States[0] = 2;
000014  2302              MOVS     r3,#2
;;;246    			if(port1States[0] == 7)
;;;247    				port1States[0] = 6;
000016  2406              MOVS     r4,#6
000018  3020              ADDS     r0,r0,#0x20           ;238
00001a  2e1f              CMP      r6,#0x1f              ;237
00001c  d009              BEQ      |L5.50|
00001e  782e              LDRB     r6,[r5,#0]            ;239  ; port1Readings
000020  2e00              CMP      r6,#0                 ;239
000022  d008              BEQ      |L5.54|
000024  7806              LDRB     r6,[r0,#0]            ;243  ; port1States
000026  1c76              ADDS     r6,r6,#1              ;243
000028  7006              STRB     r6,[r0,#0]            ;243
00002a  7806              LDRB     r6,[r0,#0]            ;244  ; port1States
00002c  2e01              CMP      r6,#1                 ;244
00002e  d004              BEQ      |L5.58|
000030  e004              B        |L5.60|
                  |L5.50|
000032  7001              STRB     r1,[r0,#0]            ;238
000034  e006              B        |L5.68|
                  |L5.54|
000036  7002              STRB     r2,[r0,#0]            ;240
000038  e004              B        |L5.68|
                  |L5.58|
00003a  7003              STRB     r3,[r0,#0]            ;245
                  |L5.60|
00003c  7806              LDRB     r6,[r0,#0]            ;246  ; port1States
00003e  2e07              CMP      r6,#7                 ;246
000040  d100              BNE      |L5.68|
000042  7004              STRB     r4,[r0,#0]
                  |L5.68|
;;;248    		}
;;;249    	
;;;250    	port1Readings[1] = port1Readings[1] & 0x1F;
000044  786e              LDRB     r6,[r5,#1]  ; port1Readings
000046  06f6              LSLS     r6,r6,#27
000048  0ef6              LSRS     r6,r6,#27
00004a  706e              STRB     r6,[r5,#1]
;;;251    	if(port1Readings[1] == 0x1F)
00004c  786e              LDRB     r6,[r5,#1]  ; port1Readings
00004e  2e1f              CMP      r6,#0x1f
000050  d009              BEQ      |L5.102|
;;;252    		port1States[1] = 1;
;;;253    	else if(port1Readings[1] == 0x00)
000052  786e              LDRB     r6,[r5,#1]  ; port1Readings
000054  2e00              CMP      r6,#0
000056  d008              BEQ      |L5.106|
;;;254    		port1States[1] = 0;
;;;255    	else
;;;256    		{
;;;257    			port1States[1] = port1States[1] + 1;
000058  7846              LDRB     r6,[r0,#1]  ; port1States
00005a  1c76              ADDS     r6,r6,#1
00005c  7046              STRB     r6,[r0,#1]
;;;258    			if(port1States[1] == 1)
00005e  7846              LDRB     r6,[r0,#1]  ; port1States
000060  2e01              CMP      r6,#1
000062  d004              BEQ      |L5.110|
000064  e004              B        |L5.112|
                  |L5.102|
000066  7041              STRB     r1,[r0,#1]            ;252
000068  e006              B        |L5.120|
                  |L5.106|
00006a  7042              STRB     r2,[r0,#1]            ;254
00006c  e004              B        |L5.120|
                  |L5.110|
;;;259    				port1States[1] = 2;
00006e  7043              STRB     r3,[r0,#1]
                  |L5.112|
;;;260    			if(port1States[1] == 7)
000070  7846              LDRB     r6,[r0,#1]  ; port1States
000072  2e07              CMP      r6,#7
000074  d100              BNE      |L5.120|
;;;261    				port1States[1] = 6;
000076  7044              STRB     r4,[r0,#1]
                  |L5.120|
;;;262    		}
;;;263    		
;;;264    	port1Readings[2] = port1Readings[2] & 0x1F;
000078  78ae              LDRB     r6,[r5,#2]  ; port1Readings
00007a  06f6              LSLS     r6,r6,#27
00007c  0ef6              LSRS     r6,r6,#27
00007e  70ae              STRB     r6,[r5,#2]
;;;265    	if(port1Readings[2] == 0x1F)
000080  78ae              LDRB     r6,[r5,#2]  ; port1Readings
000082  2e1f              CMP      r6,#0x1f
000084  d009              BEQ      |L5.154|
;;;266    		port1States[2] = 1;
;;;267    	else if(port1Readings[2] == 0x00)
000086  78ae              LDRB     r6,[r5,#2]  ; port1Readings
000088  2e00              CMP      r6,#0
00008a  d008              BEQ      |L5.158|
;;;268    		port1States[2] = 0;
;;;269    	else
;;;270    		{
;;;271    			port1States[2] = port1States[2] + 1;
00008c  7886              LDRB     r6,[r0,#2]  ; port1States
00008e  1c76              ADDS     r6,r6,#1
000090  7086              STRB     r6,[r0,#2]
;;;272    			if(port1States[2] == 1)
000092  7886              LDRB     r6,[r0,#2]  ; port1States
000094  2e01              CMP      r6,#1
000096  d004              BEQ      |L5.162|
000098  e004              B        |L5.164|
                  |L5.154|
00009a  7081              STRB     r1,[r0,#2]            ;266
00009c  e006              B        |L5.172|
                  |L5.158|
00009e  7082              STRB     r2,[r0,#2]            ;268
0000a0  e004              B        |L5.172|
                  |L5.162|
;;;273    				port1States[2] = 2;
0000a2  7083              STRB     r3,[r0,#2]
                  |L5.164|
;;;274    			if(port1States[2] == 7)
0000a4  7886              LDRB     r6,[r0,#2]  ; port1States
0000a6  2e07              CMP      r6,#7
0000a8  d100              BNE      |L5.172|
;;;275    				port1States[2] = 6;
0000aa  7084              STRB     r4,[r0,#2]
                  |L5.172|
;;;276    		}
;;;277    		
;;;278    	port1Readings[3] = port1Readings[3] & 0x1F;
0000ac  78ee              LDRB     r6,[r5,#3]  ; port1Readings
0000ae  06f6              LSLS     r6,r6,#27
0000b0  0ef6              LSRS     r6,r6,#27
0000b2  70ee              STRB     r6,[r5,#3]
;;;279    	if(port1Readings[3] == 0x1F)
0000b4  78ee              LDRB     r6,[r5,#3]  ; port1Readings
0000b6  2e1f              CMP      r6,#0x1f
0000b8  d009              BEQ      |L5.206|
;;;280    		port1States[3] = 1;
;;;281    	else if(port1Readings[3] == 0x00)
0000ba  78ee              LDRB     r6,[r5,#3]  ; port1Readings
0000bc  2e00              CMP      r6,#0
0000be  d008              BEQ      |L5.210|
;;;282    		port1States[3] = 0;
;;;283    	else
;;;284    		{
;;;285    			port1States[3] = port1States[3] + 1;
0000c0  78c6              LDRB     r6,[r0,#3]  ; port1States
0000c2  1c76              ADDS     r6,r6,#1
0000c4  70c6              STRB     r6,[r0,#3]
;;;286    			if(port1States[3] == 1)
0000c6  78c6              LDRB     r6,[r0,#3]  ; port1States
0000c8  2e01              CMP      r6,#1
0000ca  d004              BEQ      |L5.214|
0000cc  e004              B        |L5.216|
                  |L5.206|
0000ce  70c1              STRB     r1,[r0,#3]            ;280
0000d0  e006              B        |L5.224|
                  |L5.210|
0000d2  70c2              STRB     r2,[r0,#3]            ;282
0000d4  e004              B        |L5.224|
                  |L5.214|
;;;287    				port1States[3] = 2;
0000d6  70c3              STRB     r3,[r0,#3]
                  |L5.216|
;;;288    			if(port1States[3] == 7)
0000d8  78c6              LDRB     r6,[r0,#3]  ; port1States
0000da  2e07              CMP      r6,#7
0000dc  d100              BNE      |L5.224|
;;;289    				port1States[3] = 6;
0000de  70c4              STRB     r4,[r0,#3]
                  |L5.224|
;;;290    		}
;;;291    		
;;;292    	port1Readings[4] = port1Readings[4] & 0x1F;
0000e0  792e              LDRB     r6,[r5,#4]  ; port1Readings
0000e2  06f6              LSLS     r6,r6,#27
0000e4  0ef6              LSRS     r6,r6,#27
0000e6  712e              STRB     r6,[r5,#4]
;;;293    	if(port1Readings[4] == 0x1F)
0000e8  792e              LDRB     r6,[r5,#4]  ; port1Readings
0000ea  2e1f              CMP      r6,#0x1f
0000ec  d009              BEQ      |L5.258|
;;;294    		port1States[4] = 1;
;;;295    	else if(port1Readings[4] == 0x00)
0000ee  792e              LDRB     r6,[r5,#4]  ; port1Readings
0000f0  2e00              CMP      r6,#0
0000f2  d008              BEQ      |L5.262|
;;;296    		port1States[4] = 0;
;;;297    	else
;;;298    		{
;;;299    			port1States[4] = port1States[4] + 1;
0000f4  7906              LDRB     r6,[r0,#4]  ; port1States
0000f6  1c76              ADDS     r6,r6,#1
0000f8  7106              STRB     r6,[r0,#4]
;;;300    			if(port1States[4] == 1)
0000fa  7906              LDRB     r6,[r0,#4]  ; port1States
0000fc  2e01              CMP      r6,#1
0000fe  d004              BEQ      |L5.266|
000100  e004              B        |L5.268|
                  |L5.258|
000102  7101              STRB     r1,[r0,#4]            ;294
000104  e006              B        |L5.276|
                  |L5.262|
000106  7102              STRB     r2,[r0,#4]            ;296
000108  e004              B        |L5.276|
                  |L5.266|
;;;301    				port1States[4] = 2;
00010a  7103              STRB     r3,[r0,#4]
                  |L5.268|
;;;302    			if(port1States[4] == 7)
00010c  7906              LDRB     r6,[r0,#4]  ; port1States
00010e  2e07              CMP      r6,#7
000110  d100              BNE      |L5.276|
;;;303    				port1States[4] = 6;
000112  7104              STRB     r4,[r0,#4]
                  |L5.276|
;;;304    		}
;;;305    		
;;;306    	port1Readings[5] = port1Readings[5] & 0x1F;
000114  796e              LDRB     r6,[r5,#5]  ; port1Readings
000116  06f6              LSLS     r6,r6,#27
000118  0ef6              LSRS     r6,r6,#27
00011a  716e              STRB     r6,[r5,#5]
;;;307    	if(port1Readings[5] == 0x1F)
00011c  796e              LDRB     r6,[r5,#5]  ; port1Readings
00011e  2e1f              CMP      r6,#0x1f
000120  d009              BEQ      |L5.310|
;;;308    		port1States[5] = 1;
;;;309    	else if(port1Readings[5] == 0x00)
000122  796e              LDRB     r6,[r5,#5]  ; port1Readings
000124  2e00              CMP      r6,#0
000126  d008              BEQ      |L5.314|
;;;310    		port1States[5] = 0;
;;;311    	else
;;;312    		{
;;;313    			port1States[5] = port1States[5] + 1;
000128  7946              LDRB     r6,[r0,#5]  ; port1States
00012a  1c76              ADDS     r6,r6,#1
00012c  7146              STRB     r6,[r0,#5]
;;;314    			if(port1States[5] == 1)
00012e  7946              LDRB     r6,[r0,#5]  ; port1States
000130  2e01              CMP      r6,#1
000132  d004              BEQ      |L5.318|
000134  e004              B        |L5.320|
                  |L5.310|
000136  7141              STRB     r1,[r0,#5]            ;308
000138  e006              B        |L5.328|
                  |L5.314|
00013a  7142              STRB     r2,[r0,#5]            ;310
00013c  e004              B        |L5.328|
                  |L5.318|
;;;315    				port1States[5] = 2;
00013e  7143              STRB     r3,[r0,#5]
                  |L5.320|
;;;316    			if(port1States[5] == 7)
000140  7946              LDRB     r6,[r0,#5]  ; port1States
000142  2e07              CMP      r6,#7
000144  d100              BNE      |L5.328|
;;;317    				port1States[5] = 6;
000146  7144              STRB     r4,[r0,#5]
                  |L5.328|
;;;318    		}
;;;319    		
;;;320    	port1Readings[6] = port1Readings[6] & 0x1F;
000148  79ae              LDRB     r6,[r5,#6]  ; port1Readings
00014a  06f6              LSLS     r6,r6,#27
00014c  0ef6              LSRS     r6,r6,#27
00014e  71ae              STRB     r6,[r5,#6]
;;;321    	if(port1Readings[6] == 0x1F)
000150  79ae              LDRB     r6,[r5,#6]  ; port1Readings
000152  2e1f              CMP      r6,#0x1f
000154  d009              BEQ      |L5.362|
;;;322    		port1States[6] = 1;
;;;323    	else if(port1Readings[6] == 0x00)
000156  79ae              LDRB     r6,[r5,#6]  ; port1Readings
000158  2e00              CMP      r6,#0
00015a  d008              BEQ      |L5.366|
;;;324    		port1States[6] = 0;
;;;325    	else
;;;326    		{
;;;327    			port1States[6] = port1States[6] + 1;
00015c  7986              LDRB     r6,[r0,#6]  ; port1States
00015e  1c76              ADDS     r6,r6,#1
000160  7186              STRB     r6,[r0,#6]
;;;328    			if(port1States[6] == 1)
000162  7986              LDRB     r6,[r0,#6]  ; port1States
000164  2e01              CMP      r6,#1
000166  d004              BEQ      |L5.370|
000168  e004              B        |L5.372|
                  |L5.362|
00016a  7181              STRB     r1,[r0,#6]            ;322
00016c  e006              B        |L5.380|
                  |L5.366|
00016e  7182              STRB     r2,[r0,#6]            ;324
000170  e004              B        |L5.380|
                  |L5.370|
;;;329    				port1States[6] = 2;
000172  7183              STRB     r3,[r0,#6]
                  |L5.372|
;;;330    			if(port1States[6] == 7)
000174  7986              LDRB     r6,[r0,#6]  ; port1States
000176  2e07              CMP      r6,#7
000178  d100              BNE      |L5.380|
;;;331    				port1States[6] = 6;
00017a  7184              STRB     r4,[r0,#6]
                  |L5.380|
;;;332    		}
;;;333    		
;;;334    	port1Readings[7] = port1Readings[7] & 0x1F;
00017c  79ee              LDRB     r6,[r5,#7]  ; port1Readings
00017e  06f6              LSLS     r6,r6,#27
000180  0ef6              LSRS     r6,r6,#27
000182  71ee              STRB     r6,[r5,#7]
;;;335    	if(port1Readings[7] == 0x1F)
000184  79ee              LDRB     r6,[r5,#7]  ; port1Readings
000186  2e1f              CMP      r6,#0x1f
000188  d009              BEQ      |L5.414|
;;;336    		port1States[7] = 1;
;;;337    	else if(port1Readings[7] == 0x00)
00018a  79e9              LDRB     r1,[r5,#7]  ; port1Readings
00018c  2900              CMP      r1,#0
00018e  d008              BEQ      |L5.418|
;;;338    		port1States[7] = 0;
;;;339    	else
;;;340    		{
;;;341    			port1States[7] = port1States[7] + 1;
000190  79c1              LDRB     r1,[r0,#7]  ; port1States
000192  1c49              ADDS     r1,r1,#1
000194  71c1              STRB     r1,[r0,#7]
;;;342    			if(port1States[7] == 1)
000196  79c1              LDRB     r1,[r0,#7]  ; port1States
000198  2901              CMP      r1,#1
00019a  d004              BEQ      |L5.422|
00019c  e004              B        |L5.424|
                  |L5.414|
00019e  71c1              STRB     r1,[r0,#7]            ;336
;;;343    				port1States[7] = 2;
;;;344    			if(port1States[7] == 7)
;;;345    				port1States[7] = 6;
;;;346    		}
;;;347    }
0001a0  bd70              POP      {r4-r6,pc}
                  |L5.418|
0001a2  71c2              STRB     r2,[r0,#7]            ;338
                  |L5.420|
0001a4  bd70              POP      {r4-r6,pc}
                  |L5.422|
0001a6  71c3              STRB     r3,[r0,#7]            ;343
                  |L5.424|
0001a8  79c1              LDRB     r1,[r0,#7]            ;344  ; port1States
0001aa  2907              CMP      r1,#7                 ;344
0001ac  d1fa              BNE      |L5.420|
0001ae  71c4              STRB     r4,[r0,#7]            ;345
0001b0  bd70              POP      {r4-r6,pc}
;;;348    
                          ENDP

0001b2  0000              DCW      0x0000
                  |L5.436|
                          DCD      ||.data||+0x18

                          AREA ||i.changePort2||, CODE, READONLY, ALIGN=2

                  changePort2 PROC
;;;753    
;;;754    void changePort2()
000000  b510              PUSH     {r4,lr}
;;;755    {
;;;756    	if(port2States[0] == 1)
000002  4b46              LDR      r3,|L6.284|
000004  781c              LDRB     r4,[r3,#0]  ; port2States
;;;757    		PA11 = 1;
000006  4846              LDR      r0,|L6.288|
000008  2101              MOVS     r1,#1
00000a  2200              MOVS     r2,#0
00000c  2c01              CMP      r4,#1                 ;756
00000e  d006              BEQ      |L6.30|
;;;758    	else if(port2States[0] == 0)
000010  781c              LDRB     r4,[r3,#0]  ; port2States
000012  2c00              CMP      r4,#0
000014  d005              BEQ      |L6.34|
;;;759    		PA11 = 0;
;;;760    	else if(port2States[0] == 6)
000016  781c              LDRB     r4,[r3,#0]  ; port2States
000018  2c06              CMP      r4,#6
00001a  d004              BEQ      |L6.38|
00001c  e006              B        |L6.44|
                  |L6.30|
00001e  62c1              STR      r1,[r0,#0x2c]         ;757
000020  e004              B        |L6.44|
                  |L6.34|
000022  62c2              STR      r2,[r0,#0x2c]         ;759
000024  e002              B        |L6.44|
                  |L6.38|
;;;761    		PA11 = ~(PA11);
000026  6ac4              LDR      r4,[r0,#0x2c]
000028  43e4              MVNS     r4,r4
00002a  62c4              STR      r4,[r0,#0x2c]
                  |L6.44|
;;;762    	
;;;763    	if(port2States[1] == 1)
00002c  785c              LDRB     r4,[r3,#1]  ; port2States
00002e  2c01              CMP      r4,#1
000030  d006              BEQ      |L6.64|
;;;764    		PA10 = 1;
;;;765    	else if(port2States[1] == 0)
000032  785c              LDRB     r4,[r3,#1]  ; port2States
000034  2c00              CMP      r4,#0
000036  d005              BEQ      |L6.68|
;;;766    		PA10 = 0;
;;;767    	else if(port2States[1] == 6)
000038  785c              LDRB     r4,[r3,#1]  ; port2States
00003a  2c06              CMP      r4,#6
00003c  d004              BEQ      |L6.72|
00003e  e006              B        |L6.78|
                  |L6.64|
000040  6281              STR      r1,[r0,#0x28]         ;764
000042  e004              B        |L6.78|
                  |L6.68|
000044  6282              STR      r2,[r0,#0x28]         ;766
000046  e002              B        |L6.78|
                  |L6.72|
;;;768    		PA10 = ~(PA10);
000048  6a84              LDR      r4,[r0,#0x28]
00004a  43e4              MVNS     r4,r4
00004c  6284              STR      r4,[r0,#0x28]
                  |L6.78|
;;;769    	
;;;770    	if(port2States[2] == 1)
00004e  789c              LDRB     r4,[r3,#2]  ; port2States
;;;771    		PF6 = 1;
000050  4834              LDR      r0,|L6.292|
000052  2c01              CMP      r4,#1                 ;770
000054  d006              BEQ      |L6.100|
;;;772    	else if(port2States[2] == 0)
000056  789c              LDRB     r4,[r3,#2]  ; port2States
000058  2c00              CMP      r4,#0
00005a  d005              BEQ      |L6.104|
;;;773    		PF6 = 0;
;;;774    	else if(port2States[2] == 6)
00005c  789c              LDRB     r4,[r3,#2]  ; port2States
00005e  2c06              CMP      r4,#6
000060  d004              BEQ      |L6.108|
000062  e006              B        |L6.114|
                  |L6.100|
000064  6181              STR      r1,[r0,#0x18]         ;771
000066  e004              B        |L6.114|
                  |L6.104|
000068  6182              STR      r2,[r0,#0x18]         ;773
00006a  e002              B        |L6.114|
                  |L6.108|
;;;775    		PF6 = ~(PF6);
00006c  6984              LDR      r4,[r0,#0x18]
00006e  43e4              MVNS     r4,r4
000070  6184              STR      r4,[r0,#0x18]
                  |L6.114|
;;;776    	
;;;777    	if(port2States[3] == 1)
000072  78dc              LDRB     r4,[r3,#3]  ; port2States
000074  2c01              CMP      r4,#1
000076  d006              BEQ      |L6.134|
;;;778    		PF14 = 1;
;;;779    	else if(port2States[3] == 0)
000078  78dc              LDRB     r4,[r3,#3]  ; port2States
00007a  2c00              CMP      r4,#0
00007c  d005              BEQ      |L6.138|
;;;780    		PF14 = 0;
;;;781    	else if(port2States[3] == 6)
00007e  78dc              LDRB     r4,[r3,#3]  ; port2States
000080  2c06              CMP      r4,#6
000082  d004              BEQ      |L6.142|
000084  e006              B        |L6.148|
                  |L6.134|
000086  6381              STR      r1,[r0,#0x38]         ;778
000088  e004              B        |L6.148|
                  |L6.138|
00008a  6382              STR      r2,[r0,#0x38]         ;780
00008c  e002              B        |L6.148|
                  |L6.142|
;;;782    		PF14 = ~(PF14);
00008e  6b84              LDR      r4,[r0,#0x38]
000090  43e4              MVNS     r4,r4
000092  6384              STR      r4,[r0,#0x38]
                  |L6.148|
;;;783    	
;;;784    	if(port2States[4] == 1)
000094  791c              LDRB     r4,[r3,#4]  ; port2States
000096  2c01              CMP      r4,#1
000098  d006              BEQ      |L6.168|
;;;785    		PF5 = 1;
;;;786    	else if(port2States[4] == 0)
00009a  791c              LDRB     r4,[r3,#4]  ; port2States
00009c  2c00              CMP      r4,#0
00009e  d005              BEQ      |L6.172|
;;;787    		PF5 = 0;
;;;788    	else if(port2States[4] == 6)
0000a0  791c              LDRB     r4,[r3,#4]  ; port2States
0000a2  2c06              CMP      r4,#6
0000a4  d004              BEQ      |L6.176|
0000a6  e006              B        |L6.182|
                  |L6.168|
0000a8  6141              STR      r1,[r0,#0x14]         ;785
0000aa  e004              B        |L6.182|
                  |L6.172|
0000ac  6142              STR      r2,[r0,#0x14]         ;787
0000ae  e002              B        |L6.182|
                  |L6.176|
;;;789    		PF5 = ~(PF5);
0000b0  6944              LDR      r4,[r0,#0x14]
0000b2  43e4              MVNS     r4,r4
0000b4  6144              STR      r4,[r0,#0x14]
                  |L6.182|
;;;790    	
;;;791    	if(port2States[5] == 1)
0000b6  795c              LDRB     r4,[r3,#5]  ; port2States
0000b8  2c01              CMP      r4,#1
0000ba  d006              BEQ      |L6.202|
;;;792    		PF4 = 1;
;;;793    	else if(port2States[5] == 0)
0000bc  795c              LDRB     r4,[r3,#5]  ; port2States
0000be  2c00              CMP      r4,#0
0000c0  d005              BEQ      |L6.206|
;;;794    		PF4 = 0;
;;;795    	else if(port2States[5] == 6)
0000c2  795c              LDRB     r4,[r3,#5]  ; port2States
0000c4  2c06              CMP      r4,#6
0000c6  d004              BEQ      |L6.210|
0000c8  e006              B        |L6.216|
                  |L6.202|
0000ca  6101              STR      r1,[r0,#0x10]         ;792
0000cc  e004              B        |L6.216|
                  |L6.206|
0000ce  6102              STR      r2,[r0,#0x10]         ;794
0000d0  e002              B        |L6.216|
                  |L6.210|
;;;796    		PF4 = ~(PF4);
0000d2  6904              LDR      r4,[r0,#0x10]
0000d4  43e4              MVNS     r4,r4
0000d6  6104              STR      r4,[r0,#0x10]
                  |L6.216|
;;;797    	
;;;798    	if(port2States[6] == 1)
0000d8  799c              LDRB     r4,[r3,#6]  ; port2States
;;;799    		PC7 = 1;
0000da  4811              LDR      r0,|L6.288|
0000dc  3080              ADDS     r0,r0,#0x80
0000de  2c01              CMP      r4,#1                 ;798
0000e0  d006              BEQ      |L6.240|
;;;800    	else if(port2States[6] == 0)
0000e2  799c              LDRB     r4,[r3,#6]  ; port2States
0000e4  2c00              CMP      r4,#0
0000e6  d005              BEQ      |L6.244|
;;;801    		PC7 = 0;
;;;802    	else if(port2States[6] == 6)
0000e8  799c              LDRB     r4,[r3,#6]  ; port2States
0000ea  2c06              CMP      r4,#6
0000ec  d004              BEQ      |L6.248|
0000ee  e006              B        |L6.254|
                  |L6.240|
0000f0  61c1              STR      r1,[r0,#0x1c]         ;799
0000f2  e004              B        |L6.254|
                  |L6.244|
0000f4  61c2              STR      r2,[r0,#0x1c]         ;801
0000f6  e002              B        |L6.254|
                  |L6.248|
;;;803    		PC7 = ~(PC7);
0000f8  69c4              LDR      r4,[r0,#0x1c]
0000fa  43e4              MVNS     r4,r4
0000fc  61c4              STR      r4,[r0,#0x1c]
                  |L6.254|
;;;804    	
;;;805    	if(port2States[7] == 1)
0000fe  79dc              LDRB     r4,[r3,#7]  ; port2States
000100  2c01              CMP      r4,#1
000102  d007              BEQ      |L6.276|
;;;806    		PC6 = 1;
;;;807    	else if(port2States[7] == 0)
000104  79d9              LDRB     r1,[r3,#7]  ; port2States
000106  2900              CMP      r1,#0
000108  d006              BEQ      |L6.280|
;;;808    		PC6 = 0;
;;;809    	else if(port2States[7] == 6)
00010a  79d9              LDRB     r1,[r3,#7]  ; port2States
00010c  2906              CMP      r1,#6
00010e  d102              BNE      |L6.278|
;;;810    		PC6 = ~(PC6);
000110  6981              LDR      r1,[r0,#0x18]
000112  43c9              MVNS     r1,r1
                  |L6.276|
000114  6181              STR      r1,[r0,#0x18]         ;806
                  |L6.278|
;;;811    }
000116  bd10              POP      {r4,pc}
                  |L6.280|
000118  6182              STR      r2,[r0,#0x18]         ;808
00011a  bd10              POP      {r4,pc}
;;;812    
                          ENDP

                  |L6.284|
                          DCD      ||.data||+0x40
                  |L6.288|
                          DCD      0x40004800
                  |L6.292|
                          DCD      0x40004940

                          AREA ||i.changePort2States||, CODE, READONLY, ALIGN=2

                  changePort2States PROC
;;;348    
;;;349    void changePort2States()
000000  b570              PUSH     {r4-r6,lr}
;;;350    {
;;;351    	port2Readings[0] = port2Readings[0] & 0x1F;
000002  4d6c              LDR      r5,|L7.436|
000004  7828              LDRB     r0,[r5,#0]  ; port2Readings
000006  06c0              LSLS     r0,r0,#27
000008  0ec0              LSRS     r0,r0,#27
00000a  7028              STRB     r0,[r5,#0]
;;;352    	if(port2Readings[0] == 0x1F)
00000c  782e              LDRB     r6,[r5,#0]  ; port2Readings
;;;353    		port2States[0] = 1;
00000e  4628              MOV      r0,r5
000010  2101              MOVS     r1,#1
000012  2200              MOVS     r2,#0
;;;354    	else if(port2Readings[0] == 0x00)
;;;355    		port2States[0] = 0;
;;;356    	else
;;;357    		{
;;;358    			port2States[0] = port2States[0] + 1;
;;;359    			if(port2States[0] == 1)
;;;360    				port2States[0] = 2;
000014  2302              MOVS     r3,#2
;;;361    			if(port2States[0] == 7)
;;;362    				port2States[0] = 6;
000016  2406              MOVS     r4,#6
000018  3020              ADDS     r0,r0,#0x20           ;353
00001a  2e1f              CMP      r6,#0x1f              ;352
00001c  d009              BEQ      |L7.50|
00001e  782e              LDRB     r6,[r5,#0]            ;354  ; port2Readings
000020  2e00              CMP      r6,#0                 ;354
000022  d008              BEQ      |L7.54|
000024  7806              LDRB     r6,[r0,#0]            ;358  ; port2States
000026  1c76              ADDS     r6,r6,#1              ;358
000028  7006              STRB     r6,[r0,#0]            ;358
00002a  7806              LDRB     r6,[r0,#0]            ;359  ; port2States
00002c  2e01              CMP      r6,#1                 ;359
00002e  d004              BEQ      |L7.58|
000030  e004              B        |L7.60|
                  |L7.50|
000032  7001              STRB     r1,[r0,#0]            ;353
000034  e006              B        |L7.68|
                  |L7.54|
000036  7002              STRB     r2,[r0,#0]            ;355
000038  e004              B        |L7.68|
                  |L7.58|
00003a  7003              STRB     r3,[r0,#0]            ;360
                  |L7.60|
00003c  7806              LDRB     r6,[r0,#0]            ;361  ; port2States
00003e  2e07              CMP      r6,#7                 ;361
000040  d100              BNE      |L7.68|
000042  7004              STRB     r4,[r0,#0]
                  |L7.68|
;;;363    		}
;;;364    	
;;;365    	port2Readings[1] = port2Readings[1] & 0x1F;
000044  786e              LDRB     r6,[r5,#1]  ; port2Readings
000046  06f6              LSLS     r6,r6,#27
000048  0ef6              LSRS     r6,r6,#27
00004a  706e              STRB     r6,[r5,#1]
;;;366    	if(port2Readings[1] == 0x1F)
00004c  786e              LDRB     r6,[r5,#1]  ; port2Readings
00004e  2e1f              CMP      r6,#0x1f
000050  d009              BEQ      |L7.102|
;;;367    		port2States[1] = 1;
;;;368    	else if(port2Readings[1] == 0x00)
000052  786e              LDRB     r6,[r5,#1]  ; port2Readings
000054  2e00              CMP      r6,#0
000056  d008              BEQ      |L7.106|
;;;369    		port2States[1] = 0;
;;;370    	else
;;;371    		{
;;;372    			port2States[1] = port2States[1] + 1;
000058  7846              LDRB     r6,[r0,#1]  ; port2States
00005a  1c76              ADDS     r6,r6,#1
00005c  7046              STRB     r6,[r0,#1]
;;;373    			if(port2States[1] == 1)
00005e  7846              LDRB     r6,[r0,#1]  ; port2States
000060  2e01              CMP      r6,#1
000062  d004              BEQ      |L7.110|
000064  e004              B        |L7.112|
                  |L7.102|
000066  7041              STRB     r1,[r0,#1]            ;367
000068  e006              B        |L7.120|
                  |L7.106|
00006a  7042              STRB     r2,[r0,#1]            ;369
00006c  e004              B        |L7.120|
                  |L7.110|
;;;374    				port2States[1] = 2;
00006e  7043              STRB     r3,[r0,#1]
                  |L7.112|
;;;375    			if(port2States[1] == 7)
000070  7846              LDRB     r6,[r0,#1]  ; port2States
000072  2e07              CMP      r6,#7
000074  d100              BNE      |L7.120|
;;;376    				port2States[1] = 6;
000076  7044              STRB     r4,[r0,#1]
                  |L7.120|
;;;377    		}
;;;378    		
;;;379    	port2Readings[2] = port2Readings[2] & 0x1F;
000078  78ae              LDRB     r6,[r5,#2]  ; port2Readings
00007a  06f6              LSLS     r6,r6,#27
00007c  0ef6              LSRS     r6,r6,#27
00007e  70ae              STRB     r6,[r5,#2]
;;;380    	if(port2Readings[2] == 0x1F)
000080  78ae              LDRB     r6,[r5,#2]  ; port2Readings
000082  2e1f              CMP      r6,#0x1f
000084  d009              BEQ      |L7.154|
;;;381    		port2States[2] = 1;
;;;382    	else if(port2Readings[2] == 0x00)
000086  78ae              LDRB     r6,[r5,#2]  ; port2Readings
000088  2e00              CMP      r6,#0
00008a  d008              BEQ      |L7.158|
;;;383    		port2States[2] = 0;
;;;384    	else
;;;385    		{
;;;386    			port2States[2] = port2States[2] + 1;
00008c  7886              LDRB     r6,[r0,#2]  ; port2States
00008e  1c76              ADDS     r6,r6,#1
000090  7086              STRB     r6,[r0,#2]
;;;387    			if(port2States[2] == 1)
000092  7886              LDRB     r6,[r0,#2]  ; port2States
000094  2e01              CMP      r6,#1
000096  d004              BEQ      |L7.162|
000098  e004              B        |L7.164|
                  |L7.154|
00009a  7081              STRB     r1,[r0,#2]            ;381
00009c  e006              B        |L7.172|
                  |L7.158|
00009e  7082              STRB     r2,[r0,#2]            ;383
0000a0  e004              B        |L7.172|
                  |L7.162|
;;;388    				port2States[2] = 2;
0000a2  7083              STRB     r3,[r0,#2]
                  |L7.164|
;;;389    			if(port2States[2] == 7)
0000a4  7886              LDRB     r6,[r0,#2]  ; port2States
0000a6  2e07              CMP      r6,#7
0000a8  d100              BNE      |L7.172|
;;;390    				port2States[2] = 6;
0000aa  7084              STRB     r4,[r0,#2]
                  |L7.172|
;;;391    		}
;;;392    		
;;;393    	port2Readings[3] = port2Readings[3] & 0x1F;
0000ac  78ee              LDRB     r6,[r5,#3]  ; port2Readings
0000ae  06f6              LSLS     r6,r6,#27
0000b0  0ef6              LSRS     r6,r6,#27
0000b2  70ee              STRB     r6,[r5,#3]
;;;394    	if(port2Readings[3] == 0x1F)
0000b4  78ee              LDRB     r6,[r5,#3]  ; port2Readings
0000b6  2e1f              CMP      r6,#0x1f
0000b8  d009              BEQ      |L7.206|
;;;395    		port2States[3] = 1;
;;;396    	else if(port2Readings[3] == 0x00)
0000ba  78ee              LDRB     r6,[r5,#3]  ; port2Readings
0000bc  2e00              CMP      r6,#0
0000be  d008              BEQ      |L7.210|
;;;397    		port2States[3] = 0;
;;;398    	else
;;;399    		{
;;;400    			port2States[3] = port2States[3] + 1;
0000c0  78c6              LDRB     r6,[r0,#3]  ; port2States
0000c2  1c76              ADDS     r6,r6,#1
0000c4  70c6              STRB     r6,[r0,#3]
;;;401    			if(port2States[3] == 1)
0000c6  78c6              LDRB     r6,[r0,#3]  ; port2States
0000c8  2e01              CMP      r6,#1
0000ca  d004              BEQ      |L7.214|
0000cc  e004              B        |L7.216|
                  |L7.206|
0000ce  70c1              STRB     r1,[r0,#3]            ;395
0000d0  e006              B        |L7.224|
                  |L7.210|
0000d2  70c2              STRB     r2,[r0,#3]            ;397
0000d4  e004              B        |L7.224|
                  |L7.214|
;;;402    				port2States[3] = 2;
0000d6  70c3              STRB     r3,[r0,#3]
                  |L7.216|
;;;403    			if(port2States[3] == 7)
0000d8  78c6              LDRB     r6,[r0,#3]  ; port2States
0000da  2e07              CMP      r6,#7
0000dc  d100              BNE      |L7.224|
;;;404    				port2States[3] = 6;
0000de  70c4              STRB     r4,[r0,#3]
                  |L7.224|
;;;405    		}
;;;406    		
;;;407    	port2Readings[4] = port2Readings[4] & 0x1F;
0000e0  792e              LDRB     r6,[r5,#4]  ; port2Readings
0000e2  06f6              LSLS     r6,r6,#27
0000e4  0ef6              LSRS     r6,r6,#27
0000e6  712e              STRB     r6,[r5,#4]
;;;408    	if(port2Readings[4] == 0x1F)
0000e8  792e              LDRB     r6,[r5,#4]  ; port2Readings
0000ea  2e1f              CMP      r6,#0x1f
0000ec  d009              BEQ      |L7.258|
;;;409    		port2States[4] = 1;
;;;410    	else if(port2Readings[4] == 0x00)
0000ee  792e              LDRB     r6,[r5,#4]  ; port2Readings
0000f0  2e00              CMP      r6,#0
0000f2  d008              BEQ      |L7.262|
;;;411    		port2States[4] = 0;
;;;412    	else
;;;413    		{
;;;414    			port2States[4] = port2States[4] + 1;
0000f4  7906              LDRB     r6,[r0,#4]  ; port2States
0000f6  1c76              ADDS     r6,r6,#1
0000f8  7106              STRB     r6,[r0,#4]
;;;415    			if(port2States[4] == 1)
0000fa  7906              LDRB     r6,[r0,#4]  ; port2States
0000fc  2e01              CMP      r6,#1
0000fe  d004              BEQ      |L7.266|
000100  e004              B        |L7.268|
                  |L7.258|
000102  7101              STRB     r1,[r0,#4]            ;409
000104  e006              B        |L7.276|
                  |L7.262|
000106  7102              STRB     r2,[r0,#4]            ;411
000108  e004              B        |L7.276|
                  |L7.266|
;;;416    				port2States[4] = 2;
00010a  7103              STRB     r3,[r0,#4]
                  |L7.268|
;;;417    			if(port2States[4]== 7)
00010c  7906              LDRB     r6,[r0,#4]  ; port2States
00010e  2e07              CMP      r6,#7
000110  d100              BNE      |L7.276|
;;;418    				port2States[4] = 6;
000112  7104              STRB     r4,[r0,#4]
                  |L7.276|
;;;419    		}
;;;420    		
;;;421    	port2Readings[5] = port2Readings[5] & 0x1F;
000114  796e              LDRB     r6,[r5,#5]  ; port2Readings
000116  06f6              LSLS     r6,r6,#27
000118  0ef6              LSRS     r6,r6,#27
00011a  716e              STRB     r6,[r5,#5]
;;;422    	if(port2Readings[5] == 0x1F)
00011c  796e              LDRB     r6,[r5,#5]  ; port2Readings
00011e  2e1f              CMP      r6,#0x1f
000120  d009              BEQ      |L7.310|
;;;423    		port2States[5] = 1;
;;;424    	else if(port2Readings[5] == 0x00)
000122  796e              LDRB     r6,[r5,#5]  ; port2Readings
000124  2e00              CMP      r6,#0
000126  d008              BEQ      |L7.314|
;;;425    		port2States[5] = 0;
;;;426    	else
;;;427    		{
;;;428    			port2States[5] = port2States[5] + 1;
000128  7946              LDRB     r6,[r0,#5]  ; port2States
00012a  1c76              ADDS     r6,r6,#1
00012c  7146              STRB     r6,[r0,#5]
;;;429    			if(port2States[5] == 1)
00012e  7946              LDRB     r6,[r0,#5]  ; port2States
000130  2e01              CMP      r6,#1
000132  d004              BEQ      |L7.318|
000134  e004              B        |L7.320|
                  |L7.310|
000136  7141              STRB     r1,[r0,#5]            ;423
000138  e006              B        |L7.328|
                  |L7.314|
00013a  7142              STRB     r2,[r0,#5]            ;425
00013c  e004              B        |L7.328|
                  |L7.318|
;;;430    				port2States[5] = 2;
00013e  7143              STRB     r3,[r0,#5]
                  |L7.320|
;;;431    			if(port2States[5] == 7)
000140  7946              LDRB     r6,[r0,#5]  ; port2States
000142  2e07              CMP      r6,#7
000144  d100              BNE      |L7.328|
;;;432    				port2States[5] = 6;
000146  7144              STRB     r4,[r0,#5]
                  |L7.328|
;;;433    		}
;;;434    		
;;;435    	port2Readings[6] = port2Readings[6] & 0x1F;
000148  79ae              LDRB     r6,[r5,#6]  ; port2Readings
00014a  06f6              LSLS     r6,r6,#27
00014c  0ef6              LSRS     r6,r6,#27
00014e  71ae              STRB     r6,[r5,#6]
;;;436    	if(port2Readings[6] == 0x1F)
000150  79ae              LDRB     r6,[r5,#6]  ; port2Readings
000152  2e1f              CMP      r6,#0x1f
000154  d009              BEQ      |L7.362|
;;;437    		port2States[6] = 1;
;;;438    	else if(port2Readings[6] == 0x00)
000156  79ae              LDRB     r6,[r5,#6]  ; port2Readings
000158  2e00              CMP      r6,#0
00015a  d008              BEQ      |L7.366|
;;;439    		port2States[6] = 0;
;;;440    	else
;;;441    		{
;;;442    			port2States[6] = port2States[6] + 1;
00015c  7986              LDRB     r6,[r0,#6]  ; port2States
00015e  1c76              ADDS     r6,r6,#1
000160  7186              STRB     r6,[r0,#6]
;;;443    			if(port2States[6] == 1)
000162  7986              LDRB     r6,[r0,#6]  ; port2States
000164  2e01              CMP      r6,#1
000166  d004              BEQ      |L7.370|
000168  e004              B        |L7.372|
                  |L7.362|
00016a  7181              STRB     r1,[r0,#6]            ;437
00016c  e006              B        |L7.380|
                  |L7.366|
00016e  7182              STRB     r2,[r0,#6]            ;439
000170  e004              B        |L7.380|
                  |L7.370|
;;;444    				port2States[6] = 2;
000172  7183              STRB     r3,[r0,#6]
                  |L7.372|
;;;445    			if(port2States[6] == 7)
000174  7986              LDRB     r6,[r0,#6]  ; port2States
000176  2e07              CMP      r6,#7
000178  d100              BNE      |L7.380|
;;;446    				port2States[6] = 6;
00017a  7184              STRB     r4,[r0,#6]
                  |L7.380|
;;;447    		}
;;;448    		
;;;449    	port2Readings[7] = port2Readings[7] & 0x1F;
00017c  79ee              LDRB     r6,[r5,#7]  ; port2Readings
00017e  06f6              LSLS     r6,r6,#27
000180  0ef6              LSRS     r6,r6,#27
000182  71ee              STRB     r6,[r5,#7]
;;;450    	if(port2Readings[7] == 0x1F)
000184  79ee              LDRB     r6,[r5,#7]  ; port2Readings
000186  2e1f              CMP      r6,#0x1f
000188  d009              BEQ      |L7.414|
;;;451    		port2States[7] = 1;
;;;452    	else if(port2Readings[7] == 0x00)
00018a  79e9              LDRB     r1,[r5,#7]  ; port2Readings
00018c  2900              CMP      r1,#0
00018e  d008              BEQ      |L7.418|
;;;453    		port2States[7] = 0;
;;;454    	else
;;;455    		{
;;;456    			port2States[7] = port2States[7] + 1;
000190  79c1              LDRB     r1,[r0,#7]  ; port2States
000192  1c49              ADDS     r1,r1,#1
000194  71c1              STRB     r1,[r0,#7]
;;;457    			if(port2States[7] == 1)
000196  79c1              LDRB     r1,[r0,#7]  ; port2States
000198  2901              CMP      r1,#1
00019a  d004              BEQ      |L7.422|
00019c  e004              B        |L7.424|
                  |L7.414|
00019e  71c1              STRB     r1,[r0,#7]            ;451
;;;458    				port2States[7] = 2;
;;;459    			if(port2States[7] == 7)
;;;460    				port2States[7] = 6;
;;;461    		}
;;;462    }
0001a0  bd70              POP      {r4-r6,pc}
                  |L7.418|
0001a2  71c2              STRB     r2,[r0,#7]            ;453
                  |L7.420|
0001a4  bd70              POP      {r4-r6,pc}
                  |L7.422|
0001a6  71c3              STRB     r3,[r0,#7]            ;458
                  |L7.424|
0001a8  79c1              LDRB     r1,[r0,#7]            ;459  ; port2States
0001aa  2907              CMP      r1,#7                 ;459
0001ac  d1fa              BNE      |L7.420|
0001ae  71c4              STRB     r4,[r0,#7]            ;460
0001b0  bd70              POP      {r4-r6,pc}
;;;463    
                          ENDP

0001b2  0000              DCW      0x0000
                  |L7.436|
                          DCD      ||.data||+0x20

                          AREA ||i.changePort3||, CODE, READONLY, ALIGN=2

                  changePort3 PROC
;;;812    
;;;813    void changePort3()
000000  b510              PUSH     {r4,lr}
;;;814    {
;;;815    	if(port3States[0] == 1)
000002  4b45              LDR      r3,|L8.280|
000004  781c              LDRB     r4,[r3,#0]  ; port3States
;;;816    		PB7 = 1;
000006  2101              MOVS     r1,#1
000008  2200              MOVS     r2,#0
00000a  4844              LDR      r0,|L8.284|
00000c  2c01              CMP      r4,#1                 ;815
00000e  d006              BEQ      |L8.30|
;;;817    	else if(port3States[0] == 0)
000010  781c              LDRB     r4,[r3,#0]  ; port3States
000012  2c00              CMP      r4,#0
000014  d005              BEQ      |L8.34|
;;;818    		PB7 = 0;
;;;819    	else if(port3States[0] == 6)
000016  781c              LDRB     r4,[r3,#0]  ; port3States
000018  2c06              CMP      r4,#6
00001a  d004              BEQ      |L8.38|
00001c  e006              B        |L8.44|
                  |L8.30|
00001e  61c1              STR      r1,[r0,#0x1c]         ;816
000020  e004              B        |L8.44|
                  |L8.34|
000022  61c2              STR      r2,[r0,#0x1c]         ;818
000024  e002              B        |L8.44|
                  |L8.38|
;;;820    		PB7 = ~(PB7);
000026  69c4              LDR      r4,[r0,#0x1c]
000028  43e4              MVNS     r4,r4
00002a  61c4              STR      r4,[r0,#0x1c]
                  |L8.44|
;;;821    	
;;;822    	if(port3States[1] == 1)
00002c  785c              LDRB     r4,[r3,#1]  ; port3States
00002e  2c01              CMP      r4,#1
000030  d006              BEQ      |L8.64|
;;;823    		PB6 = 1;
;;;824    	else if(port3States[1] == 0)
000032  785c              LDRB     r4,[r3,#1]  ; port3States
000034  2c00              CMP      r4,#0
000036  d005              BEQ      |L8.68|
;;;825    		PB6 = 0;
;;;826    	else if(port3States[1] == 6)
000038  785c              LDRB     r4,[r3,#1]  ; port3States
00003a  2c06              CMP      r4,#6
00003c  d004              BEQ      |L8.72|
00003e  e006              B        |L8.78|
                  |L8.64|
000040  6181              STR      r1,[r0,#0x18]         ;823
000042  e004              B        |L8.78|
                  |L8.68|
000044  6182              STR      r2,[r0,#0x18]         ;825
000046  e002              B        |L8.78|
                  |L8.72|
;;;827    		PB6 = ~(PB6);
000048  6984              LDR      r4,[r0,#0x18]
00004a  43e4              MVNS     r4,r4
00004c  6184              STR      r4,[r0,#0x18]
                  |L8.78|
;;;828    	
;;;829    	if(port3States[2] == 1)
00004e  789c              LDRB     r4,[r3,#2]  ; port3States
000050  2c01              CMP      r4,#1
000052  d006              BEQ      |L8.98|
;;;830    		PB5 = 1;
;;;831    	else if(port3States[2] == 0)
000054  789c              LDRB     r4,[r3,#2]  ; port3States
000056  2c00              CMP      r4,#0
000058  d005              BEQ      |L8.102|
;;;832    		PB5 = 0;
;;;833    	else if(port3States[2] == 6)
00005a  789c              LDRB     r4,[r3,#2]  ; port3States
00005c  2c06              CMP      r4,#6
00005e  d004              BEQ      |L8.106|
000060  e006              B        |L8.112|
                  |L8.98|
000062  6141              STR      r1,[r0,#0x14]         ;830
000064  e004              B        |L8.112|
                  |L8.102|
000066  6142              STR      r2,[r0,#0x14]         ;832
000068  e002              B        |L8.112|
                  |L8.106|
;;;834    		PB5 = ~(PB5);
00006a  6944              LDR      r4,[r0,#0x14]
00006c  43e4              MVNS     r4,r4
00006e  6144              STR      r4,[r0,#0x14]
                  |L8.112|
;;;835    	
;;;836    	if(port3States[3] == 1)
000070  78dc              LDRB     r4,[r3,#3]  ; port3States
000072  2c01              CMP      r4,#1
000074  d006              BEQ      |L8.132|
;;;837    		PB4 = 1;
;;;838    	else if(port3States[3] == 0)
000076  78dc              LDRB     r4,[r3,#3]  ; port3States
000078  2c00              CMP      r4,#0
00007a  d005              BEQ      |L8.136|
;;;839    		PB4 = 0;
;;;840    	else if(port3States[3] == 6)
00007c  78dc              LDRB     r4,[r3,#3]  ; port3States
00007e  2c06              CMP      r4,#6
000080  d004              BEQ      |L8.140|
000082  e006              B        |L8.146|
                  |L8.132|
000084  6101              STR      r1,[r0,#0x10]         ;837
000086  e004              B        |L8.146|
                  |L8.136|
000088  6102              STR      r2,[r0,#0x10]         ;839
00008a  e002              B        |L8.146|
                  |L8.140|
;;;841    		PB4 = ~(PB4);
00008c  6904              LDR      r4,[r0,#0x10]
00008e  43e4              MVNS     r4,r4
000090  6104              STR      r4,[r0,#0x10]
                  |L8.146|
;;;842    	
;;;843    	if(port3States[4] == 1)
000092  791c              LDRB     r4,[r3,#4]  ; port3States
000094  2c01              CMP      r4,#1
000096  d006              BEQ      |L8.166|
;;;844    		PB3 = 1;
;;;845    	else if(port3States[4] == 0)
000098  791c              LDRB     r4,[r3,#4]  ; port3States
00009a  2c00              CMP      r4,#0
00009c  d005              BEQ      |L8.170|
;;;846    		PB3 = 0;
;;;847    	else if(port3States[4] == 6)
00009e  791c              LDRB     r4,[r3,#4]  ; port3States
0000a0  2c06              CMP      r4,#6
0000a2  d004              BEQ      |L8.174|
0000a4  e006              B        |L8.180|
                  |L8.166|
0000a6  60c1              STR      r1,[r0,#0xc]          ;844
0000a8  e004              B        |L8.180|
                  |L8.170|
0000aa  60c2              STR      r2,[r0,#0xc]          ;846
0000ac  e002              B        |L8.180|
                  |L8.174|
;;;848    		PB3 = ~(PB3);
0000ae  68c4              LDR      r4,[r0,#0xc]
0000b0  43e4              MVNS     r4,r4
0000b2  60c4              STR      r4,[r0,#0xc]
                  |L8.180|
;;;849    	
;;;850    	if(port3States[5] == 1)
0000b4  795c              LDRB     r4,[r3,#5]  ; port3States
0000b6  2c01              CMP      r4,#1
0000b8  d006              BEQ      |L8.200|
;;;851    		PB2 = 1;
;;;852    	else if(port3States[5] == 0)
0000ba  795c              LDRB     r4,[r3,#5]  ; port3States
0000bc  2c00              CMP      r4,#0
0000be  d005              BEQ      |L8.204|
;;;853    		PB2 = 0;
;;;854    	else if(port3States[5] == 6)
0000c0  795c              LDRB     r4,[r3,#5]  ; port3States
0000c2  2c06              CMP      r4,#6
0000c4  d004              BEQ      |L8.208|
0000c6  e006              B        |L8.214|
                  |L8.200|
0000c8  6081              STR      r1,[r0,#8]            ;851
0000ca  e004              B        |L8.214|
                  |L8.204|
0000cc  6082              STR      r2,[r0,#8]            ;853
0000ce  e002              B        |L8.214|
                  |L8.208|
;;;855    		PB2 = ~(PB2);
0000d0  6884              LDR      r4,[r0,#8]
0000d2  43e4              MVNS     r4,r4
0000d4  6084              STR      r4,[r0,#8]
                  |L8.214|
;;;856    	
;;;857    	if(port3States[6] == 1)
0000d6  799c              LDRB     r4,[r3,#6]  ; port3States
0000d8  2c01              CMP      r4,#1
0000da  d006              BEQ      |L8.234|
;;;858    		PB1 = 1;
;;;859    	else if(port3States[6] == 0)
0000dc  799c              LDRB     r4,[r3,#6]  ; port3States
0000de  2c00              CMP      r4,#0
0000e0  d005              BEQ      |L8.238|
;;;860    		PB1 = 0;
;;;861    	else if(port3States[6] == 6)
0000e2  799c              LDRB     r4,[r3,#6]  ; port3States
0000e4  2c06              CMP      r4,#6
0000e6  d004              BEQ      |L8.242|
0000e8  e006              B        |L8.248|
                  |L8.234|
0000ea  6041              STR      r1,[r0,#4]            ;858
0000ec  e004              B        |L8.248|
                  |L8.238|
0000ee  6042              STR      r2,[r0,#4]            ;860
0000f0  e002              B        |L8.248|
                  |L8.242|
;;;862    		PB1 = ~(PB1);
0000f2  6844              LDR      r4,[r0,#4]
0000f4  43e4              MVNS     r4,r4
0000f6  6044              STR      r4,[r0,#4]
                  |L8.248|
;;;863    	
;;;864    	if(port3States[7] == 1)
0000f8  79dc              LDRB     r4,[r3,#7]  ; port3States
0000fa  2c01              CMP      r4,#1
0000fc  d007              BEQ      |L8.270|
;;;865    		PB0 = 1;
;;;866    	else if(port3States[7] == 0)
0000fe  79d9              LDRB     r1,[r3,#7]  ; port3States
000100  2900              CMP      r1,#0
000102  d006              BEQ      |L8.274|
;;;867    		PB0 = 0;
;;;868    	else if(port3States[7] == 6)
000104  79d9              LDRB     r1,[r3,#7]  ; port3States
000106  2906              CMP      r1,#6
000108  d102              BNE      |L8.272|
;;;869    		PB0 = ~(PB0);
00010a  6801              LDR      r1,[r0,#0]
00010c  43c9              MVNS     r1,r1
                  |L8.270|
00010e  6001              STR      r1,[r0,#0]            ;865
                  |L8.272|
;;;870    }
000110  bd10              POP      {r4,pc}
                  |L8.274|
000112  6002              STR      r2,[r0,#0]            ;867
000114  bd10              POP      {r4,pc}
;;;871    
                          ENDP

000116  0000              DCW      0x0000
                  |L8.280|
                          DCD      ||.data||+0x48
                  |L8.284|
                          DCD      0x40004840

                          AREA ||i.changePort3States||, CODE, READONLY, ALIGN=2

                  changePort3States PROC
;;;463    
;;;464    void changePort3States()
000000  b570              PUSH     {r4-r6,lr}
;;;465    {
;;;466    	port3Readings[0] = port3Readings[0] & 0x1F;
000002  4d6c              LDR      r5,|L9.436|
000004  7828              LDRB     r0,[r5,#0]  ; port3Readings
000006  06c0              LSLS     r0,r0,#27
000008  0ec0              LSRS     r0,r0,#27
00000a  7028              STRB     r0,[r5,#0]
;;;467    	if(port3Readings[0] == 0x1F)
00000c  782e              LDRB     r6,[r5,#0]  ; port3Readings
;;;468    		port3States[0] = 1;
00000e  4628              MOV      r0,r5
000010  2101              MOVS     r1,#1
000012  2200              MOVS     r2,#0
;;;469    	else if(port3Readings[0] == 0x00)
;;;470    		port3States[0] = 0;
;;;471    	else
;;;472    		{
;;;473    			port3States[0] = port3States[0] + 1;
;;;474    			if(port3States[0] == 1)
;;;475    				port3States[0] = 2;
000014  2302              MOVS     r3,#2
;;;476    			if(port3States[0] == 7)
;;;477    				port3States[0] = 6;
000016  2406              MOVS     r4,#6
000018  3020              ADDS     r0,r0,#0x20           ;468
00001a  2e1f              CMP      r6,#0x1f              ;467
00001c  d009              BEQ      |L9.50|
00001e  782e              LDRB     r6,[r5,#0]            ;469  ; port3Readings
000020  2e00              CMP      r6,#0                 ;469
000022  d008              BEQ      |L9.54|
000024  7806              LDRB     r6,[r0,#0]            ;473  ; port3States
000026  1c76              ADDS     r6,r6,#1              ;473
000028  7006              STRB     r6,[r0,#0]            ;473
00002a  7806              LDRB     r6,[r0,#0]            ;474  ; port3States
00002c  2e01              CMP      r6,#1                 ;474
00002e  d004              BEQ      |L9.58|
000030  e004              B        |L9.60|
                  |L9.50|
000032  7001              STRB     r1,[r0,#0]            ;468
000034  e006              B        |L9.68|
                  |L9.54|
000036  7002              STRB     r2,[r0,#0]            ;470
000038  e004              B        |L9.68|
                  |L9.58|
00003a  7003              STRB     r3,[r0,#0]            ;475
                  |L9.60|
00003c  7806              LDRB     r6,[r0,#0]            ;476  ; port3States
00003e  2e07              CMP      r6,#7                 ;476
000040  d100              BNE      |L9.68|
000042  7004              STRB     r4,[r0,#0]
                  |L9.68|
;;;478    		}
;;;479    	
;;;480    	port3Readings[1] = port3Readings[1] & 0x1F;
000044  786e              LDRB     r6,[r5,#1]  ; port3Readings
000046  06f6              LSLS     r6,r6,#27
000048  0ef6              LSRS     r6,r6,#27
00004a  706e              STRB     r6,[r5,#1]
;;;481    	if(port3Readings[1] == 0x1F)
00004c  786e              LDRB     r6,[r5,#1]  ; port3Readings
00004e  2e1f              CMP      r6,#0x1f
000050  d009              BEQ      |L9.102|
;;;482    		port3States[1] = 1;
;;;483    	else if(port3Readings[1] == 0x00)
000052  786e              LDRB     r6,[r5,#1]  ; port3Readings
000054  2e00              CMP      r6,#0
000056  d008              BEQ      |L9.106|
;;;484    		port3States[1] = 0;
;;;485    	else
;;;486    		{
;;;487    			port3States[1] = port3States[1] + 1;
000058  7846              LDRB     r6,[r0,#1]  ; port3States
00005a  1c76              ADDS     r6,r6,#1
00005c  7046              STRB     r6,[r0,#1]
;;;488    			if(port3States[1] == 1)
00005e  7846              LDRB     r6,[r0,#1]  ; port3States
000060  2e01              CMP      r6,#1
000062  d004              BEQ      |L9.110|
000064  e004              B        |L9.112|
                  |L9.102|
000066  7041              STRB     r1,[r0,#1]            ;482
000068  e006              B        |L9.120|
                  |L9.106|
00006a  7042              STRB     r2,[r0,#1]            ;484
00006c  e004              B        |L9.120|
                  |L9.110|
;;;489    				port3States[1] = 2;
00006e  7043              STRB     r3,[r0,#1]
                  |L9.112|
;;;490    			if(port3States[1] == 7)
000070  7846              LDRB     r6,[r0,#1]  ; port3States
000072  2e07              CMP      r6,#7
000074  d100              BNE      |L9.120|
;;;491    				port3States[1] = 6;
000076  7044              STRB     r4,[r0,#1]
                  |L9.120|
;;;492    		}
;;;493    		
;;;494    	port3Readings[2] = port3Readings[2] & 0x1F;
000078  78ae              LDRB     r6,[r5,#2]  ; port3Readings
00007a  06f6              LSLS     r6,r6,#27
00007c  0ef6              LSRS     r6,r6,#27
00007e  70ae              STRB     r6,[r5,#2]
;;;495    	if(port3Readings[2] == 0x1F)
000080  78ae              LDRB     r6,[r5,#2]  ; port3Readings
000082  2e1f              CMP      r6,#0x1f
000084  d009              BEQ      |L9.154|
;;;496    		port3States[2] = 1;
;;;497    	else if(port3Readings[2] == 0x00)
000086  78ae              LDRB     r6,[r5,#2]  ; port3Readings
000088  2e00              CMP      r6,#0
00008a  d008              BEQ      |L9.158|
;;;498    		port3States[2] = 0;
;;;499    	else
;;;500    		{
;;;501    			port3States[2] = port3States[2] + 1;
00008c  7886              LDRB     r6,[r0,#2]  ; port3States
00008e  1c76              ADDS     r6,r6,#1
000090  7086              STRB     r6,[r0,#2]
;;;502    			if(port3States[2] == 1)
000092  7886              LDRB     r6,[r0,#2]  ; port3States
000094  2e01              CMP      r6,#1
000096  d004              BEQ      |L9.162|
000098  e004              B        |L9.164|
                  |L9.154|
00009a  7081              STRB     r1,[r0,#2]            ;496
00009c  e006              B        |L9.172|
                  |L9.158|
00009e  7082              STRB     r2,[r0,#2]            ;498
0000a0  e004              B        |L9.172|
                  |L9.162|
;;;503    				port3States[2] = 2;
0000a2  7083              STRB     r3,[r0,#2]
                  |L9.164|
;;;504    			if(port3States[2] == 7)
0000a4  7886              LDRB     r6,[r0,#2]  ; port3States
0000a6  2e07              CMP      r6,#7
0000a8  d100              BNE      |L9.172|
;;;505    				port3States[2] = 6;
0000aa  7084              STRB     r4,[r0,#2]
                  |L9.172|
;;;506    		}
;;;507    		
;;;508    	port3Readings[3] = port3Readings[3] & 0x1F;
0000ac  78ee              LDRB     r6,[r5,#3]  ; port3Readings
0000ae  06f6              LSLS     r6,r6,#27
0000b0  0ef6              LSRS     r6,r6,#27
0000b2  70ee              STRB     r6,[r5,#3]
;;;509    	if(port3Readings[3] == 0x1F)
0000b4  78ee              LDRB     r6,[r5,#3]  ; port3Readings
0000b6  2e1f              CMP      r6,#0x1f
0000b8  d009              BEQ      |L9.206|
;;;510    		port3States[3] = 1;
;;;511    	else if(port3Readings[3] == 0x00)
0000ba  78ee              LDRB     r6,[r5,#3]  ; port3Readings
0000bc  2e00              CMP      r6,#0
0000be  d008              BEQ      |L9.210|
;;;512    		port3States[3] = 0;
;;;513    	else
;;;514    		{
;;;515    			port3States[3] = port3States[3] + 1;
0000c0  78c6              LDRB     r6,[r0,#3]  ; port3States
0000c2  1c76              ADDS     r6,r6,#1
0000c4  70c6              STRB     r6,[r0,#3]
;;;516    			if(port3States[3] == 1)
0000c6  78c6              LDRB     r6,[r0,#3]  ; port3States
0000c8  2e01              CMP      r6,#1
0000ca  d004              BEQ      |L9.214|
0000cc  e004              B        |L9.216|
                  |L9.206|
0000ce  70c1              STRB     r1,[r0,#3]            ;510
0000d0  e006              B        |L9.224|
                  |L9.210|
0000d2  70c2              STRB     r2,[r0,#3]            ;512
0000d4  e004              B        |L9.224|
                  |L9.214|
;;;517    				port3States[3] = 2;
0000d6  70c3              STRB     r3,[r0,#3]
                  |L9.216|
;;;518    			if(port3States[3] == 7)
0000d8  78c6              LDRB     r6,[r0,#3]  ; port3States
0000da  2e07              CMP      r6,#7
0000dc  d100              BNE      |L9.224|
;;;519    				port3States[3] = 6;
0000de  70c4              STRB     r4,[r0,#3]
                  |L9.224|
;;;520    		}
;;;521    		
;;;522    	port3Readings[4] = port3Readings[4] & 0x1F;
0000e0  792e              LDRB     r6,[r5,#4]  ; port3Readings
0000e2  06f6              LSLS     r6,r6,#27
0000e4  0ef6              LSRS     r6,r6,#27
0000e6  712e              STRB     r6,[r5,#4]
;;;523    	if(port3Readings[4] == 0x1F)
0000e8  792e              LDRB     r6,[r5,#4]  ; port3Readings
0000ea  2e1f              CMP      r6,#0x1f
0000ec  d009              BEQ      |L9.258|
;;;524    		port3States[4] = 1;
;;;525    	else if(port3Readings[4] == 0x00)
0000ee  792e              LDRB     r6,[r5,#4]  ; port3Readings
0000f0  2e00              CMP      r6,#0
0000f2  d008              BEQ      |L9.262|
;;;526    		port3States[4] = 0;
;;;527    	else
;;;528    		{
;;;529    			port3States[4] = port3States[4] + 1;
0000f4  7906              LDRB     r6,[r0,#4]  ; port3States
0000f6  1c76              ADDS     r6,r6,#1
0000f8  7106              STRB     r6,[r0,#4]
;;;530    			if(port3States[4] == 1)
0000fa  7906              LDRB     r6,[r0,#4]  ; port3States
0000fc  2e01              CMP      r6,#1
0000fe  d004              BEQ      |L9.266|
000100  e004              B        |L9.268|
                  |L9.258|
000102  7101              STRB     r1,[r0,#4]            ;524
000104  e006              B        |L9.276|
                  |L9.262|
000106  7102              STRB     r2,[r0,#4]            ;526
000108  e004              B        |L9.276|
                  |L9.266|
;;;531    				port3States[4] = 2;
00010a  7103              STRB     r3,[r0,#4]
                  |L9.268|
;;;532    			if(port3States[4] == 7)
00010c  7906              LDRB     r6,[r0,#4]  ; port3States
00010e  2e07              CMP      r6,#7
000110  d100              BNE      |L9.276|
;;;533    				port3States[4] = 6;
000112  7104              STRB     r4,[r0,#4]
                  |L9.276|
;;;534    		}
;;;535    		
;;;536    	port3Readings[5] = port3Readings[5] & 0x1F;
000114  796e              LDRB     r6,[r5,#5]  ; port3Readings
000116  06f6              LSLS     r6,r6,#27
000118  0ef6              LSRS     r6,r6,#27
00011a  716e              STRB     r6,[r5,#5]
;;;537    	if(port3Readings[5] == 0x1F)
00011c  796e              LDRB     r6,[r5,#5]  ; port3Readings
00011e  2e1f              CMP      r6,#0x1f
000120  d009              BEQ      |L9.310|
;;;538    		port3States[5] = 1;
;;;539    	else if(port3Readings[5] == 0x00)
000122  796e              LDRB     r6,[r5,#5]  ; port3Readings
000124  2e00              CMP      r6,#0
000126  d008              BEQ      |L9.314|
;;;540    		port3States[5] = 0;
;;;541    	else
;;;542    		{
;;;543    			port3States[5] = port3States[5] + 1;
000128  7946              LDRB     r6,[r0,#5]  ; port3States
00012a  1c76              ADDS     r6,r6,#1
00012c  7146              STRB     r6,[r0,#5]
;;;544    			if(port3States[5] == 1)
00012e  7946              LDRB     r6,[r0,#5]  ; port3States
000130  2e01              CMP      r6,#1
000132  d004              BEQ      |L9.318|
000134  e004              B        |L9.320|
                  |L9.310|
000136  7141              STRB     r1,[r0,#5]            ;538
000138  e006              B        |L9.328|
                  |L9.314|
00013a  7142              STRB     r2,[r0,#5]            ;540
00013c  e004              B        |L9.328|
                  |L9.318|
;;;545    				port3States[5] = 2;
00013e  7143              STRB     r3,[r0,#5]
                  |L9.320|
;;;546    			if(port3States[5] == 7)
000140  7946              LDRB     r6,[r0,#5]  ; port3States
000142  2e07              CMP      r6,#7
000144  d100              BNE      |L9.328|
;;;547    				port3States[5] = 6;
000146  7144              STRB     r4,[r0,#5]
                  |L9.328|
;;;548    		}
;;;549    		
;;;550    	port3Readings[6] = port3Readings[6] & 0x1F;
000148  79ae              LDRB     r6,[r5,#6]  ; port3Readings
00014a  06f6              LSLS     r6,r6,#27
00014c  0ef6              LSRS     r6,r6,#27
00014e  71ae              STRB     r6,[r5,#6]
;;;551    	if(port3Readings[6] == 0x1F)
000150  79ae              LDRB     r6,[r5,#6]  ; port3Readings
000152  2e1f              CMP      r6,#0x1f
000154  d009              BEQ      |L9.362|
;;;552    		port3States[6] = 1;
;;;553    	else if(port3Readings[6] == 0x00)
000156  79ae              LDRB     r6,[r5,#6]  ; port3Readings
000158  2e00              CMP      r6,#0
00015a  d008              BEQ      |L9.366|
;;;554    		port3States[6] = 0;
;;;555    	else
;;;556    		{
;;;557    			port3States[6] = port3States[6] + 1;
00015c  7986              LDRB     r6,[r0,#6]  ; port3States
00015e  1c76              ADDS     r6,r6,#1
000160  7186              STRB     r6,[r0,#6]
;;;558    			if(port3States[6] == 1)
000162  7986              LDRB     r6,[r0,#6]  ; port3States
000164  2e01              CMP      r6,#1
000166  d004              BEQ      |L9.370|
000168  e004              B        |L9.372|
                  |L9.362|
00016a  7181              STRB     r1,[r0,#6]            ;552
00016c  e006              B        |L9.380|
                  |L9.366|
00016e  7182              STRB     r2,[r0,#6]            ;554
000170  e004              B        |L9.380|
                  |L9.370|
;;;559    				port3States[6] = 2;
000172  7183              STRB     r3,[r0,#6]
                  |L9.372|
;;;560    			if(port3States[6] == 7)
000174  7986              LDRB     r6,[r0,#6]  ; port3States
000176  2e07              CMP      r6,#7
000178  d100              BNE      |L9.380|
;;;561    				port3States[6] = 6;
00017a  7184              STRB     r4,[r0,#6]
                  |L9.380|
;;;562    		}
;;;563    		
;;;564    	port3Readings[7] = port3Readings[7] & 0x1F;
00017c  79ee              LDRB     r6,[r5,#7]  ; port3Readings
00017e  06f6              LSLS     r6,r6,#27
000180  0ef6              LSRS     r6,r6,#27
000182  71ee              STRB     r6,[r5,#7]
;;;565    	if(port3Readings[7] == 0x1F)
000184  79ee              LDRB     r6,[r5,#7]  ; port3Readings
000186  2e1f              CMP      r6,#0x1f
000188  d009              BEQ      |L9.414|
;;;566    		port3States[7] = 1;
;;;567    	else if(port3Readings[7] == 0x00)
00018a  79e9              LDRB     r1,[r5,#7]  ; port3Readings
00018c  2900              CMP      r1,#0
00018e  d008              BEQ      |L9.418|
;;;568    		port3States[7] = 0;
;;;569    	else
;;;570    		{
;;;571    			port3States[7] = port3States[7] + 1;
000190  79c1              LDRB     r1,[r0,#7]  ; port3States
000192  1c49              ADDS     r1,r1,#1
000194  71c1              STRB     r1,[r0,#7]
;;;572    			if(port3States[7] == 1)
000196  79c1              LDRB     r1,[r0,#7]  ; port3States
000198  2901              CMP      r1,#1
00019a  d004              BEQ      |L9.422|
00019c  e004              B        |L9.424|
                  |L9.414|
00019e  71c1              STRB     r1,[r0,#7]            ;566
;;;573    				port3States[7] = 2;
;;;574    			if(port3States[7] == 7)
;;;575    				port3States[7] = 6;
;;;576    		}
;;;577    }
0001a0  bd70              POP      {r4-r6,pc}
                  |L9.418|
0001a2  71c2              STRB     r2,[r0,#7]            ;568
                  |L9.420|
0001a4  bd70              POP      {r4-r6,pc}
                  |L9.422|
0001a6  71c3              STRB     r3,[r0,#7]            ;573
                  |L9.424|
0001a8  79c1              LDRB     r1,[r0,#7]            ;574  ; port3States
0001aa  2907              CMP      r1,#7                 ;574
0001ac  d1fa              BNE      |L9.420|
0001ae  71c4              STRB     r4,[r0,#7]            ;575
0001b0  bd70              POP      {r4-r6,pc}
;;;578    
                          ENDP

0001b2  0000              DCW      0x0000
                  |L9.436|
                          DCD      ||.data||+0x28

                          AREA ||i.changePort4||, CODE, READONLY, ALIGN=2

                  changePort4 PROC
;;;871    
;;;872    void changePort4()
000000  b510              PUSH     {r4,lr}
;;;873    {
;;;874    	if(port4States[0] == 1)
000002  4b45              LDR      r3,|L10.280|
000004  781c              LDRB     r4,[r3,#0]  ; port4States
;;;875    		PA7 = 1;
000006  2101              MOVS     r1,#1
000008  2200              MOVS     r2,#0
00000a  4844              LDR      r0,|L10.284|
00000c  2c01              CMP      r4,#1                 ;874
00000e  d006              BEQ      |L10.30|
;;;876    	else if(port4States[0] == 0)
000010  781c              LDRB     r4,[r3,#0]  ; port4States
000012  2c00              CMP      r4,#0
000014  d005              BEQ      |L10.34|
;;;877    		PA7 = 0;
;;;878    	else if(port4States[0] == 6)
000016  781c              LDRB     r4,[r3,#0]  ; port4States
000018  2c06              CMP      r4,#6
00001a  d004              BEQ      |L10.38|
00001c  e006              B        |L10.44|
                  |L10.30|
00001e  61c1              STR      r1,[r0,#0x1c]         ;875
000020  e004              B        |L10.44|
                  |L10.34|
000022  61c2              STR      r2,[r0,#0x1c]         ;877
000024  e002              B        |L10.44|
                  |L10.38|
;;;879    		PA7 = ~(PA7);
000026  69c4              LDR      r4,[r0,#0x1c]
000028  43e4              MVNS     r4,r4
00002a  61c4              STR      r4,[r0,#0x1c]
                  |L10.44|
;;;880    	
;;;881    	if(port4States[1] == 1)
00002c  785c              LDRB     r4,[r3,#1]  ; port4States
00002e  2c01              CMP      r4,#1
000030  d006              BEQ      |L10.64|
;;;882    		PA6 = 1;
;;;883    	else if(port4States[1] == 0)
000032  785c              LDRB     r4,[r3,#1]  ; port4States
000034  2c00              CMP      r4,#0
000036  d005              BEQ      |L10.68|
;;;884    		PA6 = 0;
;;;885    	else if(port4States[1] == 6)
000038  785c              LDRB     r4,[r3,#1]  ; port4States
00003a  2c06              CMP      r4,#6
00003c  d004              BEQ      |L10.72|
00003e  e006              B        |L10.78|
                  |L10.64|
000040  6181              STR      r1,[r0,#0x18]         ;882
000042  e004              B        |L10.78|
                  |L10.68|
000044  6182              STR      r2,[r0,#0x18]         ;884
000046  e002              B        |L10.78|
                  |L10.72|
;;;886    		PA6 = ~(PA6);
000048  6984              LDR      r4,[r0,#0x18]
00004a  43e4              MVNS     r4,r4
00004c  6184              STR      r4,[r0,#0x18]
                  |L10.78|
;;;887    	
;;;888    	if(port4States[2] == 1)
00004e  789c              LDRB     r4,[r3,#2]  ; port4States
000050  2c01              CMP      r4,#1
000052  d006              BEQ      |L10.98|
;;;889    		PA5 = 1;
;;;890    	else if(port4States[2] == 0)
000054  789c              LDRB     r4,[r3,#2]  ; port4States
000056  2c00              CMP      r4,#0
000058  d005              BEQ      |L10.102|
;;;891    		PA5 = 0;
;;;892    	else if(port4States[2] == 6)
00005a  789c              LDRB     r4,[r3,#2]  ; port4States
00005c  2c06              CMP      r4,#6
00005e  d004              BEQ      |L10.106|
000060  e006              B        |L10.112|
                  |L10.98|
000062  6141              STR      r1,[r0,#0x14]         ;889
000064  e004              B        |L10.112|
                  |L10.102|
000066  6142              STR      r2,[r0,#0x14]         ;891
000068  e002              B        |L10.112|
                  |L10.106|
;;;893    		PA5 = ~(PA5);
00006a  6944              LDR      r4,[r0,#0x14]
00006c  43e4              MVNS     r4,r4
00006e  6144              STR      r4,[r0,#0x14]
                  |L10.112|
;;;894    	
;;;895    	if(port4States[3] == 1)
000070  78dc              LDRB     r4,[r3,#3]  ; port4States
000072  2c01              CMP      r4,#1
000074  d006              BEQ      |L10.132|
;;;896    		PA4 = 1;
;;;897    	else if(port4States[3] == 0)
000076  78dc              LDRB     r4,[r3,#3]  ; port4States
000078  2c00              CMP      r4,#0
00007a  d005              BEQ      |L10.136|
;;;898    		PA4 = 0;
;;;899    	else if(port4States[3] == 6)
00007c  78dc              LDRB     r4,[r3,#3]  ; port4States
00007e  2c06              CMP      r4,#6
000080  d004              BEQ      |L10.140|
000082  e006              B        |L10.146|
                  |L10.132|
000084  6101              STR      r1,[r0,#0x10]         ;896
000086  e004              B        |L10.146|
                  |L10.136|
000088  6102              STR      r2,[r0,#0x10]         ;898
00008a  e002              B        |L10.146|
                  |L10.140|
;;;900    		PA4 = ~(PA4);
00008c  6904              LDR      r4,[r0,#0x10]
00008e  43e4              MVNS     r4,r4
000090  6104              STR      r4,[r0,#0x10]
                  |L10.146|
;;;901    	
;;;902    	if(port4States[4] == 1)
000092  791c              LDRB     r4,[r3,#4]  ; port4States
000094  2c01              CMP      r4,#1
000096  d006              BEQ      |L10.166|
;;;903    		PA3 = 1;
;;;904    	else if(port4States[4] == 0)
000098  791c              LDRB     r4,[r3,#4]  ; port4States
00009a  2c00              CMP      r4,#0
00009c  d005              BEQ      |L10.170|
;;;905    		PA3 = 0;
;;;906    	else if(port4States[4] == 6)
00009e  791c              LDRB     r4,[r3,#4]  ; port4States
0000a0  2c06              CMP      r4,#6
0000a2  d004              BEQ      |L10.174|
0000a4  e006              B        |L10.180|
                  |L10.166|
0000a6  60c1              STR      r1,[r0,#0xc]          ;903
0000a8  e004              B        |L10.180|
                  |L10.170|
0000aa  60c2              STR      r2,[r0,#0xc]          ;905
0000ac  e002              B        |L10.180|
                  |L10.174|
;;;907    		PA3 = ~(PA3);
0000ae  68c4              LDR      r4,[r0,#0xc]
0000b0  43e4              MVNS     r4,r4
0000b2  60c4              STR      r4,[r0,#0xc]
                  |L10.180|
;;;908    	
;;;909    	if(port4States[5] == 1)
0000b4  795c              LDRB     r4,[r3,#5]  ; port4States
0000b6  2c01              CMP      r4,#1
0000b8  d006              BEQ      |L10.200|
;;;910    		PA2 = 1;
;;;911    	else if(port4States[5] == 0)
0000ba  795c              LDRB     r4,[r3,#5]  ; port4States
0000bc  2c00              CMP      r4,#0
0000be  d005              BEQ      |L10.204|
;;;912    		PA2 = 0;
;;;913    	else if(port4States[5] == 6)
0000c0  795c              LDRB     r4,[r3,#5]  ; port4States
0000c2  2c06              CMP      r4,#6
0000c4  d004              BEQ      |L10.208|
0000c6  e006              B        |L10.214|
                  |L10.200|
0000c8  6081              STR      r1,[r0,#8]            ;910
0000ca  e004              B        |L10.214|
                  |L10.204|
0000cc  6082              STR      r2,[r0,#8]            ;912
0000ce  e002              B        |L10.214|
                  |L10.208|
;;;914    		PA2 = ~(PA2);
0000d0  6884              LDR      r4,[r0,#8]
0000d2  43e4              MVNS     r4,r4
0000d4  6084              STR      r4,[r0,#8]
                  |L10.214|
;;;915    	
;;;916    	if(port4States[6] == 1)
0000d6  799c              LDRB     r4,[r3,#6]  ; port4States
0000d8  2c01              CMP      r4,#1
0000da  d006              BEQ      |L10.234|
;;;917    		PA1 = 1;
;;;918    	else if(port4States[6] == 0)
0000dc  799c              LDRB     r4,[r3,#6]  ; port4States
0000de  2c00              CMP      r4,#0
0000e0  d005              BEQ      |L10.238|
;;;919    		PA1 = 0;
;;;920    	else if(port4States[6] == 6)
0000e2  799c              LDRB     r4,[r3,#6]  ; port4States
0000e4  2c06              CMP      r4,#6
0000e6  d004              BEQ      |L10.242|
0000e8  e006              B        |L10.248|
                  |L10.234|
0000ea  6041              STR      r1,[r0,#4]            ;917
0000ec  e004              B        |L10.248|
                  |L10.238|
0000ee  6042              STR      r2,[r0,#4]            ;919
0000f0  e002              B        |L10.248|
                  |L10.242|
;;;921    		PA1 = ~(PA1);
0000f2  6844              LDR      r4,[r0,#4]
0000f4  43e4              MVNS     r4,r4
0000f6  6044              STR      r4,[r0,#4]
                  |L10.248|
;;;922    	
;;;923    	if(port4States[7] == 1)
0000f8  79dc              LDRB     r4,[r3,#7]  ; port4States
0000fa  2c01              CMP      r4,#1
0000fc  d007              BEQ      |L10.270|
;;;924    		PA0 = 1;
;;;925    	else if(port4States[7] == 0)
0000fe  79d9              LDRB     r1,[r3,#7]  ; port4States
000100  2900              CMP      r1,#0
000102  d006              BEQ      |L10.274|
;;;926    		PA0 = 0;
;;;927    	else if(port4States[7] == 6)
000104  79d9              LDRB     r1,[r3,#7]  ; port4States
000106  2906              CMP      r1,#6
000108  d102              BNE      |L10.272|
;;;928    		PA0 = ~(PA0);
00010a  6801              LDR      r1,[r0,#0]
00010c  43c9              MVNS     r1,r1
                  |L10.270|
00010e  6001              STR      r1,[r0,#0]            ;924
                  |L10.272|
;;;929    }
000110  bd10              POP      {r4,pc}
                  |L10.274|
000112  6002              STR      r2,[r0,#0]            ;926
000114  bd10              POP      {r4,pc}
;;;930    
                          ENDP

000116  0000              DCW      0x0000
                  |L10.280|
                          DCD      ||.data||+0x50
                  |L10.284|
                          DCD      0x40004800

                          AREA ||i.changePort4States||, CODE, READONLY, ALIGN=2

                  changePort4States PROC
;;;578    
;;;579    void changePort4States()
000000  b570              PUSH     {r4-r6,lr}
;;;580    {
;;;581    	port4Readings[0] = port4Readings[0] & 0x1F;
000002  4d6c              LDR      r5,|L11.436|
000004  7828              LDRB     r0,[r5,#0]  ; port4Readings
000006  06c0              LSLS     r0,r0,#27
000008  0ec0              LSRS     r0,r0,#27
00000a  7028              STRB     r0,[r5,#0]
;;;582    	if(port4Readings[0] == 0x1F)
00000c  782e              LDRB     r6,[r5,#0]  ; port4Readings
;;;583    		port4States[0] = 1;
00000e  4628              MOV      r0,r5
000010  2101              MOVS     r1,#1
000012  2200              MOVS     r2,#0
;;;584    	else if(port4Readings[0] == 0x00)
;;;585    		port4States[0] = 0;
;;;586    	else
;;;587    		{
;;;588    			port4States[0] = port4States[0] + 1;
;;;589    			if(port4States[0] == 1)
;;;590    				port4States[0] = 2;
000014  2302              MOVS     r3,#2
;;;591    			if(port4States[0] == 7)
;;;592    				port4States[0] = 6;
000016  2406              MOVS     r4,#6
000018  3020              ADDS     r0,r0,#0x20           ;583
00001a  2e1f              CMP      r6,#0x1f              ;582
00001c  d009              BEQ      |L11.50|
00001e  782e              LDRB     r6,[r5,#0]            ;584  ; port4Readings
000020  2e00              CMP      r6,#0                 ;584
000022  d008              BEQ      |L11.54|
000024  7806              LDRB     r6,[r0,#0]            ;588  ; port4States
000026  1c76              ADDS     r6,r6,#1              ;588
000028  7006              STRB     r6,[r0,#0]            ;588
00002a  7806              LDRB     r6,[r0,#0]            ;589  ; port4States
00002c  2e01              CMP      r6,#1                 ;589
00002e  d004              BEQ      |L11.58|
000030  e004              B        |L11.60|
                  |L11.50|
000032  7001              STRB     r1,[r0,#0]            ;583
000034  e006              B        |L11.68|
                  |L11.54|
000036  7002              STRB     r2,[r0,#0]            ;585
000038  e004              B        |L11.68|
                  |L11.58|
00003a  7003              STRB     r3,[r0,#0]            ;590
                  |L11.60|
00003c  7806              LDRB     r6,[r0,#0]            ;591  ; port4States
00003e  2e07              CMP      r6,#7                 ;591
000040  d100              BNE      |L11.68|
000042  7004              STRB     r4,[r0,#0]
                  |L11.68|
;;;593    		}
;;;594    	
;;;595    	port4Readings[1] = port4Readings[1] & 0x1F;
000044  786e              LDRB     r6,[r5,#1]  ; port4Readings
000046  06f6              LSLS     r6,r6,#27
000048  0ef6              LSRS     r6,r6,#27
00004a  706e              STRB     r6,[r5,#1]
;;;596    	if(port4Readings[1] == 0x1F)
00004c  786e              LDRB     r6,[r5,#1]  ; port4Readings
00004e  2e1f              CMP      r6,#0x1f
000050  d009              BEQ      |L11.102|
;;;597    		port4States[1] = 1;
;;;598    	else if(port4Readings[1] == 0x00)
000052  786e              LDRB     r6,[r5,#1]  ; port4Readings
000054  2e00              CMP      r6,#0
000056  d008              BEQ      |L11.106|
;;;599    		port4States[1] = 0;
;;;600    	else
;;;601    		{
;;;602    			port4States[1] = port4States[1] + 1;
000058  7846              LDRB     r6,[r0,#1]  ; port4States
00005a  1c76              ADDS     r6,r6,#1
00005c  7046              STRB     r6,[r0,#1]
;;;603    			if(port4States[1] == 1)
00005e  7846              LDRB     r6,[r0,#1]  ; port4States
000060  2e01              CMP      r6,#1
000062  d004              BEQ      |L11.110|
000064  e004              B        |L11.112|
                  |L11.102|
000066  7041              STRB     r1,[r0,#1]            ;597
000068  e006              B        |L11.120|
                  |L11.106|
00006a  7042              STRB     r2,[r0,#1]            ;599
00006c  e004              B        |L11.120|
                  |L11.110|
;;;604    				port4States[1] = 2;
00006e  7043              STRB     r3,[r0,#1]
                  |L11.112|
;;;605    			if(port4States[1] == 7)
000070  7846              LDRB     r6,[r0,#1]  ; port4States
000072  2e07              CMP      r6,#7
000074  d100              BNE      |L11.120|
;;;606    				port4States[1] = 6;
000076  7044              STRB     r4,[r0,#1]
                  |L11.120|
;;;607    		}
;;;608    		
;;;609    	port4Readings[2] = port4Readings[2] & 0x1F;
000078  78ae              LDRB     r6,[r5,#2]  ; port4Readings
00007a  06f6              LSLS     r6,r6,#27
00007c  0ef6              LSRS     r6,r6,#27
00007e  70ae              STRB     r6,[r5,#2]
;;;610    	if(port4Readings[2] == 0x1F)
000080  78ae              LDRB     r6,[r5,#2]  ; port4Readings
000082  2e1f              CMP      r6,#0x1f
000084  d009              BEQ      |L11.154|
;;;611    		port4States[2] = 1;
;;;612    	else if(port4Readings[2] == 0x00)
000086  78ae              LDRB     r6,[r5,#2]  ; port4Readings
000088  2e00              CMP      r6,#0
00008a  d008              BEQ      |L11.158|
;;;613    		port4States[2] = 0;
;;;614    	else
;;;615    		{
;;;616    			port4States[2] = port4States[2] + 1;
00008c  7886              LDRB     r6,[r0,#2]  ; port4States
00008e  1c76              ADDS     r6,r6,#1
000090  7086              STRB     r6,[r0,#2]
;;;617    			if(port4States[2] == 1)
000092  7886              LDRB     r6,[r0,#2]  ; port4States
000094  2e01              CMP      r6,#1
000096  d004              BEQ      |L11.162|
000098  e004              B        |L11.164|
                  |L11.154|
00009a  7081              STRB     r1,[r0,#2]            ;611
00009c  e006              B        |L11.172|
                  |L11.158|
00009e  7082              STRB     r2,[r0,#2]            ;613
0000a0  e004              B        |L11.172|
                  |L11.162|
;;;618    				port4States[2] = 2;
0000a2  7083              STRB     r3,[r0,#2]
                  |L11.164|
;;;619    			if(port4States[2] == 7)
0000a4  7886              LDRB     r6,[r0,#2]  ; port4States
0000a6  2e07              CMP      r6,#7
0000a8  d100              BNE      |L11.172|
;;;620    				port4States[2] = 6;
0000aa  7084              STRB     r4,[r0,#2]
                  |L11.172|
;;;621    		}
;;;622    		
;;;623    	port4Readings[3] = port4Readings[3] & 0x1F;
0000ac  78ee              LDRB     r6,[r5,#3]  ; port4Readings
0000ae  06f6              LSLS     r6,r6,#27
0000b0  0ef6              LSRS     r6,r6,#27
0000b2  70ee              STRB     r6,[r5,#3]
;;;624    	if(port4Readings[3] == 0x1F)
0000b4  78ee              LDRB     r6,[r5,#3]  ; port4Readings
0000b6  2e1f              CMP      r6,#0x1f
0000b8  d009              BEQ      |L11.206|
;;;625    		port4States[3] = 1;
;;;626    	else if(port4Readings[3] == 0x00)
0000ba  78ee              LDRB     r6,[r5,#3]  ; port4Readings
0000bc  2e00              CMP      r6,#0
0000be  d008              BEQ      |L11.210|
;;;627    		port4States[3] = 0;
;;;628    	else
;;;629    		{
;;;630    			port4States[3] = port4States[3] + 1;
0000c0  78c6              LDRB     r6,[r0,#3]  ; port4States
0000c2  1c76              ADDS     r6,r6,#1
0000c4  70c6              STRB     r6,[r0,#3]
;;;631    			if(port4States[3] == 1)
0000c6  78c6              LDRB     r6,[r0,#3]  ; port4States
0000c8  2e01              CMP      r6,#1
0000ca  d004              BEQ      |L11.214|
0000cc  e004              B        |L11.216|
                  |L11.206|
0000ce  70c1              STRB     r1,[r0,#3]            ;625
0000d0  e006              B        |L11.224|
                  |L11.210|
0000d2  70c2              STRB     r2,[r0,#3]            ;627
0000d4  e004              B        |L11.224|
                  |L11.214|
;;;632    				port4States[3] = 2;
0000d6  70c3              STRB     r3,[r0,#3]
                  |L11.216|
;;;633    			if(port4States[3] == 7)
0000d8  78c6              LDRB     r6,[r0,#3]  ; port4States
0000da  2e07              CMP      r6,#7
0000dc  d100              BNE      |L11.224|
;;;634    				port4States[3] = 6;
0000de  70c4              STRB     r4,[r0,#3]
                  |L11.224|
;;;635    		}
;;;636    		
;;;637    	port4Readings[4] = port4Readings[4] & 0x1F;
0000e0  792e              LDRB     r6,[r5,#4]  ; port4Readings
0000e2  06f6              LSLS     r6,r6,#27
0000e4  0ef6              LSRS     r6,r6,#27
0000e6  712e              STRB     r6,[r5,#4]
;;;638    	if(port4Readings[4] == 0x1F)
0000e8  792e              LDRB     r6,[r5,#4]  ; port4Readings
0000ea  2e1f              CMP      r6,#0x1f
0000ec  d009              BEQ      |L11.258|
;;;639    		port4States[4] = 1;
;;;640    	else if(port4Readings[4] == 0x00)
0000ee  792e              LDRB     r6,[r5,#4]  ; port4Readings
0000f0  2e00              CMP      r6,#0
0000f2  d008              BEQ      |L11.262|
;;;641    		port4States[4] = 0;
;;;642    	else
;;;643    		{
;;;644    			port4States[4] = port4States[4] + 1;
0000f4  7906              LDRB     r6,[r0,#4]  ; port4States
0000f6  1c76              ADDS     r6,r6,#1
0000f8  7106              STRB     r6,[r0,#4]
;;;645    			if(port4States[4] == 1)
0000fa  7906              LDRB     r6,[r0,#4]  ; port4States
0000fc  2e01              CMP      r6,#1
0000fe  d004              BEQ      |L11.266|
000100  e004              B        |L11.268|
                  |L11.258|
000102  7101              STRB     r1,[r0,#4]            ;639
000104  e006              B        |L11.276|
                  |L11.262|
000106  7102              STRB     r2,[r0,#4]            ;641
000108  e004              B        |L11.276|
                  |L11.266|
;;;646    				port4States[4] = 2;
00010a  7103              STRB     r3,[r0,#4]
                  |L11.268|
;;;647    			if(port4States[4] == 7)
00010c  7906              LDRB     r6,[r0,#4]  ; port4States
00010e  2e07              CMP      r6,#7
000110  d100              BNE      |L11.276|
;;;648    				port4States[4] = 6;
000112  7104              STRB     r4,[r0,#4]
                  |L11.276|
;;;649    		}
;;;650    		
;;;651    	port4Readings[5] = port4Readings[5] & 0x1F;
000114  796e              LDRB     r6,[r5,#5]  ; port4Readings
000116  06f6              LSLS     r6,r6,#27
000118  0ef6              LSRS     r6,r6,#27
00011a  716e              STRB     r6,[r5,#5]
;;;652    	if(port4Readings[5] == 0x1F)
00011c  796e              LDRB     r6,[r5,#5]  ; port4Readings
00011e  2e1f              CMP      r6,#0x1f
000120  d009              BEQ      |L11.310|
;;;653    		port4States[5] = 1;
;;;654    	else if(port4Readings[5] == 0x00)
000122  796e              LDRB     r6,[r5,#5]  ; port4Readings
000124  2e00              CMP      r6,#0
000126  d008              BEQ      |L11.314|
;;;655    		port4States[5] = 0;
;;;656    	else
;;;657    		{
;;;658    			port4States[5] = port4States[5] + 1;
000128  7946              LDRB     r6,[r0,#5]  ; port4States
00012a  1c76              ADDS     r6,r6,#1
00012c  7146              STRB     r6,[r0,#5]
;;;659    			if(port4States[5] == 1)
00012e  7946              LDRB     r6,[r0,#5]  ; port4States
000130  2e01              CMP      r6,#1
000132  d004              BEQ      |L11.318|
000134  e004              B        |L11.320|
                  |L11.310|
000136  7141              STRB     r1,[r0,#5]            ;653
000138  e006              B        |L11.328|
                  |L11.314|
00013a  7142              STRB     r2,[r0,#5]            ;655
00013c  e004              B        |L11.328|
                  |L11.318|
;;;660    				port4States[5] = 2;
00013e  7143              STRB     r3,[r0,#5]
                  |L11.320|
;;;661    			if(port4States[5] == 7)
000140  7946              LDRB     r6,[r0,#5]  ; port4States
000142  2e07              CMP      r6,#7
000144  d100              BNE      |L11.328|
;;;662    				port4States[5] = 6;
000146  7144              STRB     r4,[r0,#5]
                  |L11.328|
;;;663    		}
;;;664    		
;;;665    	port4Readings[6] = port4Readings[6] & 0x1F;
000148  79ae              LDRB     r6,[r5,#6]  ; port4Readings
00014a  06f6              LSLS     r6,r6,#27
00014c  0ef6              LSRS     r6,r6,#27
00014e  71ae              STRB     r6,[r5,#6]
;;;666    	if(port4Readings[6] == 0x1F)
000150  79ae              LDRB     r6,[r5,#6]  ; port4Readings
000152  2e1f              CMP      r6,#0x1f
000154  d009              BEQ      |L11.362|
;;;667    		port4States[6] = 1;
;;;668    	else if(port4Readings[6] == 0x00)
000156  79ae              LDRB     r6,[r5,#6]  ; port4Readings
000158  2e00              CMP      r6,#0
00015a  d008              BEQ      |L11.366|
;;;669    		port4States[6] = 0;
;;;670    	else
;;;671    		{
;;;672    			port4States[6] = port4States[6] + 1;
00015c  7986              LDRB     r6,[r0,#6]  ; port4States
00015e  1c76              ADDS     r6,r6,#1
000160  7186              STRB     r6,[r0,#6]
;;;673    			if(port4States[6] == 1)
000162  7986              LDRB     r6,[r0,#6]  ; port4States
000164  2e01              CMP      r6,#1
000166  d004              BEQ      |L11.370|
000168  e004              B        |L11.372|
                  |L11.362|
00016a  7181              STRB     r1,[r0,#6]            ;667
00016c  e006              B        |L11.380|
                  |L11.366|
00016e  7182              STRB     r2,[r0,#6]            ;669
000170  e004              B        |L11.380|
                  |L11.370|
;;;674    				port4States[6] = 2;
000172  7183              STRB     r3,[r0,#6]
                  |L11.372|
;;;675    			if(port4States[6] == 7)
000174  7986              LDRB     r6,[r0,#6]  ; port4States
000176  2e07              CMP      r6,#7
000178  d100              BNE      |L11.380|
;;;676    				port4States[6] = 6;
00017a  7184              STRB     r4,[r0,#6]
                  |L11.380|
;;;677    		}
;;;678    		
;;;679    	port4Readings[7] = port4Readings[7] & 0x1F;
00017c  79ee              LDRB     r6,[r5,#7]  ; port4Readings
00017e  06f6              LSLS     r6,r6,#27
000180  0ef6              LSRS     r6,r6,#27
000182  71ee              STRB     r6,[r5,#7]
;;;680    	if(port4Readings[7] == 0x1F)
000184  79ee              LDRB     r6,[r5,#7]  ; port4Readings
000186  2e1f              CMP      r6,#0x1f
000188  d009              BEQ      |L11.414|
;;;681    		port4States[7] = 1;
;;;682    	else if(port4Readings[7] == 0x00)
00018a  79e9              LDRB     r1,[r5,#7]  ; port4Readings
00018c  2900              CMP      r1,#0
00018e  d008              BEQ      |L11.418|
;;;683    		port4States[7] = 0;
;;;684    	else
;;;685    		{
;;;686    			port4States[7] = port4States[7] + 1;
000190  79c1              LDRB     r1,[r0,#7]  ; port4States
000192  1c49              ADDS     r1,r1,#1
000194  71c1              STRB     r1,[r0,#7]
;;;687    			if(port4States[7] == 1)
000196  79c1              LDRB     r1,[r0,#7]  ; port4States
000198  2901              CMP      r1,#1
00019a  d004              BEQ      |L11.422|
00019c  e004              B        |L11.424|
                  |L11.414|
00019e  71c1              STRB     r1,[r0,#7]            ;681
;;;688    				port4States[7] = 2;
;;;689    			if(port4States[7] == 7)
;;;690    				port4States[7] = 6;
;;;691    		}
;;;692    }
0001a0  bd70              POP      {r4-r6,pc}
                  |L11.418|
0001a2  71c2              STRB     r2,[r0,#7]            ;683
                  |L11.420|
0001a4  bd70              POP      {r4-r6,pc}
                  |L11.422|
0001a6  71c3              STRB     r3,[r0,#7]            ;688
                  |L11.424|
0001a8  79c1              LDRB     r1,[r0,#7]            ;689  ; port4States
0001aa  2907              CMP      r1,#7                 ;689
0001ac  d1fa              BNE      |L11.420|
0001ae  71c4              STRB     r4,[r0,#7]            ;690
0001b0  bd70              POP      {r4-r6,pc}
;;;693    
                          ENDP

0001b2  0000              DCW      0x0000
                  |L11.436|
                          DCD      ||.data||+0x30

                          AREA ||i.setPort_1||, CODE, READONLY, ALIGN=2

                  setPort_1 PROC
;;;61     
;;;62     void setPort_1(char value)
000000  b518              PUSH     {r3,r4,lr}
;;;63     {
;;;64     	volatile char res = value & 0x01;
000002  07c1              LSLS     r1,r0,#31
000004  0fc9              LSRS     r1,r1,#31
000006  466b              MOV      r3,sp
000008  7019              STRB     r1,[r3,#0]
;;;65     	port1Readings[0] = port1Readings[0] << 1;
00000a  4a30              LDR      r2,|L12.204|
00000c  7811              LDRB     r1,[r2,#0]  ; port1Readings
00000e  0049              LSLS     r1,r1,#1
000010  7011              STRB     r1,[r2,#0]
;;;66     	if(res != 0)
000012  781b              LDRB     r3,[r3,#0]
;;;67     		port1Readings[0] = port1Readings[0] | 0x01;
000014  2101              MOVS     r1,#1
000016  2b00              CMP      r3,#0                 ;66
000018  d002              BEQ      |L12.32|
00001a  7813              LDRB     r3,[r2,#0]  ; port1Readings
00001c  430b              ORRS     r3,r3,r1
00001e  7013              STRB     r3,[r2,#0]
                  |L12.32|
;;;68     	
;;;69     	res = value & 0x02;
000020  2302              MOVS     r3,#2
000022  4003              ANDS     r3,r3,r0
000024  466c              MOV      r4,sp
000026  7023              STRB     r3,[r4,#0]
;;;70     	port1Readings[1] = port1Readings[1] << 1;
000028  7853              LDRB     r3,[r2,#1]  ; port1Readings
00002a  005b              LSLS     r3,r3,#1
00002c  7053              STRB     r3,[r2,#1]
;;;71     	if(res != 0)
00002e  7823              LDRB     r3,[r4,#0]
000030  2b00              CMP      r3,#0
000032  d002              BEQ      |L12.58|
;;;72     		port1Readings[1] = port1Readings[1] | 0x01;
000034  7853              LDRB     r3,[r2,#1]  ; port1Readings
000036  430b              ORRS     r3,r3,r1
000038  7053              STRB     r3,[r2,#1]
                  |L12.58|
;;;73     	
;;;74     	res = value & 0x04;
00003a  2304              MOVS     r3,#4
00003c  4003              ANDS     r3,r3,r0
00003e  7023              STRB     r3,[r4,#0]
;;;75     	port1Readings[2] = port1Readings[2] << 1;
000040  7893              LDRB     r3,[r2,#2]  ; port1Readings
000042  005b              LSLS     r3,r3,#1
000044  7093              STRB     r3,[r2,#2]
;;;76     	if(res != 0)
000046  7823              LDRB     r3,[r4,#0]
000048  2b00              CMP      r3,#0
00004a  d002              BEQ      |L12.82|
;;;77     		port1Readings[2] = port1Readings[2] | 0x01;
00004c  7893              LDRB     r3,[r2,#2]  ; port1Readings
00004e  430b              ORRS     r3,r3,r1
000050  7093              STRB     r3,[r2,#2]
                  |L12.82|
;;;78     	
;;;79     	res = value & 0x08;
000052  2308              MOVS     r3,#8
000054  4003              ANDS     r3,r3,r0
000056  7023              STRB     r3,[r4,#0]
;;;80     	port1Readings[3] = port1Readings[3] << 1;
000058  78d3              LDRB     r3,[r2,#3]  ; port1Readings
00005a  005b              LSLS     r3,r3,#1
00005c  70d3              STRB     r3,[r2,#3]
;;;81     	if(res != 0)
00005e  7823              LDRB     r3,[r4,#0]
000060  2b00              CMP      r3,#0
000062  d002              BEQ      |L12.106|
;;;82     		port1Readings[3] = port1Readings[3] | 0x01;
000064  78d3              LDRB     r3,[r2,#3]  ; port1Readings
000066  430b              ORRS     r3,r3,r1
000068  70d3              STRB     r3,[r2,#3]
                  |L12.106|
;;;83     	
;;;84     	res = value & 0x10;
00006a  2310              MOVS     r3,#0x10
00006c  4003              ANDS     r3,r3,r0
00006e  7023              STRB     r3,[r4,#0]
;;;85     	port1Readings[4] = port1Readings[4] << 1;
000070  7913              LDRB     r3,[r2,#4]  ; port1Readings
000072  005b              LSLS     r3,r3,#1
000074  7113              STRB     r3,[r2,#4]
;;;86     	if(res != 0)
000076  7823              LDRB     r3,[r4,#0]
000078  2b00              CMP      r3,#0
00007a  d002              BEQ      |L12.130|
;;;87     		port1Readings[4] = port1Readings[4] | 0x01;
00007c  7913              LDRB     r3,[r2,#4]  ; port1Readings
00007e  430b              ORRS     r3,r3,r1
000080  7113              STRB     r3,[r2,#4]
                  |L12.130|
;;;88     		
;;;89     	res = value & 0x20;
000082  2320              MOVS     r3,#0x20
000084  4003              ANDS     r3,r3,r0
000086  7023              STRB     r3,[r4,#0]
;;;90     	port1Readings[5] = port1Readings[5] << 1;
000088  7953              LDRB     r3,[r2,#5]  ; port1Readings
00008a  005b              LSLS     r3,r3,#1
00008c  7153              STRB     r3,[r2,#5]
;;;91     	if(res != 0)
00008e  7823              LDRB     r3,[r4,#0]
000090  2b00              CMP      r3,#0
000092  d002              BEQ      |L12.154|
;;;92     		port1Readings[5] = port1Readings[5] | 0x01;
000094  7953              LDRB     r3,[r2,#5]  ; port1Readings
000096  430b              ORRS     r3,r3,r1
000098  7153              STRB     r3,[r2,#5]
                  |L12.154|
;;;93     	
;;;94     	res = value & 0x40;
00009a  2340              MOVS     r3,#0x40
00009c  4003              ANDS     r3,r3,r0
00009e  7023              STRB     r3,[r4,#0]
;;;95     	port1Readings[6] = port1Readings[6] << 1;
0000a0  7993              LDRB     r3,[r2,#6]  ; port1Readings
0000a2  005b              LSLS     r3,r3,#1
0000a4  7193              STRB     r3,[r2,#6]
;;;96     	if(res != 0)
0000a6  7823              LDRB     r3,[r4,#0]
0000a8  2b00              CMP      r3,#0
0000aa  d002              BEQ      |L12.178|
;;;97     		port1Readings[6] = port1Readings[6] | 0x01;
0000ac  7993              LDRB     r3,[r2,#6]  ; port1Readings
0000ae  430b              ORRS     r3,r3,r1
0000b0  7193              STRB     r3,[r2,#6]
                  |L12.178|
;;;98     	
;;;99     	res = value & 0x80;
0000b2  09c0              LSRS     r0,r0,#7
0000b4  01c0              LSLS     r0,r0,#7
0000b6  7020              STRB     r0,[r4,#0]
;;;100    	port1Readings[7] = port1Readings[7] << 1;
0000b8  79d0              LDRB     r0,[r2,#7]  ; port1Readings
0000ba  0040              LSLS     r0,r0,#1
0000bc  71d0              STRB     r0,[r2,#7]
;;;101    	if(res != 0)
0000be  7820              LDRB     r0,[r4,#0]
0000c0  2800              CMP      r0,#0
0000c2  d002              BEQ      |L12.202|
;;;102    		port1Readings[7] = port1Readings[7] | 0x01;
0000c4  79d0              LDRB     r0,[r2,#7]  ; port1Readings
0000c6  4308              ORRS     r0,r0,r1
0000c8  71d0              STRB     r0,[r2,#7]
                  |L12.202|
;;;103    }
0000ca  bd18              POP      {r3,r4,pc}
;;;104    
                          ENDP

                  |L12.204|
                          DCD      ||.data||+0x18

                          AREA ||i.setPort_2||, CODE, READONLY, ALIGN=2

                  setPort_2 PROC
;;;104    
;;;105    void setPort_2(char value)
000000  b518              PUSH     {r3,r4,lr}
;;;106    {
;;;107    	volatile char res = value & 0x01;
000002  07c1              LSLS     r1,r0,#31
000004  0fc9              LSRS     r1,r1,#31
000006  466b              MOV      r3,sp
000008  7019              STRB     r1,[r3,#0]
;;;108    	port2Readings[0] = port2Readings[0] << 1;
00000a  4a30              LDR      r2,|L13.204|
00000c  7811              LDRB     r1,[r2,#0]  ; port2Readings
00000e  0049              LSLS     r1,r1,#1
000010  7011              STRB     r1,[r2,#0]
;;;109    	if(res != 0)
000012  781b              LDRB     r3,[r3,#0]
;;;110    		port2Readings[0] = port2Readings[0] | 0x01;
000014  2101              MOVS     r1,#1
000016  2b00              CMP      r3,#0                 ;109
000018  d002              BEQ      |L13.32|
00001a  7813              LDRB     r3,[r2,#0]  ; port2Readings
00001c  430b              ORRS     r3,r3,r1
00001e  7013              STRB     r3,[r2,#0]
                  |L13.32|
;;;111    	
;;;112    	res = value & 0x02;
000020  2302              MOVS     r3,#2
000022  4003              ANDS     r3,r3,r0
000024  466c              MOV      r4,sp
000026  7023              STRB     r3,[r4,#0]
;;;113    	port2Readings[1] = port2Readings[1] << 1;
000028  7853              LDRB     r3,[r2,#1]  ; port2Readings
00002a  005b              LSLS     r3,r3,#1
00002c  7053              STRB     r3,[r2,#1]
;;;114    	if(res != 0)
00002e  7823              LDRB     r3,[r4,#0]
000030  2b00              CMP      r3,#0
000032  d002              BEQ      |L13.58|
;;;115    		port2Readings[1] = port2Readings[1] | 0x01;
000034  7853              LDRB     r3,[r2,#1]  ; port2Readings
000036  430b              ORRS     r3,r3,r1
000038  7053              STRB     r3,[r2,#1]
                  |L13.58|
;;;116    	
;;;117    	res = value & 0x04;
00003a  2304              MOVS     r3,#4
00003c  4003              ANDS     r3,r3,r0
00003e  7023              STRB     r3,[r4,#0]
;;;118    	port2Readings[2] = port2Readings[2] << 1;
000040  7893              LDRB     r3,[r2,#2]  ; port2Readings
000042  005b              LSLS     r3,r3,#1
000044  7093              STRB     r3,[r2,#2]
;;;119    	if(res != 0)
000046  7823              LDRB     r3,[r4,#0]
000048  2b00              CMP      r3,#0
00004a  d002              BEQ      |L13.82|
;;;120    		port2Readings[2] = port2Readings[2] | 0x01;
00004c  7893              LDRB     r3,[r2,#2]  ; port2Readings
00004e  430b              ORRS     r3,r3,r1
000050  7093              STRB     r3,[r2,#2]
                  |L13.82|
;;;121    	
;;;122    	res = value & 0x08;
000052  2308              MOVS     r3,#8
000054  4003              ANDS     r3,r3,r0
000056  7023              STRB     r3,[r4,#0]
;;;123    	port2Readings[3] = port2Readings[3] << 1;
000058  78d3              LDRB     r3,[r2,#3]  ; port2Readings
00005a  005b              LSLS     r3,r3,#1
00005c  70d3              STRB     r3,[r2,#3]
;;;124    	if(res != 0)
00005e  7823              LDRB     r3,[r4,#0]
000060  2b00              CMP      r3,#0
000062  d002              BEQ      |L13.106|
;;;125    		port2Readings[3] = port2Readings[3] | 0x01;
000064  78d3              LDRB     r3,[r2,#3]  ; port2Readings
000066  430b              ORRS     r3,r3,r1
000068  70d3              STRB     r3,[r2,#3]
                  |L13.106|
;;;126    	
;;;127    	res = value & 0x10;
00006a  2310              MOVS     r3,#0x10
00006c  4003              ANDS     r3,r3,r0
00006e  7023              STRB     r3,[r4,#0]
;;;128    	port2Readings[4] = port2Readings[4] << 1;
000070  7913              LDRB     r3,[r2,#4]  ; port2Readings
000072  005b              LSLS     r3,r3,#1
000074  7113              STRB     r3,[r2,#4]
;;;129    	if(res != 0)
000076  7823              LDRB     r3,[r4,#0]
000078  2b00              CMP      r3,#0
00007a  d002              BEQ      |L13.130|
;;;130    		port2Readings[4] = port2Readings[4] | 0x01;
00007c  7913              LDRB     r3,[r2,#4]  ; port2Readings
00007e  430b              ORRS     r3,r3,r1
000080  7113              STRB     r3,[r2,#4]
                  |L13.130|
;;;131    		
;;;132    	res = value & 0x20;
000082  2320              MOVS     r3,#0x20
000084  4003              ANDS     r3,r3,r0
000086  7023              STRB     r3,[r4,#0]
;;;133    	port2Readings[5] = port2Readings[5] << 1;
000088  7953              LDRB     r3,[r2,#5]  ; port2Readings
00008a  005b              LSLS     r3,r3,#1
00008c  7153              STRB     r3,[r2,#5]
;;;134    	if(res != 0)
00008e  7823              LDRB     r3,[r4,#0]
000090  2b00              CMP      r3,#0
000092  d002              BEQ      |L13.154|
;;;135    		port2Readings[5] = port2Readings[5] | 0x01;
000094  7953              LDRB     r3,[r2,#5]  ; port2Readings
000096  430b              ORRS     r3,r3,r1
000098  7153              STRB     r3,[r2,#5]
                  |L13.154|
;;;136    	
;;;137    	res = value & 0x40;
00009a  2340              MOVS     r3,#0x40
00009c  4003              ANDS     r3,r3,r0
00009e  7023              STRB     r3,[r4,#0]
;;;138    	port2Readings[6] = port2Readings[6] << 1;
0000a0  7993              LDRB     r3,[r2,#6]  ; port2Readings
0000a2  005b              LSLS     r3,r3,#1
0000a4  7193              STRB     r3,[r2,#6]
;;;139    	if(res != 0)
0000a6  7823              LDRB     r3,[r4,#0]
0000a8  2b00              CMP      r3,#0
0000aa  d002              BEQ      |L13.178|
;;;140    		port2Readings[6] = port2Readings[6] | 0x01;
0000ac  7993              LDRB     r3,[r2,#6]  ; port2Readings
0000ae  430b              ORRS     r3,r3,r1
0000b0  7193              STRB     r3,[r2,#6]
                  |L13.178|
;;;141    	
;;;142    	res = value & 0x80;
0000b2  09c0              LSRS     r0,r0,#7
0000b4  01c0              LSLS     r0,r0,#7
0000b6  7020              STRB     r0,[r4,#0]
;;;143    	port2Readings[7] = port2Readings[7] << 1;
0000b8  79d0              LDRB     r0,[r2,#7]  ; port2Readings
0000ba  0040              LSLS     r0,r0,#1
0000bc  71d0              STRB     r0,[r2,#7]
;;;144    	if(res != 0)
0000be  7820              LDRB     r0,[r4,#0]
0000c0  2800              CMP      r0,#0
0000c2  d002              BEQ      |L13.202|
;;;145    		port2Readings[7] = port2Readings[7] | 0x01;
0000c4  79d0              LDRB     r0,[r2,#7]  ; port2Readings
0000c6  4308              ORRS     r0,r0,r1
0000c8  71d0              STRB     r0,[r2,#7]
                  |L13.202|
;;;146    }
0000ca  bd18              POP      {r3,r4,pc}
;;;147    
                          ENDP

                  |L13.204|
                          DCD      ||.data||+0x20

                          AREA ||i.setPort_3||, CODE, READONLY, ALIGN=2

                  setPort_3 PROC
;;;147    
;;;148    void setPort_3(char value)
000000  b518              PUSH     {r3,r4,lr}
;;;149    {
;;;150    	volatile char res = value & 0x01;
000002  07c1              LSLS     r1,r0,#31
000004  0fc9              LSRS     r1,r1,#31
000006  466b              MOV      r3,sp
000008  7019              STRB     r1,[r3,#0]
;;;151    	port3Readings[0] = port3Readings[0] << 1;
00000a  4a30              LDR      r2,|L14.204|
00000c  7811              LDRB     r1,[r2,#0]  ; port3Readings
00000e  0049              LSLS     r1,r1,#1
000010  7011              STRB     r1,[r2,#0]
;;;152    	if(res != 0)
000012  781b              LDRB     r3,[r3,#0]
;;;153    		port3Readings[0] = port3Readings[0] | 0x01;
000014  2101              MOVS     r1,#1
000016  2b00              CMP      r3,#0                 ;152
000018  d002              BEQ      |L14.32|
00001a  7813              LDRB     r3,[r2,#0]  ; port3Readings
00001c  430b              ORRS     r3,r3,r1
00001e  7013              STRB     r3,[r2,#0]
                  |L14.32|
;;;154    	
;;;155    	res = value & 0x02;
000020  2302              MOVS     r3,#2
000022  4003              ANDS     r3,r3,r0
000024  466c              MOV      r4,sp
000026  7023              STRB     r3,[r4,#0]
;;;156    	port3Readings[1] = port3Readings[1] << 1;
000028  7853              LDRB     r3,[r2,#1]  ; port3Readings
00002a  005b              LSLS     r3,r3,#1
00002c  7053              STRB     r3,[r2,#1]
;;;157    	if(res != 0)
00002e  7823              LDRB     r3,[r4,#0]
000030  2b00              CMP      r3,#0
000032  d002              BEQ      |L14.58|
;;;158    		port3Readings[1] = port3Readings[1] | 0x01;
000034  7853              LDRB     r3,[r2,#1]  ; port3Readings
000036  430b              ORRS     r3,r3,r1
000038  7053              STRB     r3,[r2,#1]
                  |L14.58|
;;;159    	
;;;160    	res = value & 0x04;
00003a  2304              MOVS     r3,#4
00003c  4003              ANDS     r3,r3,r0
00003e  7023              STRB     r3,[r4,#0]
;;;161    	port3Readings[2] = port3Readings[2] << 1;
000040  7893              LDRB     r3,[r2,#2]  ; port3Readings
000042  005b              LSLS     r3,r3,#1
000044  7093              STRB     r3,[r2,#2]
;;;162    	if(res != 0)
000046  7823              LDRB     r3,[r4,#0]
000048  2b00              CMP      r3,#0
00004a  d002              BEQ      |L14.82|
;;;163    		port3Readings[2] = port3Readings[2] | 0x01;
00004c  7893              LDRB     r3,[r2,#2]  ; port3Readings
00004e  430b              ORRS     r3,r3,r1
000050  7093              STRB     r3,[r2,#2]
                  |L14.82|
;;;164    	
;;;165    	res = value & 0x08;
000052  2308              MOVS     r3,#8
000054  4003              ANDS     r3,r3,r0
000056  7023              STRB     r3,[r4,#0]
;;;166    	port3Readings[3] = port3Readings[3] << 1;
000058  78d3              LDRB     r3,[r2,#3]  ; port3Readings
00005a  005b              LSLS     r3,r3,#1
00005c  70d3              STRB     r3,[r2,#3]
;;;167    	if(res != 0)
00005e  7823              LDRB     r3,[r4,#0]
000060  2b00              CMP      r3,#0
000062  d002              BEQ      |L14.106|
;;;168    		port3Readings[3] = port3Readings[3] | 0x01;
000064  78d3              LDRB     r3,[r2,#3]  ; port3Readings
000066  430b              ORRS     r3,r3,r1
000068  70d3              STRB     r3,[r2,#3]
                  |L14.106|
;;;169    	
;;;170    	res = value & 0x10;
00006a  2310              MOVS     r3,#0x10
00006c  4003              ANDS     r3,r3,r0
00006e  7023              STRB     r3,[r4,#0]
;;;171    	port3Readings[4] = port3Readings[4] << 1;
000070  7913              LDRB     r3,[r2,#4]  ; port3Readings
000072  005b              LSLS     r3,r3,#1
000074  7113              STRB     r3,[r2,#4]
;;;172    	if(res != 0)
000076  7823              LDRB     r3,[r4,#0]
000078  2b00              CMP      r3,#0
00007a  d002              BEQ      |L14.130|
;;;173    		port3Readings[4] = port3Readings[4] | 0x01;
00007c  7913              LDRB     r3,[r2,#4]  ; port3Readings
00007e  430b              ORRS     r3,r3,r1
000080  7113              STRB     r3,[r2,#4]
                  |L14.130|
;;;174    		
;;;175    	res = value & 0x20;
000082  2320              MOVS     r3,#0x20
000084  4003              ANDS     r3,r3,r0
000086  7023              STRB     r3,[r4,#0]
;;;176    	port3Readings[5] = port3Readings[5] << 1;
000088  7953              LDRB     r3,[r2,#5]  ; port3Readings
00008a  005b              LSLS     r3,r3,#1
00008c  7153              STRB     r3,[r2,#5]
;;;177    	if(res != 0)
00008e  7823              LDRB     r3,[r4,#0]
000090  2b00              CMP      r3,#0
000092  d002              BEQ      |L14.154|
;;;178    		port3Readings[5] = port3Readings[5] | 0x01;
000094  7953              LDRB     r3,[r2,#5]  ; port3Readings
000096  430b              ORRS     r3,r3,r1
000098  7153              STRB     r3,[r2,#5]
                  |L14.154|
;;;179    	
;;;180    	res = value & 0x40;
00009a  2340              MOVS     r3,#0x40
00009c  4003              ANDS     r3,r3,r0
00009e  7023              STRB     r3,[r4,#0]
;;;181    	port3Readings[6] = port3Readings[6] << 1;
0000a0  7993              LDRB     r3,[r2,#6]  ; port3Readings
0000a2  005b              LSLS     r3,r3,#1
0000a4  7193              STRB     r3,[r2,#6]
;;;182    	if(res != 0)
0000a6  7823              LDRB     r3,[r4,#0]
0000a8  2b00              CMP      r3,#0
0000aa  d002              BEQ      |L14.178|
;;;183    		port3Readings[6] = port3Readings[6] | 0x01;
0000ac  7993              LDRB     r3,[r2,#6]  ; port3Readings
0000ae  430b              ORRS     r3,r3,r1
0000b0  7193              STRB     r3,[r2,#6]
                  |L14.178|
;;;184    	
;;;185    	res = value & 0x80;
0000b2  09c0              LSRS     r0,r0,#7
0000b4  01c0              LSLS     r0,r0,#7
0000b6  7020              STRB     r0,[r4,#0]
;;;186    	port3Readings[7] = port3Readings[7] << 1;
0000b8  79d0              LDRB     r0,[r2,#7]  ; port3Readings
0000ba  0040              LSLS     r0,r0,#1
0000bc  71d0              STRB     r0,[r2,#7]
;;;187    	if(res != 0)
0000be  7820              LDRB     r0,[r4,#0]
0000c0  2800              CMP      r0,#0
0000c2  d002              BEQ      |L14.202|
;;;188    		port3Readings[7] = port3Readings[7] | 0x01;
0000c4  79d0              LDRB     r0,[r2,#7]  ; port3Readings
0000c6  4308              ORRS     r0,r0,r1
0000c8  71d0              STRB     r0,[r2,#7]
                  |L14.202|
;;;189    }
0000ca  bd18              POP      {r3,r4,pc}
;;;190    
                          ENDP

                  |L14.204|
                          DCD      ||.data||+0x28

                          AREA ||i.setPort_4||, CODE, READONLY, ALIGN=2

                  setPort_4 PROC
;;;190    
;;;191    void setPort_4(char value)
000000  b518              PUSH     {r3,r4,lr}
;;;192    {
;;;193    	volatile char res = value & 0x01;
000002  07c1              LSLS     r1,r0,#31
000004  0fc9              LSRS     r1,r1,#31
000006  466b              MOV      r3,sp
000008  7019              STRB     r1,[r3,#0]
;;;194    	port4Readings[0] = port4Readings[0] << 1;
00000a  4a30              LDR      r2,|L15.204|
00000c  7811              LDRB     r1,[r2,#0]  ; port4Readings
00000e  0049              LSLS     r1,r1,#1
000010  7011              STRB     r1,[r2,#0]
;;;195    	if(res != 0)
000012  781b              LDRB     r3,[r3,#0]
;;;196    		port4Readings[0] = port4Readings[0] | 0x01;
000014  2101              MOVS     r1,#1
000016  2b00              CMP      r3,#0                 ;195
000018  d002              BEQ      |L15.32|
00001a  7813              LDRB     r3,[r2,#0]  ; port4Readings
00001c  430b              ORRS     r3,r3,r1
00001e  7013              STRB     r3,[r2,#0]
                  |L15.32|
;;;197    	
;;;198    	res = value & 0x02;
000020  2302              MOVS     r3,#2
000022  4003              ANDS     r3,r3,r0
000024  466c              MOV      r4,sp
000026  7023              STRB     r3,[r4,#0]
;;;199    	port4Readings[1] = port4Readings[1] << 1;
000028  7853              LDRB     r3,[r2,#1]  ; port4Readings
00002a  005b              LSLS     r3,r3,#1
00002c  7053              STRB     r3,[r2,#1]
;;;200    	if(res != 0)
00002e  7823              LDRB     r3,[r4,#0]
000030  2b00              CMP      r3,#0
000032  d002              BEQ      |L15.58|
;;;201    		port4Readings[1] = port4Readings[1] | 0x01;
000034  7853              LDRB     r3,[r2,#1]  ; port4Readings
000036  430b              ORRS     r3,r3,r1
000038  7053              STRB     r3,[r2,#1]
                  |L15.58|
;;;202    	
;;;203    	res = value & 0x04;
00003a  2304              MOVS     r3,#4
00003c  4003              ANDS     r3,r3,r0
00003e  7023              STRB     r3,[r4,#0]
;;;204    	port4Readings[2] = port4Readings[2] << 1;
000040  7893              LDRB     r3,[r2,#2]  ; port4Readings
000042  005b              LSLS     r3,r3,#1
000044  7093              STRB     r3,[r2,#2]
;;;205    	if(res != 0)
000046  7823              LDRB     r3,[r4,#0]
000048  2b00              CMP      r3,#0
00004a  d002              BEQ      |L15.82|
;;;206    		port4Readings[2] = port4Readings[2] | 0x01;
00004c  7893              LDRB     r3,[r2,#2]  ; port4Readings
00004e  430b              ORRS     r3,r3,r1
000050  7093              STRB     r3,[r2,#2]
                  |L15.82|
;;;207    	
;;;208    	res = value & 0x08;
000052  2308              MOVS     r3,#8
000054  4003              ANDS     r3,r3,r0
000056  7023              STRB     r3,[r4,#0]
;;;209    	port4Readings[3] = port4Readings[3] << 1;
000058  78d3              LDRB     r3,[r2,#3]  ; port4Readings
00005a  005b              LSLS     r3,r3,#1
00005c  70d3              STRB     r3,[r2,#3]
;;;210    	if(res != 0)
00005e  7823              LDRB     r3,[r4,#0]
000060  2b00              CMP      r3,#0
000062  d002              BEQ      |L15.106|
;;;211    		port4Readings[3] = port4Readings[3] | 0x01;
000064  78d3              LDRB     r3,[r2,#3]  ; port4Readings
000066  430b              ORRS     r3,r3,r1
000068  70d3              STRB     r3,[r2,#3]
                  |L15.106|
;;;212    	
;;;213    	res = value & 0x10;
00006a  2310              MOVS     r3,#0x10
00006c  4003              ANDS     r3,r3,r0
00006e  7023              STRB     r3,[r4,#0]
;;;214    	port4Readings[4] = port4Readings[4] << 1;
000070  7913              LDRB     r3,[r2,#4]  ; port4Readings
000072  005b              LSLS     r3,r3,#1
000074  7113              STRB     r3,[r2,#4]
;;;215    	if(res != 0)
000076  7823              LDRB     r3,[r4,#0]
000078  2b00              CMP      r3,#0
00007a  d002              BEQ      |L15.130|
;;;216    		port4Readings[4] = port4Readings[4] | 0x01;
00007c  7913              LDRB     r3,[r2,#4]  ; port4Readings
00007e  430b              ORRS     r3,r3,r1
000080  7113              STRB     r3,[r2,#4]
                  |L15.130|
;;;217    		
;;;218    	res = value & 0x20;
000082  2320              MOVS     r3,#0x20
000084  4003              ANDS     r3,r3,r0
000086  7023              STRB     r3,[r4,#0]
;;;219    	port4Readings[5] = port4Readings[5] << 1;
000088  7953              LDRB     r3,[r2,#5]  ; port4Readings
00008a  005b              LSLS     r3,r3,#1
00008c  7153              STRB     r3,[r2,#5]
;;;220    	if(res != 0)
00008e  7823              LDRB     r3,[r4,#0]
000090  2b00              CMP      r3,#0
000092  d002              BEQ      |L15.154|
;;;221    		port4Readings[5] = port4Readings[5] | 0x01;
000094  7953              LDRB     r3,[r2,#5]  ; port4Readings
000096  430b              ORRS     r3,r3,r1
000098  7153              STRB     r3,[r2,#5]
                  |L15.154|
;;;222    	
;;;223    	res = value & 0x40;
00009a  2340              MOVS     r3,#0x40
00009c  4003              ANDS     r3,r3,r0
00009e  7023              STRB     r3,[r4,#0]
;;;224    	port4Readings[6] = port4Readings[6] << 1;
0000a0  7993              LDRB     r3,[r2,#6]  ; port4Readings
0000a2  005b              LSLS     r3,r3,#1
0000a4  7193              STRB     r3,[r2,#6]
;;;225    	if(res != 0)
0000a6  7823              LDRB     r3,[r4,#0]
0000a8  2b00              CMP      r3,#0
0000aa  d002              BEQ      |L15.178|
;;;226    		port4Readings[6] = port4Readings[6] | 0x01;
0000ac  7993              LDRB     r3,[r2,#6]  ; port4Readings
0000ae  430b              ORRS     r3,r3,r1
0000b0  7193              STRB     r3,[r2,#6]
                  |L15.178|
;;;227    	
;;;228    	res = value & 0x80;
0000b2  09c0              LSRS     r0,r0,#7
0000b4  01c0              LSLS     r0,r0,#7
0000b6  7020              STRB     r0,[r4,#0]
;;;229    	port4Readings[7] = port4Readings[7] << 1;
0000b8  79d0              LDRB     r0,[r2,#7]  ; port4Readings
0000ba  0040              LSLS     r0,r0,#1
0000bc  71d0              STRB     r0,[r2,#7]
;;;230    	if(res != 0)
0000be  7820              LDRB     r0,[r4,#0]
0000c0  2800              CMP      r0,#0
0000c2  d002              BEQ      |L15.202|
;;;231    		port4Readings[7] = port4Readings[7] | 0x01;
0000c4  79d0              LDRB     r0,[r2,#7]  ; port4Readings
0000c6  4308              ORRS     r0,r0,r1
0000c8  71d0              STRB     r0,[r2,#7]
                  |L15.202|
;;;232    }
0000ca  bd18              POP      {r3,r4,pc}
;;;233    
                          ENDP

                  |L15.204|
                          DCD      ||.data||+0x30

                          AREA ||.bss||, DATA, NOINIT, ALIGN=0

                  responce
                          %        107

                          AREA ||.data||, DATA, ALIGN=2

                  totalRegsToRead
000000  06                DCB      0x06
                  toatalDataBytesToReceived
000001  0c                DCB      0x0c
                  responceSize
000002  0f                DCB      0x0f
                  boardID
000003  00                DCB      0x00
                  First_Reg_L
000004  00                DCB      0x00
                  First_Reg_H
000005  00                DCB      0x00
                  Second_Reg_L
000006  00                DCB      0x00
                  Second_Reg_H
000007  00                DCB      0x00
                  arrayIndex
                          DCD      0x00000000
                  dataReceiving
                          DCD      0x00000000
                  seconds
                          DCD      0x00000000
                  ticks
                          DCD      0x00000000
                  port1Readings
000018  00000000          DCB      0x00,0x00,0x00,0x00
00001c  00000000          DCB      0x00,0x00,0x00,0x00
                  port2Readings
000020  00000000          DCB      0x00,0x00,0x00,0x00
000024  00000000          DCB      0x00,0x00,0x00,0x00
                  port3Readings
000028  00000000          DCB      0x00,0x00,0x00,0x00
00002c  00000000          DCB      0x00,0x00,0x00,0x00
                  port4Readings
000030  00000000          DCB      0x00,0x00,0x00,0x00
000034  00000000          DCB      0x00,0x00,0x00,0x00
                  port1States
000038  00000000          DCB      0x00,0x00,0x00,0x00
00003c  00000000          DCB      0x00,0x00,0x00,0x00
                  port2States
000040  00000000          DCB      0x00,0x00,0x00,0x00
000044  00000000          DCB      0x00,0x00,0x00,0x00
                  port3States
000048  00000000          DCB      0x00,0x00,0x00,0x00
00004c  00000000          DCB      0x00,0x00,0x00,0x00
                  port4States
000050  00000000          DCB      0x00,0x00,0x00,0x00
000054  00000000          DCB      0x00,0x00,0x00,0x00

                          AREA ||area_number.20||, DATA, ALIGN=2

                          EXPORTAS ||area_number.20||, ||.data||
                  i
                          DCD      0x00000000

;*** Start embedded assembler ***

#line 1 "..\\control_logic.c"
	AREA ||.rev16_text||, CODE
	THUMB
	EXPORT |__asm___15_control_logic_c_2b29dfcf____REV16|
#line 388 "..\\..\\..\\..\\Library\\CMSIS\\Include\\cmsis_armcc.h"
|__asm___15_control_logic_c_2b29dfcf____REV16| PROC
#line 389

 rev16 r0, r0
 bx lr
	ENDP
	AREA ||.revsh_text||, CODE
	THUMB
	EXPORT |__asm___15_control_logic_c_2b29dfcf____REVSH|
#line 402
|__asm___15_control_logic_c_2b29dfcf____REVSH| PROC
#line 403

 revsh r0, r0
 bx lr
	ENDP

;*** End   embedded assembler ***
