; generated by Component: ARM Compiler 5.06 update 7 (build 960) Tool: ArmCC [4d365d]
; commandline ArmCC [--list --split_sections --debug -c --asm --interleave -o.\obj\main.o --asm_dir=.\lst\ --list_dir=.\lst\ --depend=.\obj\main.d --cpu=Cortex-M0 --apcs=interwork --diag_suppress=9931 -I..\..\..\Library\CMSIS\Include -I..\..\..\Library\Device\Nuvoton\NUC029xAN\Include -I..\..\..\Library\StdDriver\inc -IC:\Keil_v5\ARM\RV31\INC -IC:\Keil_v5\ARM\CMSIS\Include -D__MICROLIB -D__UVISION_VERSION=535 --omf_browse=.\obj\main.crf ..\main.c]
                          THUMB

                          AREA ||i.GetBoardID||, CODE, READONLY, ALIGN=2

                  GetBoardID PROC
;;;1152   	
;;;1153   void GetBoardID()
000000  4912              LDR      r1,|L1.76|
;;;1154   {
;;;1155   	if(P00 == 0)
000002  680a              LDR      r2,[r1,#0]
;;;1156   		boardID = boardID | 0x01;
000004  4812              LDR      r0,|L1.80|
000006  2a00              CMP      r2,#0                 ;1155
000008  d103              BNE      |L1.18|
00000a  78c2              LDRB     r2,[r0,#3]  ; boardID
00000c  2301              MOVS     r3,#1
00000e  431a              ORRS     r2,r2,r3
000010  70c2              STRB     r2,[r0,#3]
                  |L1.18|
;;;1157   	if(P01 == 0)
000012  684a              LDR      r2,[r1,#4]
000014  2a00              CMP      r2,#0
000016  d103              BNE      |L1.32|
;;;1158   		boardID = boardID | 0x02;
000018  78c2              LDRB     r2,[r0,#3]  ; boardID
00001a  2302              MOVS     r3,#2
00001c  431a              ORRS     r2,r2,r3
00001e  70c2              STRB     r2,[r0,#3]
                  |L1.32|
;;;1159   	if(P04 == 0)
000020  690a              LDR      r2,[r1,#0x10]
000022  2a00              CMP      r2,#0
000024  d103              BNE      |L1.46|
;;;1160   		boardID = boardID | 0x04;
000026  78c2              LDRB     r2,[r0,#3]  ; boardID
000028  2304              MOVS     r3,#4
00002a  431a              ORRS     r2,r2,r3
00002c  70c2              STRB     r2,[r0,#3]
                  |L1.46|
;;;1161   	if(P05 == 0)
00002e  694a              LDR      r2,[r1,#0x14]
000030  2a00              CMP      r2,#0
000032  d103              BNE      |L1.60|
;;;1162   		boardID = boardID | 0x08;
000034  78c2              LDRB     r2,[r0,#3]  ; boardID
000036  2308              MOVS     r3,#8
000038  431a              ORRS     r2,r2,r3
00003a  70c2              STRB     r2,[r0,#3]
                  |L1.60|
;;;1163   	if(P06 == 0)
00003c  6989              LDR      r1,[r1,#0x18]
00003e  2900              CMP      r1,#0
000040  d103              BNE      |L1.74|
;;;1164   		boardID = boardID | 0x10;
000042  78c1              LDRB     r1,[r0,#3]  ; boardID
000044  2210              MOVS     r2,#0x10
000046  4311              ORRS     r1,r1,r2
000048  70c1              STRB     r1,[r0,#3]
                  |L1.74|
;;;1165   }
00004a  4770              BX       lr
;;;1166   
                          ENDP

                  |L1.76|
                          DCD      0x50004200
                  |L1.80|
                          DCD      ||.data||

                          AREA ||i.SYS_Init||, CODE, READONLY, ALIGN=2

                  SYS_Init PROC
;;;993    
;;;994    void SYS_Init(void)
000000  b510              PUSH     {r4,lr}
;;;995    {
;;;996        /*---------------------------------------------------------------------------------------------------------*/
;;;997        /* Init System Clock                                                                                       */
;;;998        /*---------------------------------------------------------------------------------------------------------*/
;;;999        /* Enable IRC22M clock */
;;;1000       CLK->PWRCON |= CLK_PWRCON_IRC22M_EN_Msk;
000002  4c16              LDR      r4,|L2.92|
000004  6820              LDR      r0,[r4,#0]
000006  2104              MOVS     r1,#4
000008  4308              ORRS     r0,r0,r1
00000a  6020              STR      r0,[r4,#0]
;;;1001   
;;;1002       /* Waiting for IRC22M clock ready */
;;;1003       CLK_WaitClockReady(CLK_CLKSTATUS_IRC22M_STB_Msk);
00000c  2010              MOVS     r0,#0x10
00000e  f7fffffe          BL       CLK_WaitClockReady
;;;1004   
;;;1005       /* Switch HCLK clock source to HIRC */
;;;1006       CLK->CLKSEL0 = CLK_CLKSEL0_HCLK_S_HIRC;
000012  2007              MOVS     r0,#7
000014  6120              STR      r0,[r4,#0x10]
;;;1007   
;;;1008       /* Set PLL to Power-down mode and PLL_STB bit in CLKSTATUS register will be cleared by hardware.*/
;;;1009       CLK->PLLCON |= CLK_PLLCON_PD_Msk;
000016  6a20              LDR      r0,[r4,#0x20]
000018  01e1              LSLS     r1,r4,#7
00001a  4308              ORRS     r0,r0,r1
00001c  6220              STR      r0,[r4,#0x20]
;;;1010   
;;;1011       /* Enable PLL and Set PLL frequency */
;;;1012       CLK->PLLCON = PLLCON_SETTING;
00001e  4810              LDR      r0,|L2.96|
000020  6220              STR      r0,[r4,#0x20]
;;;1013   
;;;1014       /* Waiting for clock ready */
;;;1015       CLK_WaitClockReady(CLK_CLKSTATUS_PLL_STB_Msk | CLK_CLKSTATUS_XTL12M_STB_Msk | CLK_CLKSTATUS_IRC10K_STB_Msk);
000022  200d              MOVS     r0,#0xd
000024  f7fffffe          BL       CLK_WaitClockReady
;;;1016   
;;;1017       /* Switch HCLK clock source to PLL, STCLK to HCLK/2 */
;;;1018       CLK->CLKSEL0 = CLK_CLKSEL0_STCLK_S_HCLK_DIV2 | CLK_CLKSEL0_HCLK_S_PLL;
000028  201a              MOVS     r0,#0x1a
00002a  6120              STR      r0,[r4,#0x10]
;;;1019   
;;;1020       /* Enable peripheral clock */
;;;1021       CLK->APBCLK = CLK_APBCLK_UART0_EN_Msk | CLK_APBCLK_TMR0_EN_Msk;
00002c  480d              LDR      r0,|L2.100|
00002e  60a0              STR      r0,[r4,#8]
;;;1022   
;;;1023       /* Peripheral clock source */
;;;1024       CLK->CLKSEL1 = CLK_CLKSEL1_UART_S_PLL | CLK_CLKSEL1_TMR0_S_HIRC;
000030  480d              LDR      r0,|L2.104|
000032  6160              STR      r0,[r4,#0x14]
;;;1025   
;;;1026       /* Update System Core Clock */
;;;1027       /* User can use SystemCoreClockUpdate() to calculate PllClock, SystemCoreClock and CycylesPerUs automatically. */
;;;1028       SystemCoreClockUpdate();
000034  f7fffffe          BL       SystemCoreClockUpdate
;;;1029   
;;;1030       /*---------------------------------------------------------------------------------------------------------*/
;;;1031       /* Init I/O Multi-function                                                                                 */
;;;1032       /*---------------------------------------------------------------------------------------------------------*/
;;;1033       /* Set P3 multi-function pins for UART0 RXD, TXD */
;;;1034       SYS->P0_MFP &= ~(SYS_MFP_P03_Msk | SYS_MFP_P02_Msk);
000038  2005              MOVS     r0,#5
00003a  0700              LSLS     r0,r0,#28
00003c  6b01              LDR      r1,[r0,#0x30]
00003e  4a0b              LDR      r2,|L2.108|
000040  4011              ANDS     r1,r1,r2
000042  6301              STR      r1,[r0,#0x30]
;;;1035       SYS->P0_MFP |= (SYS_MFP_P03_RXD0 | SYS_MFP_P02_TXD0);
000044  6b01              LDR      r1,[r0,#0x30]
000046  43d2              MVNS     r2,r2
000048  4311              ORRS     r1,r1,r2
00004a  6301              STR      r1,[r0,#0x30]
;;;1036   		
;;;1037   		SYS->P4_MFP &= ~(SYS_MFP_P46_Msk | SYS_MFP_P47_Msk);
00004c  4808              LDR      r0,|L2.112|
00004e  6801              LDR      r1,[r0,#0]
000050  4a08              LDR      r2,|L2.116|
000052  4011              ANDS     r1,r1,r2
000054  6001              STR      r1,[r0,#0]
;;;1038       SYS->P4_MFP |= (SYS_MFP_P46_GPIO | SYS_MFP_P47_GPIO);
000056  6801              LDR      r1,[r0,#0]
000058  6001              STR      r1,[r0,#0]
;;;1039   }
00005a  bd10              POP      {r4,pc}
;;;1040   
                          ENDP

                  |L2.92|
                          DCD      0x50000200
                  |L2.96|
                          DCD      0x00085639
                  |L2.100|
                          DCD      0x00010004
                  |L2.104|
                          DCD      0x01000700
                  |L2.108|
                          DCD      0xfffff3f3
                  |L2.112|
                          DCD      0x50000040
                  |L2.116|
                          DCD      0xffff3f3f

                          AREA ||i.TMR0_IRQHandler||, CODE, READONLY, ALIGN=2

                          REQUIRE _printf_percent
                          REQUIRE _printf_c
                          REQUIRE _printf_str
                  TMR0_IRQHandler PROC
;;;950    
;;;951    void TMR0_IRQHandler(void)
000000  b5f8              PUSH     {r3-r7,lr}
000002  4821              LDR      r0,|L3.136|
000004  6881              LDR      r1,[r0,#8]
000006  07c9              LSLS     r1,r1,#31
000008  0fc9              LSRS     r1,r1,#31
;;;952    	{
00000a  d01e              BEQ      |L3.74|
00000c  2701              MOVS     r7,#1
00000e  6087              STR      r7,[r0,#8]
;;;953    			if(TIMER_GetIntFlag(TIMER0) == 1)
;;;954    				{
;;;955    						TIMER_ClearIntFlag(TIMER0);		
;;;956    						ticks = ticks + 1;
000010  4c1e              LDR      r4,|L3.140|
000012  6a20              LDR      r0,[r4,#0x20]  ; ticks
000014  1c40              ADDS     r0,r0,#1
000016  6220              STR      r0,[r4,#0x20]  ; ticks
;;;957    						if(ticks == 2)
000018  6a20              LDR      r0,[r4,#0x20]  ; ticks
00001a  2500              MOVS     r5,#0
00001c  2802              CMP      r0,#2
00001e  d108              BNE      |L3.50|
;;;958    						{
;;;959    							changePort1();
000020  f7fffffe          BL       changePort1
;;;960    							changePort2();
000024  f7fffffe          BL       changePort2
;;;961    							changePort3();
000028  f7fffffe          BL       changePort3
;;;962    							changePort4();
00002c  f7fffffe          BL       changePort4
;;;963    							ticks = 0;
000030  6225              STR      r5,[r4,#0x20]  ; ticks
                  |L3.50|
;;;964    						}					
;;;965    					
;;;966    						if(dataReceiving == 0)
000032  69a0              LDR      r0,[r4,#0x18]  ; dataReceiving
000034  2800              CMP      r0,#0
000036  d009              BEQ      |L3.76|
;;;967    							{
;;;968    								if(boardID == 1)
;;;969    									{
;;;970    										P07 = 1;
;;;971    										delay(100000);
;;;972    										
;;;973    										for(i = 0; i < 12; i++)
;;;974    											printf("%c", masterCommand[i]);
;;;975    										
;;;976    										arrayIndex = 0;
;;;977    										delay(100000);
;;;978    										P07 = 0;
;;;979    									}
;;;980    							}	
;;;981    						else
;;;982    							{
;;;983    								seconds = seconds + 1;
000038  69e0              LDR      r0,[r4,#0x1c]  ; seconds
00003a  1c40              ADDS     r0,r0,#1
00003c  61e0              STR      r0,[r4,#0x1c]  ; seconds
;;;984    								if(seconds > 4)
00003e  69e0              LDR      r0,[r4,#0x1c]  ; seconds
000040  2804              CMP      r0,#4
000042  d902              BLS      |L3.74|
;;;985    									{
;;;986    										seconds = 0;
000044  61e5              STR      r5,[r4,#0x1c]  ; seconds
;;;987    										dataReceiving = 0;
000046  61a5              STR      r5,[r4,#0x18]  ; dataReceiving
;;;988    										arrayIndex = 0;
000048  6165              STR      r5,[r4,#0x14]  ; arrayIndex
                  |L3.74|
;;;989    									}
;;;990    							}	
;;;991    				}
;;;992    	}
00004a  bdf8              POP      {r3-r7,pc}
                  |L3.76|
00004c  78e0              LDRB     r0,[r4,#3]            ;968  ; boardID
00004e  2801              CMP      r0,#1                 ;968
000050  d1fb              BNE      |L3.74|
000052  4e0f              LDR      r6,|L3.144|
000054  61f7              STR      r7,[r6,#0x1c]         ;970
000056  480f              LDR      r0,|L3.148|
000058  f7fffffe          BL       delay
00005c  6265              STR      r5,[r4,#0x24]         ;973  ; i
00005e  4f0b              LDR      r7,|L3.140|
000060  3768              ADDS     r7,r7,#0x68           ;974
000062  e007              B        |L3.116|
                  |L3.100|
000064  6a60              LDR      r0,[r4,#0x24]         ;974  ; i
000066  5c39              LDRB     r1,[r7,r0]            ;974
000068  a00b              ADR      r0,|L3.152|
00006a  f7fffffe          BL       __2printf
00006e  6a60              LDR      r0,[r4,#0x24]         ;973  ; i
000070  1c40              ADDS     r0,r0,#1              ;973
000072  6260              STR      r0,[r4,#0x24]         ;973  ; i
                  |L3.116|
000074  6a60              LDR      r0,[r4,#0x24]         ;973  ; i
000076  280c              CMP      r0,#0xc               ;973
000078  d3f4              BCC      |L3.100|
00007a  6165              STR      r5,[r4,#0x14]         ;976  ; arrayIndex
00007c  4805              LDR      r0,|L3.148|
00007e  f7fffffe          BL       delay
000082  61f5              STR      r5,[r6,#0x1c]         ;978
000084  bdf8              POP      {r3-r7,pc}
;;;993    
                          ENDP

000086  0000              DCW      0x0000
                  |L3.136|
                          DCD      0x40010000
                  |L3.140|
                          DCD      ||.data||
                  |L3.144|
                          DCD      0x50004200
                  |L3.148|
                          DCD      0x000186a0
                  |L3.152|
000098  256300            DCB      "%c",0
00009b  00                DCB      0

                          AREA ||i.UART0_IRQHandler||, CODE, READONLY, ALIGN=1

                  UART0_IRQHandler PROC
;;;1147   
;;;1148   void UART0_IRQHandler(void)
000000  b500              PUSH     {lr}
;;;1149   {	
;;;1150   	UART_TEST_HANDLE();
000002  f7fffffe          BL       UART_TEST_HANDLE
;;;1151   }
000006  bd00              POP      {pc}
;;;1152   	
                          ENDP


                          AREA ||i.UART0_Init||, CODE, READONLY, ALIGN=2

                  UART0_Init PROC
;;;1040   
;;;1041   void UART0_Init(void)
000000  b510              PUSH     {r4,lr}
;;;1042   {
;;;1043       /*---------------------------------------------------------------------------------------------------------*/
;;;1044       /* Init UART                                                                                               */
;;;1045       /*---------------------------------------------------------------------------------------------------------*/
;;;1046       /* Reset IP */
;;;1047       SYS_ResetModule(UART0_RST);
000002  4804              LDR      r0,|L5.20|
000004  f7fffffe          BL       SYS_ResetModule
;;;1048   
;;;1049       /* Configure UART0 and set UART0 Baudrate */
;;;1050       UART_Open(UART0, 38400);
000008  214b              MOVS     r1,#0x4b
00000a  0249              LSLS     r1,r1,#9
00000c  4802              LDR      r0,|L5.24|
00000e  f7fffffe          BL       UART_Open
;;;1051   }
000012  bd10              POP      {r4,pc}
;;;1052   
                          ENDP

                  |L5.20|
                          DCD      0x04000010
                  |L5.24|
                          DCD      0x40050000

                          AREA ||i.UART_TEST_HANDLE||, CODE, READONLY, ALIGN=2

                  UART_TEST_HANDLE PROC
;;;1055   /*---------------------------------------------------------------------------------------------------------*/
;;;1056   void UART_TEST_HANDLE()
000000  b5f8              PUSH     {r3-r7,lr}
;;;1057   {
;;;1058   	uint8_t u8InChar = 0xFF;
;;;1059   	uint32_t u32IntSts = UART0->ISR;
000002  4851              LDR      r0,|L6.328|
000004  69c0              LDR      r0,[r0,#0x1c]
;;;1060   
;;;1061   	if(u32IntSts & UART_ISR_RDA_INT_Msk)
000006  9000              STR      r0,[sp,#0]
000008  05c0              LSLS     r0,r0,#23
00000a  2700              MOVS     r7,#0
;;;1062   		{
;;;1063   			/* Get all the input characters */
;;;1064   			while(UART_IS_RX_READY(UART0))
;;;1065   				{
;;;1066   					/* Get the character from UART Buffer */
;;;1067   					u8InChar = UART_READ(UART0);
;;;1068   					if(dataReceiving == 1)
;;;1069   						{
;;;1070   							responce[arrayIndex] = u8InChar;					
00000c  4e4f              LDR      r6,|L6.332|
00000e  4d50              LDR      r5,|L6.336|
000010  2800              CMP      r0,#0                 ;1061
000012  db7a              BLT      |L6.266|
000014  e07d              B        |L6.274|
                  |L6.22|
000016  6800              LDR      r0,[r0,#0]            ;1067
000018  b2c4              UXTB     r4,r0                 ;1067
00001a  69a8              LDR      r0,[r5,#0x18]         ;1068  ; dataReceiving
00001c  2801              CMP      r0,#1                 ;1068
00001e  d153              BNE      |L6.200|
000020  6968              LDR      r0,[r5,#0x14]  ; arrayIndex
000022  5434              STRB     r4,[r6,r0]
;;;1071   							if(arrayIndex == 1)
000024  6968              LDR      r0,[r5,#0x14]  ; arrayIndex
000026  2801              CMP      r0,#1
000028  d112              BNE      |L6.80|
;;;1072   								{
;;;1073   									if(u8InChar != 0x03)
00002a  2c03              CMP      r4,#3
00002c  d010              BEQ      |L6.80|
;;;1074   										{
;;;1075   											if(u8InChar == 0x83)
00002e  2c83              CMP      r4,#0x83
000030  d10c              BNE      |L6.76|
;;;1076   											{
;;;1077   												totalRegsToRead = totalRegsToRead - 1;
000032  7828              LDRB     r0,[r5,#0]  ; totalRegsToRead
000034  1e40              SUBS     r0,r0,#1
000036  7028              STRB     r0,[r5,#0]
;;;1078   												toatalDataBytesToReceived = 2 * totalRegsToRead;
000038  7828              LDRB     r0,[r5,#0]  ; totalRegsToRead
00003a  0040              LSLS     r0,r0,#1
00003c  7068              STRB     r0,[r5,#1]
;;;1079   												responceSize = toatalDataBytesToReceived + 3;
00003e  7868              LDRB     r0,[r5,#1]  ; toatalDataBytesToReceived
000040  1cc0              ADDS     r0,r0,#3
000042  70a8              STRB     r0,[r5,#2]
;;;1080   												masterCommand[11] = totalRegsToRead;
000044  7828              LDRB     r0,[r5,#0]  ; totalRegsToRead
000046  4942              LDR      r1,|L6.336|
000048  3168              ADDS     r1,r1,#0x68
00004a  72c8              STRB     r0,[r1,#0xb]
                  |L6.76|
;;;1081   											}
;;;1082   											dataReceiving = 0;
00004c  61af              STR      r7,[r5,#0x18]  ; dataReceiving
;;;1083   											arrayIndex = 0;
00004e  616f              STR      r7,[r5,#0x14]  ; arrayIndex
                  |L6.80|
;;;1084   										}
;;;1085   								}
;;;1086   							if(arrayIndex == 2)
000050  6968              LDR      r0,[r5,#0x14]  ; arrayIndex
000052  2802              CMP      r0,#2
000054  d104              BNE      |L6.96|
;;;1087   								{
;;;1088   									if(u8InChar != toatalDataBytesToReceived)
000056  7868              LDRB     r0,[r5,#1]  ; toatalDataBytesToReceived
000058  4284              CMP      r4,r0
00005a  d001              BEQ      |L6.96|
;;;1089   										{
;;;1090   											dataReceiving = 0;
00005c  61af              STR      r7,[r5,#0x18]  ; dataReceiving
;;;1091   											arrayIndex = 0;
00005e  616f              STR      r7,[r5,#0x14]  ; arrayIndex
                  |L6.96|
;;;1092   										}
;;;1093   								}
;;;1094   							if(dataReceiving == 1)
000060  69a8              LDR      r0,[r5,#0x18]  ; dataReceiving
000062  2801              CMP      r0,#1
000064  d102              BNE      |L6.108|
;;;1095   								arrayIndex = arrayIndex + 1;
000066  6968              LDR      r0,[r5,#0x14]  ; arrayIndex
000068  1c40              ADDS     r0,r0,#1
00006a  6168              STR      r0,[r5,#0x14]  ; arrayIndex
                  |L6.108|
;;;1096   							if(arrayIndex == responceSize)
00006c  6968              LDR      r0,[r5,#0x14]  ; arrayIndex
00006e  78a9              LDRB     r1,[r5,#2]  ; responceSize
000070  4288              CMP      r0,r1
000072  d129              BNE      |L6.200|
;;;1097   								{
;;;1098   									dataReceiving = 0;
000074  61af              STR      r7,[r5,#0x18]  ; dataReceiving
;;;1099   									arrayIndex = 0;
000076  616f              STR      r7,[r5,#0x14]  ; arrayIndex
;;;1100   									First_Reg_L = (3 * boardID) + (boardID - 1);
000078  78e8              LDRB     r0,[r5,#3]  ; boardID
00007a  0041              LSLS     r1,r0,#1
00007c  1840              ADDS     r0,r0,r1
00007e  78e9              LDRB     r1,[r5,#3]  ; boardID
000080  1840              ADDS     r0,r0,r1
000082  1e40              SUBS     r0,r0,#1
000084  7128              STRB     r0,[r5,#4]
;;;1101   									First_Reg_H = First_Reg_L + 1;
000086  7928              LDRB     r0,[r5,#4]  ; First_Reg_L
000088  1c40              ADDS     r0,r0,#1
00008a  7168              STRB     r0,[r5,#5]
;;;1102   									Second_Reg_L = First_Reg_H + 1;
00008c  7968              LDRB     r0,[r5,#5]  ; First_Reg_H
00008e  1c40              ADDS     r0,r0,#1
000090  71a8              STRB     r0,[r5,#6]
;;;1103   									Second_Reg_H = Second_Reg_L + 1;					
000092  79a8              LDRB     r0,[r5,#6]  ; Second_Reg_L
000094  1c40              ADDS     r0,r0,#1
000096  71e8              STRB     r0,[r5,#7]
;;;1104   
;;;1105   									setPort_4(responce[First_Reg_H]);
000098  7968              LDRB     r0,[r5,#5]  ; First_Reg_H
00009a  5c30              LDRB     r0,[r6,r0]
00009c  f7fffffe          BL       setPort_4
;;;1106   									setPort_2(responce[First_Reg_L]);
0000a0  7928              LDRB     r0,[r5,#4]  ; First_Reg_L
0000a2  5c30              LDRB     r0,[r6,r0]
0000a4  f7fffffe          BL       setPort_2
;;;1107   									setPort_3(responce[Second_Reg_H]);
0000a8  79e8              LDRB     r0,[r5,#7]  ; Second_Reg_H
0000aa  5c30              LDRB     r0,[r6,r0]
0000ac  f7fffffe          BL       setPort_3
;;;1108   									setPort_1(responce[Second_Reg_L]);
0000b0  79a8              LDRB     r0,[r5,#6]  ; Second_Reg_L
0000b2  5c30              LDRB     r0,[r6,r0]
0000b4  f7fffffe          BL       setPort_1
;;;1109   									
;;;1110   									changePort1States();
0000b8  f7fffffe          BL       changePort1States
;;;1111   									changePort2States();
0000bc  f7fffffe          BL       changePort2States
;;;1112   									changePort3States();
0000c0  f7fffffe          BL       changePort3States
;;;1113   									changePort4States();
0000c4  f7fffffe          BL       changePort4States
                  |L6.200|
;;;1114   								}
;;;1115   						}
;;;1116   					if(u8InChar == 0x01 && dataReceiving == 0)
0000c8  2c01              CMP      r4,#1
0000ca  d109              BNE      |L6.224|
0000cc  69a8              LDR      r0,[r5,#0x18]  ; dataReceiving
0000ce  2800              CMP      r0,#0
0000d0  d106              BNE      |L6.224|
;;;1117   						{
;;;1118   							responce[arrayIndex] = u8InChar;
0000d2  6968              LDR      r0,[r5,#0x14]  ; arrayIndex
0000d4  5434              STRB     r4,[r6,r0]
;;;1119   							dataReceiving = 1;
0000d6  2001              MOVS     r0,#1
0000d8  61a8              STR      r0,[r5,#0x18]  ; dataReceiving
;;;1120   							arrayIndex = arrayIndex + 1;
0000da  6968              LDR      r0,[r5,#0x14]  ; arrayIndex
0000dc  1c40              ADDS     r0,r0,#1
0000de  6168              STR      r0,[r5,#0x14]  ; arrayIndex
                  |L6.224|
;;;1121   						}
;;;1122   
;;;1123   					/* Check if buffer full */
;;;1124   					if(g_u32comRbytes < RXBUFSIZE)
0000e0  68a8              LDR      r0,[r5,#8]  ; g_u32comRbytes
0000e2  2101              MOVS     r1,#1
0000e4  0289              LSLS     r1,r1,#10
0000e6  4288              CMP      r0,r1
0000e8  d20f              BCS      |L6.266|
;;;1125   						{
;;;1126   								/* Enqueue the character */
;;;1127   								g_u8RecData[g_u32comRtail] = u8InChar;
0000ea  481a              LDR      r0,|L6.340|
0000ec  6929              LDR      r1,[r5,#0x10]  ; g_u32comRtail
0000ee  5444              STRB     r4,[r0,r1]
;;;1128   								g_u32comRtail = (g_u32comRtail == (RXBUFSIZE - 1)) ? 0 : (g_u32comRtail + 1);
0000f0  6929              LDR      r1,[r5,#0x10]  ; g_u32comRtail
0000f2  4819              LDR      r0,|L6.344|
0000f4  4281              CMP      r1,r0
0000f6  d102              BNE      |L6.254|
0000f8  2000              MOVS     r0,#0
0000fa  e002              B        |L6.258|
0000fc  e005              B        |L6.266|
                  |L6.254|
0000fe  6928              LDR      r0,[r5,#0x10]  ; g_u32comRtail
000100  1c40              ADDS     r0,r0,#1
                  |L6.258|
000102  6128              STR      r0,[r5,#0x10]  ; g_u32comRtail
;;;1129   								g_u32comRbytes++;
000104  68a8              LDR      r0,[r5,#8]  ; g_u32comRbytes
000106  1c40              ADDS     r0,r0,#1
000108  60a8              STR      r0,[r5,#8]  ; g_u32comRbytes
                  |L6.266|
00010a  480f              LDR      r0,|L6.328|
00010c  69c1              LDR      r1,[r0,#0x1c]         ;1064
00010e  07c9              LSLS     r1,r1,#31             ;1064
000110  d181              BNE      |L6.22|
                  |L6.274|
;;;1130   						}
;;;1131   				}
;;;1132   		}
;;;1133   
;;;1134   	if(u32IntSts & UART_ISR_THRE_INT_Msk)
000112  9800              LDR      r0,[sp,#0]
000114  0580              LSLS     r0,r0,#22
000116  d515              BPL      |L6.324|
;;;1135   		{
;;;1136   			uint16_t tmp;
;;;1137   			tmp = g_u32comRtail;
000118  6928              LDR      r0,[r5,#0x10]  ; g_u32comRtail
;;;1138   			if(g_u32comRhead != tmp)
00011a  68e9              LDR      r1,[r5,#0xc]  ; g_u32comRhead
00011c  b280              UXTH     r0,r0                 ;1137
00011e  4281              CMP      r1,r0
000120  d010              BEQ      |L6.324|
;;;1139   				{
;;;1140   						u8InChar = g_u8RecData[g_u32comRhead];
000122  68e8              LDR      r0,[r5,#0xc]  ; g_u32comRhead
000124  4808              LDR      r0,|L6.328|
                  |L6.294|
;;;1141   						while(UART_IS_TX_FULL(UART0));  /* Wait Tx is not full to transmit data */
000126  6981              LDR      r1,[r0,#0x18]
000128  0209              LSLS     r1,r1,#8
00012a  d4fc              BMI      |L6.294|
;;;1142   						g_u32comRhead = (g_u32comRhead == (RXBUFSIZE - 1)) ? 0 : (g_u32comRhead + 1);
00012c  68e9              LDR      r1,[r5,#0xc]  ; g_u32comRhead
00012e  480a              LDR      r0,|L6.344|
000130  4281              CMP      r1,r0
000132  d101              BNE      |L6.312|
000134  2000              MOVS     r0,#0
000136  e001              B        |L6.316|
                  |L6.312|
000138  68e8              LDR      r0,[r5,#0xc]  ; g_u32comRhead
00013a  1c40              ADDS     r0,r0,#1
                  |L6.316|
00013c  60e8              STR      r0,[r5,#0xc]  ; g_u32comRhead
;;;1143   						g_u32comRbytes--;
00013e  68a8              LDR      r0,[r5,#8]  ; g_u32comRbytes
000140  1e40              SUBS     r0,r0,#1
000142  60a8              STR      r0,[r5,#8]  ; g_u32comRbytes
                  |L6.324|
;;;1144   				}
;;;1145   		}
;;;1146   }
000144  bdf8              POP      {r3-r7,pc}
;;;1147   
                          ENDP

000146  0000              DCW      0x0000
                  |L6.328|
                          DCD      0x40050000
                  |L6.332|
                          DCD      ||.bss||+0x400
                  |L6.336|
                          DCD      ||.data||
                  |L6.340|
                          DCD      ||.bss||
                  |L6.344|
                          DCD      0x000003ff

                          AREA ||i.changePort1||, CODE, READONLY, ALIGN=2

                  changePort1 PROC
;;;701    
;;;702    void changePort1()
000000  b510              PUSH     {r4,lr}
;;;703    {
;;;704    	if(port1States[0] == 1)
000002  4b45              LDR      r3,|L7.280|
000004  781c              LDRB     r4,[r3,#0]  ; port1States
;;;705    		P10 = 1;
000006  2101              MOVS     r1,#1
000008  2200              MOVS     r2,#0
00000a  4844              LDR      r0,|L7.284|
00000c  2c01              CMP      r4,#1                 ;704
00000e  d006              BEQ      |L7.30|
;;;706    	else if(port1States[0] == 0)
000010  781c              LDRB     r4,[r3,#0]  ; port1States
000012  2c00              CMP      r4,#0
000014  d005              BEQ      |L7.34|
;;;707    		P10 = 0;
;;;708    	else if(port1States[0] == 6)
000016  781c              LDRB     r4,[r3,#0]  ; port1States
000018  2c06              CMP      r4,#6
00001a  d004              BEQ      |L7.38|
00001c  e006              B        |L7.44|
                  |L7.30|
00001e  6201              STR      r1,[r0,#0x20]         ;705
000020  e004              B        |L7.44|
                  |L7.34|
000022  6202              STR      r2,[r0,#0x20]         ;707
000024  e002              B        |L7.44|
                  |L7.38|
;;;709    		P10 = ~(P10);
000026  6a04              LDR      r4,[r0,#0x20]
000028  43e4              MVNS     r4,r4
00002a  6204              STR      r4,[r0,#0x20]
                  |L7.44|
;;;710    	
;;;711    	if(port1States[1] == 1)
00002c  785c              LDRB     r4,[r3,#1]  ; port1States
00002e  2c01              CMP      r4,#1
000030  d006              BEQ      |L7.64|
;;;712    		P11 = 1;
;;;713    	else if(port1States[1] == 0)
000032  785c              LDRB     r4,[r3,#1]  ; port1States
000034  2c00              CMP      r4,#0
000036  d005              BEQ      |L7.68|
;;;714    		P11 = 0;
;;;715    	else if(port1States[1] == 6)
000038  785c              LDRB     r4,[r3,#1]  ; port1States
00003a  2c06              CMP      r4,#6
00003c  d004              BEQ      |L7.72|
00003e  e006              B        |L7.78|
                  |L7.64|
000040  6241              STR      r1,[r0,#0x24]         ;712
000042  e004              B        |L7.78|
                  |L7.68|
000044  6242              STR      r2,[r0,#0x24]         ;714
000046  e002              B        |L7.78|
                  |L7.72|
;;;716    		P11 = ~(P11);
000048  6a44              LDR      r4,[r0,#0x24]
00004a  43e4              MVNS     r4,r4
00004c  6244              STR      r4,[r0,#0x24]
                  |L7.78|
;;;717    	
;;;718    	if(port1States[2] == 1)
00004e  789c              LDRB     r4,[r3,#2]  ; port1States
000050  2c01              CMP      r4,#1
000052  d006              BEQ      |L7.98|
;;;719    		P12 = 1;
;;;720    	else if(port1States[2] == 0)
000054  789c              LDRB     r4,[r3,#2]  ; port1States
000056  2c00              CMP      r4,#0
000058  d005              BEQ      |L7.102|
;;;721    		P12 = 0;
;;;722    	else if(port1States[2] == 6)
00005a  789c              LDRB     r4,[r3,#2]  ; port1States
00005c  2c06              CMP      r4,#6
00005e  d004              BEQ      |L7.106|
000060  e006              B        |L7.112|
                  |L7.98|
000062  6281              STR      r1,[r0,#0x28]         ;719
000064  e004              B        |L7.112|
                  |L7.102|
000066  6282              STR      r2,[r0,#0x28]         ;721
000068  e002              B        |L7.112|
                  |L7.106|
;;;723    		P12 = ~(P12);
00006a  6a84              LDR      r4,[r0,#0x28]
00006c  43e4              MVNS     r4,r4
00006e  6284              STR      r4,[r0,#0x28]
                  |L7.112|
;;;724    	
;;;725    	if(port1States[3] == 1)
000070  78dc              LDRB     r4,[r3,#3]  ; port1States
000072  2c01              CMP      r4,#1
000074  d006              BEQ      |L7.132|
;;;726    		P13 = 1;
;;;727    	else if(port1States[3] == 0)
000076  78dc              LDRB     r4,[r3,#3]  ; port1States
000078  2c00              CMP      r4,#0
00007a  d005              BEQ      |L7.136|
;;;728    		P13 = 0;
;;;729    	else if(port1States[3] == 6)
00007c  78dc              LDRB     r4,[r3,#3]  ; port1States
00007e  2c06              CMP      r4,#6
000080  d004              BEQ      |L7.140|
000082  e006              B        |L7.146|
                  |L7.132|
000084  62c1              STR      r1,[r0,#0x2c]         ;726
000086  e004              B        |L7.146|
                  |L7.136|
000088  62c2              STR      r2,[r0,#0x2c]         ;728
00008a  e002              B        |L7.146|
                  |L7.140|
;;;730    		P13 = ~(P13);
00008c  6ac4              LDR      r4,[r0,#0x2c]
00008e  43e4              MVNS     r4,r4
000090  62c4              STR      r4,[r0,#0x2c]
                  |L7.146|
;;;731    	
;;;732    	if(port1States[4] == 1)
000092  791c              LDRB     r4,[r3,#4]  ; port1States
000094  2c01              CMP      r4,#1
000096  d006              BEQ      |L7.166|
;;;733    		P14 = 1;
;;;734    	else if(port1States[4] == 0)
000098  791c              LDRB     r4,[r3,#4]  ; port1States
00009a  2c00              CMP      r4,#0
00009c  d005              BEQ      |L7.170|
;;;735    		P14 = 0;
;;;736    	else if(port1States[4] == 6)
00009e  791c              LDRB     r4,[r3,#4]  ; port1States
0000a0  2c06              CMP      r4,#6
0000a2  d004              BEQ      |L7.174|
0000a4  e006              B        |L7.180|
                  |L7.166|
0000a6  6301              STR      r1,[r0,#0x30]         ;733
0000a8  e004              B        |L7.180|
                  |L7.170|
0000aa  6302              STR      r2,[r0,#0x30]         ;735
0000ac  e002              B        |L7.180|
                  |L7.174|
;;;737    		P14 = ~(P14);
0000ae  6b04              LDR      r4,[r0,#0x30]
0000b0  43e4              MVNS     r4,r4
0000b2  6304              STR      r4,[r0,#0x30]
                  |L7.180|
;;;738    	
;;;739    	if(port1States[5] == 1)
0000b4  795c              LDRB     r4,[r3,#5]  ; port1States
0000b6  2c01              CMP      r4,#1
0000b8  d006              BEQ      |L7.200|
;;;740    		P15 = 1;
;;;741    	else if(port1States[5] == 0)
0000ba  795c              LDRB     r4,[r3,#5]  ; port1States
0000bc  2c00              CMP      r4,#0
0000be  d005              BEQ      |L7.204|
;;;742    		P15 = 0;
;;;743    	else if(port1States[5] == 6)
0000c0  795c              LDRB     r4,[r3,#5]  ; port1States
0000c2  2c06              CMP      r4,#6
0000c4  d004              BEQ      |L7.208|
0000c6  e006              B        |L7.214|
                  |L7.200|
0000c8  6341              STR      r1,[r0,#0x34]         ;740
0000ca  e004              B        |L7.214|
                  |L7.204|
0000cc  6342              STR      r2,[r0,#0x34]         ;742
0000ce  e002              B        |L7.214|
                  |L7.208|
;;;744    		P15 = ~(P15);
0000d0  6b44              LDR      r4,[r0,#0x34]
0000d2  43e4              MVNS     r4,r4
0000d4  6344              STR      r4,[r0,#0x34]
                  |L7.214|
;;;745    	
;;;746    	if(port1States[6] == 1)
0000d6  799c              LDRB     r4,[r3,#6]  ; port1States
0000d8  2c01              CMP      r4,#1
0000da  d006              BEQ      |L7.234|
;;;747    		P16 = 1;
;;;748    	else if(port1States[6] == 0)
0000dc  799c              LDRB     r4,[r3,#6]  ; port1States
0000de  2c00              CMP      r4,#0
0000e0  d005              BEQ      |L7.238|
;;;749    		P16 = 0;
;;;750    	else if(port1States[6] == 6)
0000e2  799c              LDRB     r4,[r3,#6]  ; port1States
0000e4  2c06              CMP      r4,#6
0000e6  d004              BEQ      |L7.242|
0000e8  e006              B        |L7.248|
                  |L7.234|
0000ea  6381              STR      r1,[r0,#0x38]         ;747
0000ec  e004              B        |L7.248|
                  |L7.238|
0000ee  6382              STR      r2,[r0,#0x38]         ;749
0000f0  e002              B        |L7.248|
                  |L7.242|
;;;751    		P16 = ~(P16);
0000f2  6b84              LDR      r4,[r0,#0x38]
0000f4  43e4              MVNS     r4,r4
0000f6  6384              STR      r4,[r0,#0x38]
                  |L7.248|
;;;752    	
;;;753    	if(port1States[7] == 1)
0000f8  79dc              LDRB     r4,[r3,#7]  ; port1States
0000fa  2c01              CMP      r4,#1
0000fc  d007              BEQ      |L7.270|
;;;754    		P17 = 1;
;;;755    	else if(port1States[7] == 0)
0000fe  79d9              LDRB     r1,[r3,#7]  ; port1States
000100  2900              CMP      r1,#0
000102  d006              BEQ      |L7.274|
;;;756    		P17 = 0;
;;;757    	else if(port1States[7] == 6)
000104  79d9              LDRB     r1,[r3,#7]  ; port1States
000106  2906              CMP      r1,#6
000108  d102              BNE      |L7.272|
;;;758    		P17 = ~(P17);
00010a  6bc1              LDR      r1,[r0,#0x3c]
00010c  43c9              MVNS     r1,r1
                  |L7.270|
00010e  63c1              STR      r1,[r0,#0x3c]         ;754
                  |L7.272|
;;;759    }
000110  bd10              POP      {r4,pc}
                  |L7.274|
000112  63c2              STR      r2,[r0,#0x3c]         ;756
000114  bd10              POP      {r4,pc}
;;;760    
                          ENDP

000116  0000              DCW      0x0000
                  |L7.280|
                          DCD      ||.data||+0x48
                  |L7.284|
                          DCD      0x50004200

                          AREA ||i.changePort1States||, CODE, READONLY, ALIGN=2

                  changePort1States PROC
;;;241    
;;;242    void changePort1States()
000000  b570              PUSH     {r4-r6,lr}
;;;243    {
;;;244    	port1Readings[0] = port1Readings[0] & 0x1F;
000002  4d6c              LDR      r5,|L8.436|
000004  7828              LDRB     r0,[r5,#0]  ; port1Readings
000006  06c0              LSLS     r0,r0,#27
000008  0ec0              LSRS     r0,r0,#27
00000a  7028              STRB     r0,[r5,#0]
;;;245    	if(port1Readings[0] == 0x1F)
00000c  782e              LDRB     r6,[r5,#0]  ; port1Readings
;;;246    		port1States[0] = 1;
00000e  4628              MOV      r0,r5
000010  2101              MOVS     r1,#1
000012  2200              MOVS     r2,#0
;;;247    	else if(port1Readings[0] == 0x00)
;;;248    		port1States[0] = 0;
;;;249    	else
;;;250    		{
;;;251    			port1States[0] = port1States[0] + 1;
;;;252    			if(port1States[0] == 1)
;;;253    				port1States[0] = 2;
000014  2302              MOVS     r3,#2
;;;254    			if(port1States[0] == 7)
;;;255    				port1States[0] = 6;
000016  2406              MOVS     r4,#6
000018  3020              ADDS     r0,r0,#0x20           ;246
00001a  2e1f              CMP      r6,#0x1f              ;245
00001c  d009              BEQ      |L8.50|
00001e  782e              LDRB     r6,[r5,#0]            ;247  ; port1Readings
000020  2e00              CMP      r6,#0                 ;247
000022  d008              BEQ      |L8.54|
000024  7806              LDRB     r6,[r0,#0]            ;251  ; port1States
000026  1c76              ADDS     r6,r6,#1              ;251
000028  7006              STRB     r6,[r0,#0]            ;251
00002a  7806              LDRB     r6,[r0,#0]            ;252  ; port1States
00002c  2e01              CMP      r6,#1                 ;252
00002e  d004              BEQ      |L8.58|
000030  e004              B        |L8.60|
                  |L8.50|
000032  7001              STRB     r1,[r0,#0]            ;246
000034  e006              B        |L8.68|
                  |L8.54|
000036  7002              STRB     r2,[r0,#0]            ;248
000038  e004              B        |L8.68|
                  |L8.58|
00003a  7003              STRB     r3,[r0,#0]            ;253
                  |L8.60|
00003c  7806              LDRB     r6,[r0,#0]            ;254  ; port1States
00003e  2e07              CMP      r6,#7                 ;254
000040  d100              BNE      |L8.68|
000042  7004              STRB     r4,[r0,#0]
                  |L8.68|
;;;256    		}
;;;257    	
;;;258    	port1Readings[1] = port1Readings[1] & 0x1F;
000044  786e              LDRB     r6,[r5,#1]  ; port1Readings
000046  06f6              LSLS     r6,r6,#27
000048  0ef6              LSRS     r6,r6,#27
00004a  706e              STRB     r6,[r5,#1]
;;;259    	if(port1Readings[1] == 0x1F)
00004c  786e              LDRB     r6,[r5,#1]  ; port1Readings
00004e  2e1f              CMP      r6,#0x1f
000050  d009              BEQ      |L8.102|
;;;260    		port1States[1] = 1;
;;;261    	else if(port1Readings[1] == 0x00)
000052  786e              LDRB     r6,[r5,#1]  ; port1Readings
000054  2e00              CMP      r6,#0
000056  d008              BEQ      |L8.106|
;;;262    		port1States[1] = 0;
;;;263    	else
;;;264    		{
;;;265    			port1States[1] = port1States[1] + 1;
000058  7846              LDRB     r6,[r0,#1]  ; port1States
00005a  1c76              ADDS     r6,r6,#1
00005c  7046              STRB     r6,[r0,#1]
;;;266    			if(port1States[1] == 1)
00005e  7846              LDRB     r6,[r0,#1]  ; port1States
000060  2e01              CMP      r6,#1
000062  d004              BEQ      |L8.110|
000064  e004              B        |L8.112|
                  |L8.102|
000066  7041              STRB     r1,[r0,#1]            ;260
000068  e006              B        |L8.120|
                  |L8.106|
00006a  7042              STRB     r2,[r0,#1]            ;262
00006c  e004              B        |L8.120|
                  |L8.110|
;;;267    				port1States[1] = 2;
00006e  7043              STRB     r3,[r0,#1]
                  |L8.112|
;;;268    			if(port1States[1] == 7)
000070  7846              LDRB     r6,[r0,#1]  ; port1States
000072  2e07              CMP      r6,#7
000074  d100              BNE      |L8.120|
;;;269    				port1States[1] = 6;
000076  7044              STRB     r4,[r0,#1]
                  |L8.120|
;;;270    		}
;;;271    		
;;;272    	port1Readings[2] = port1Readings[2] & 0x1F;
000078  78ae              LDRB     r6,[r5,#2]  ; port1Readings
00007a  06f6              LSLS     r6,r6,#27
00007c  0ef6              LSRS     r6,r6,#27
00007e  70ae              STRB     r6,[r5,#2]
;;;273    	if(port1Readings[2] == 0x1F)
000080  78ae              LDRB     r6,[r5,#2]  ; port1Readings
000082  2e1f              CMP      r6,#0x1f
000084  d009              BEQ      |L8.154|
;;;274    		port1States[2] = 1;
;;;275    	else if(port1Readings[2] == 0x00)
000086  78ae              LDRB     r6,[r5,#2]  ; port1Readings
000088  2e00              CMP      r6,#0
00008a  d008              BEQ      |L8.158|
;;;276    		port1States[2] = 0;
;;;277    	else
;;;278    		{
;;;279    			port1States[2] = port1States[2] + 1;
00008c  7886              LDRB     r6,[r0,#2]  ; port1States
00008e  1c76              ADDS     r6,r6,#1
000090  7086              STRB     r6,[r0,#2]
;;;280    			if(port1States[2] == 1)
000092  7886              LDRB     r6,[r0,#2]  ; port1States
000094  2e01              CMP      r6,#1
000096  d004              BEQ      |L8.162|
000098  e004              B        |L8.164|
                  |L8.154|
00009a  7081              STRB     r1,[r0,#2]            ;274
00009c  e006              B        |L8.172|
                  |L8.158|
00009e  7082              STRB     r2,[r0,#2]            ;276
0000a0  e004              B        |L8.172|
                  |L8.162|
;;;281    				port1States[2] = 2;
0000a2  7083              STRB     r3,[r0,#2]
                  |L8.164|
;;;282    			if(port1States[2] == 7)
0000a4  7886              LDRB     r6,[r0,#2]  ; port1States
0000a6  2e07              CMP      r6,#7
0000a8  d100              BNE      |L8.172|
;;;283    				port1States[2] = 6;
0000aa  7084              STRB     r4,[r0,#2]
                  |L8.172|
;;;284    		}
;;;285    		
;;;286    	port1Readings[3] = port1Readings[3] & 0x1F;
0000ac  78ee              LDRB     r6,[r5,#3]  ; port1Readings
0000ae  06f6              LSLS     r6,r6,#27
0000b0  0ef6              LSRS     r6,r6,#27
0000b2  70ee              STRB     r6,[r5,#3]
;;;287    	if(port1Readings[3] == 0x1F)
0000b4  78ee              LDRB     r6,[r5,#3]  ; port1Readings
0000b6  2e1f              CMP      r6,#0x1f
0000b8  d009              BEQ      |L8.206|
;;;288    		port1States[3] = 1;
;;;289    	else if(port1Readings[3] == 0x00)
0000ba  78ee              LDRB     r6,[r5,#3]  ; port1Readings
0000bc  2e00              CMP      r6,#0
0000be  d008              BEQ      |L8.210|
;;;290    		port1States[3] = 0;
;;;291    	else
;;;292    		{
;;;293    			port1States[3] = port1States[3] + 1;
0000c0  78c6              LDRB     r6,[r0,#3]  ; port1States
0000c2  1c76              ADDS     r6,r6,#1
0000c4  70c6              STRB     r6,[r0,#3]
;;;294    			if(port1States[3] == 1)
0000c6  78c6              LDRB     r6,[r0,#3]  ; port1States
0000c8  2e01              CMP      r6,#1
0000ca  d004              BEQ      |L8.214|
0000cc  e004              B        |L8.216|
                  |L8.206|
0000ce  70c1              STRB     r1,[r0,#3]            ;288
0000d0  e006              B        |L8.224|
                  |L8.210|
0000d2  70c2              STRB     r2,[r0,#3]            ;290
0000d4  e004              B        |L8.224|
                  |L8.214|
;;;295    				port1States[3] = 2;
0000d6  70c3              STRB     r3,[r0,#3]
                  |L8.216|
;;;296    			if(port1States[3] == 7)
0000d8  78c6              LDRB     r6,[r0,#3]  ; port1States
0000da  2e07              CMP      r6,#7
0000dc  d100              BNE      |L8.224|
;;;297    				port1States[3] = 6;
0000de  70c4              STRB     r4,[r0,#3]
                  |L8.224|
;;;298    		}
;;;299    		
;;;300    	port1Readings[4] = port1Readings[4] & 0x1F;
0000e0  792e              LDRB     r6,[r5,#4]  ; port1Readings
0000e2  06f6              LSLS     r6,r6,#27
0000e4  0ef6              LSRS     r6,r6,#27
0000e6  712e              STRB     r6,[r5,#4]
;;;301    	if(port1Readings[4] == 0x1F)
0000e8  792e              LDRB     r6,[r5,#4]  ; port1Readings
0000ea  2e1f              CMP      r6,#0x1f
0000ec  d009              BEQ      |L8.258|
;;;302    		port1States[4] = 1;
;;;303    	else if(port1Readings[4] == 0x00)
0000ee  792e              LDRB     r6,[r5,#4]  ; port1Readings
0000f0  2e00              CMP      r6,#0
0000f2  d008              BEQ      |L8.262|
;;;304    		port1States[4] = 0;
;;;305    	else
;;;306    		{
;;;307    			port1States[4] = port1States[4] + 1;
0000f4  7906              LDRB     r6,[r0,#4]  ; port1States
0000f6  1c76              ADDS     r6,r6,#1
0000f8  7106              STRB     r6,[r0,#4]
;;;308    			if(port1States[4] == 1)
0000fa  7906              LDRB     r6,[r0,#4]  ; port1States
0000fc  2e01              CMP      r6,#1
0000fe  d004              BEQ      |L8.266|
000100  e004              B        |L8.268|
                  |L8.258|
000102  7101              STRB     r1,[r0,#4]            ;302
000104  e006              B        |L8.276|
                  |L8.262|
000106  7102              STRB     r2,[r0,#4]            ;304
000108  e004              B        |L8.276|
                  |L8.266|
;;;309    				port1States[4] = 2;
00010a  7103              STRB     r3,[r0,#4]
                  |L8.268|
;;;310    			if(port1States[4] == 7)
00010c  7906              LDRB     r6,[r0,#4]  ; port1States
00010e  2e07              CMP      r6,#7
000110  d100              BNE      |L8.276|
;;;311    				port1States[4] = 6;
000112  7104              STRB     r4,[r0,#4]
                  |L8.276|
;;;312    		}
;;;313    		
;;;314    	port1Readings[5] = port1Readings[5] & 0x1F;
000114  796e              LDRB     r6,[r5,#5]  ; port1Readings
000116  06f6              LSLS     r6,r6,#27
000118  0ef6              LSRS     r6,r6,#27
00011a  716e              STRB     r6,[r5,#5]
;;;315    	if(port1Readings[5] == 0x1F)
00011c  796e              LDRB     r6,[r5,#5]  ; port1Readings
00011e  2e1f              CMP      r6,#0x1f
000120  d009              BEQ      |L8.310|
;;;316    		port1States[5] = 1;
;;;317    	else if(port1Readings[5] == 0x00)
000122  796e              LDRB     r6,[r5,#5]  ; port1Readings
000124  2e00              CMP      r6,#0
000126  d008              BEQ      |L8.314|
;;;318    		port1States[5] = 0;
;;;319    	else
;;;320    		{
;;;321    			port1States[5] = port1States[5] + 1;
000128  7946              LDRB     r6,[r0,#5]  ; port1States
00012a  1c76              ADDS     r6,r6,#1
00012c  7146              STRB     r6,[r0,#5]
;;;322    			if(port1States[5] == 1)
00012e  7946              LDRB     r6,[r0,#5]  ; port1States
000130  2e01              CMP      r6,#1
000132  d004              BEQ      |L8.318|
000134  e004              B        |L8.320|
                  |L8.310|
000136  7141              STRB     r1,[r0,#5]            ;316
000138  e006              B        |L8.328|
                  |L8.314|
00013a  7142              STRB     r2,[r0,#5]            ;318
00013c  e004              B        |L8.328|
                  |L8.318|
;;;323    				port1States[5] = 2;
00013e  7143              STRB     r3,[r0,#5]
                  |L8.320|
;;;324    			if(port1States[5] == 7)
000140  7946              LDRB     r6,[r0,#5]  ; port1States
000142  2e07              CMP      r6,#7
000144  d100              BNE      |L8.328|
;;;325    				port1States[5] = 6;
000146  7144              STRB     r4,[r0,#5]
                  |L8.328|
;;;326    		}
;;;327    		
;;;328    	port1Readings[6] = port1Readings[6] & 0x1F;
000148  79ae              LDRB     r6,[r5,#6]  ; port1Readings
00014a  06f6              LSLS     r6,r6,#27
00014c  0ef6              LSRS     r6,r6,#27
00014e  71ae              STRB     r6,[r5,#6]
;;;329    	if(port1Readings[6] == 0x1F)
000150  79ae              LDRB     r6,[r5,#6]  ; port1Readings
000152  2e1f              CMP      r6,#0x1f
000154  d009              BEQ      |L8.362|
;;;330    		port1States[6] = 1;
;;;331    	else if(port1Readings[6] == 0x00)
000156  79ae              LDRB     r6,[r5,#6]  ; port1Readings
000158  2e00              CMP      r6,#0
00015a  d008              BEQ      |L8.366|
;;;332    		port1States[6] = 0;
;;;333    	else
;;;334    		{
;;;335    			port1States[6] = port1States[6] + 1;
00015c  7986              LDRB     r6,[r0,#6]  ; port1States
00015e  1c76              ADDS     r6,r6,#1
000160  7186              STRB     r6,[r0,#6]
;;;336    			if(port1States[6] == 1)
000162  7986              LDRB     r6,[r0,#6]  ; port1States
000164  2e01              CMP      r6,#1
000166  d004              BEQ      |L8.370|
000168  e004              B        |L8.372|
                  |L8.362|
00016a  7181              STRB     r1,[r0,#6]            ;330
00016c  e006              B        |L8.380|
                  |L8.366|
00016e  7182              STRB     r2,[r0,#6]            ;332
000170  e004              B        |L8.380|
                  |L8.370|
;;;337    				port1States[6] = 2;
000172  7183              STRB     r3,[r0,#6]
                  |L8.372|
;;;338    			if(port1States[6] == 7)
000174  7986              LDRB     r6,[r0,#6]  ; port1States
000176  2e07              CMP      r6,#7
000178  d100              BNE      |L8.380|
;;;339    				port1States[6] = 6;
00017a  7184              STRB     r4,[r0,#6]
                  |L8.380|
;;;340    		}
;;;341    		
;;;342    	port1Readings[7] = port1Readings[7] & 0x1F;
00017c  79ee              LDRB     r6,[r5,#7]  ; port1Readings
00017e  06f6              LSLS     r6,r6,#27
000180  0ef6              LSRS     r6,r6,#27
000182  71ee              STRB     r6,[r5,#7]
;;;343    	if(port1Readings[7] == 0x1F)
000184  79ee              LDRB     r6,[r5,#7]  ; port1Readings
000186  2e1f              CMP      r6,#0x1f
000188  d009              BEQ      |L8.414|
;;;344    		port1States[7] = 1;
;;;345    	else if(port1Readings[7] == 0x00)
00018a  79e9              LDRB     r1,[r5,#7]  ; port1Readings
00018c  2900              CMP      r1,#0
00018e  d008              BEQ      |L8.418|
;;;346    		port1States[7] = 0;
;;;347    	else
;;;348    		{
;;;349    			port1States[7] = port1States[7] + 1;
000190  79c1              LDRB     r1,[r0,#7]  ; port1States
000192  1c49              ADDS     r1,r1,#1
000194  71c1              STRB     r1,[r0,#7]
;;;350    			if(port1States[7] == 1)
000196  79c1              LDRB     r1,[r0,#7]  ; port1States
000198  2901              CMP      r1,#1
00019a  d004              BEQ      |L8.422|
00019c  e004              B        |L8.424|
                  |L8.414|
00019e  71c1              STRB     r1,[r0,#7]            ;344
;;;351    				port1States[7] = 2;
;;;352    			if(port1States[7] == 7)
;;;353    				port1States[7] = 6;
;;;354    		}
;;;355    }
0001a0  bd70              POP      {r4-r6,pc}
                  |L8.418|
0001a2  71c2              STRB     r2,[r0,#7]            ;346
                  |L8.420|
0001a4  bd70              POP      {r4-r6,pc}
                  |L8.422|
0001a6  71c3              STRB     r3,[r0,#7]            ;351
                  |L8.424|
0001a8  79c1              LDRB     r1,[r0,#7]            ;352  ; port1States
0001aa  2907              CMP      r1,#7                 ;352
0001ac  d1fa              BNE      |L8.420|
0001ae  71c4              STRB     r4,[r0,#7]            ;353
0001b0  bd70              POP      {r4-r6,pc}
;;;356    
                          ENDP

0001b2  0000              DCW      0x0000
                  |L8.436|
                          DCD      ||.data||+0x28

                          AREA ||i.changePort2||, CODE, READONLY, ALIGN=2

                  changePort2 PROC
;;;760    
;;;761    void changePort2()
000000  b510              PUSH     {r4,lr}
;;;762    {
;;;763    	if(port2States[0] == 1)
000002  4b45              LDR      r3,|L9.280|
000004  781c              LDRB     r4,[r3,#0]  ; port2States
;;;764    		P20 = 1;
000006  2101              MOVS     r1,#1
000008  2200              MOVS     r2,#0
00000a  4844              LDR      r0,|L9.284|
00000c  2c01              CMP      r4,#1                 ;763
00000e  d006              BEQ      |L9.30|
;;;765    	else if(port2States[0] == 0)
000010  781c              LDRB     r4,[r3,#0]  ; port2States
000012  2c00              CMP      r4,#0
000014  d005              BEQ      |L9.34|
;;;766    		P20 = 0;
;;;767    	else if(port2States[0] == 6)
000016  781c              LDRB     r4,[r3,#0]  ; port2States
000018  2c06              CMP      r4,#6
00001a  d004              BEQ      |L9.38|
00001c  e006              B        |L9.44|
                  |L9.30|
00001e  6001              STR      r1,[r0,#0]            ;764
000020  e004              B        |L9.44|
                  |L9.34|
000022  6002              STR      r2,[r0,#0]            ;766
000024  e002              B        |L9.44|
                  |L9.38|
;;;768    		P20 = ~(P20);
000026  6804              LDR      r4,[r0,#0]
000028  43e4              MVNS     r4,r4
00002a  6004              STR      r4,[r0,#0]
                  |L9.44|
;;;769    	
;;;770    	if(port2States[1] == 1)
00002c  785c              LDRB     r4,[r3,#1]  ; port2States
00002e  2c01              CMP      r4,#1
000030  d006              BEQ      |L9.64|
;;;771    		P21 = 1;
;;;772    	else if(port2States[1] == 0)
000032  785c              LDRB     r4,[r3,#1]  ; port2States
000034  2c00              CMP      r4,#0
000036  d005              BEQ      |L9.68|
;;;773    		P21 = 0;
;;;774    	else if(port2States[1] == 6)
000038  785c              LDRB     r4,[r3,#1]  ; port2States
00003a  2c06              CMP      r4,#6
00003c  d004              BEQ      |L9.72|
00003e  e006              B        |L9.78|
                  |L9.64|
000040  6041              STR      r1,[r0,#4]            ;771
000042  e004              B        |L9.78|
                  |L9.68|
000044  6042              STR      r2,[r0,#4]            ;773
000046  e002              B        |L9.78|
                  |L9.72|
;;;775    		P21 = ~(P21);
000048  6844              LDR      r4,[r0,#4]
00004a  43e4              MVNS     r4,r4
00004c  6044              STR      r4,[r0,#4]
                  |L9.78|
;;;776    	
;;;777    	if(port2States[2] == 1)
00004e  789c              LDRB     r4,[r3,#2]  ; port2States
000050  2c01              CMP      r4,#1
000052  d006              BEQ      |L9.98|
;;;778    		P22 = 1;
;;;779    	else if(port2States[2] == 0)
000054  789c              LDRB     r4,[r3,#2]  ; port2States
000056  2c00              CMP      r4,#0
000058  d005              BEQ      |L9.102|
;;;780    		P22 = 0;
;;;781    	else if(port2States[2] == 6)
00005a  789c              LDRB     r4,[r3,#2]  ; port2States
00005c  2c06              CMP      r4,#6
00005e  d004              BEQ      |L9.106|
000060  e006              B        |L9.112|
                  |L9.98|
000062  6081              STR      r1,[r0,#8]            ;778
000064  e004              B        |L9.112|
                  |L9.102|
000066  6082              STR      r2,[r0,#8]            ;780
000068  e002              B        |L9.112|
                  |L9.106|
;;;782    		P22 = ~(P22);
00006a  6884              LDR      r4,[r0,#8]
00006c  43e4              MVNS     r4,r4
00006e  6084              STR      r4,[r0,#8]
                  |L9.112|
;;;783    	
;;;784    	if(port2States[3] == 1)
000070  78dc              LDRB     r4,[r3,#3]  ; port2States
000072  2c01              CMP      r4,#1
000074  d006              BEQ      |L9.132|
;;;785    		P23 = 1;
;;;786    	else if(port2States[3] == 0)
000076  78dc              LDRB     r4,[r3,#3]  ; port2States
000078  2c00              CMP      r4,#0
00007a  d005              BEQ      |L9.136|
;;;787    		P23 = 0;
;;;788    	else if(port2States[3] == 6)
00007c  78dc              LDRB     r4,[r3,#3]  ; port2States
00007e  2c06              CMP      r4,#6
000080  d004              BEQ      |L9.140|
000082  e006              B        |L9.146|
                  |L9.132|
000084  60c1              STR      r1,[r0,#0xc]          ;785
000086  e004              B        |L9.146|
                  |L9.136|
000088  60c2              STR      r2,[r0,#0xc]          ;787
00008a  e002              B        |L9.146|
                  |L9.140|
;;;789    		P23 = ~(P23);
00008c  68c4              LDR      r4,[r0,#0xc]
00008e  43e4              MVNS     r4,r4
000090  60c4              STR      r4,[r0,#0xc]
                  |L9.146|
;;;790    	
;;;791    	if(port2States[4] == 1)
000092  791c              LDRB     r4,[r3,#4]  ; port2States
000094  2c01              CMP      r4,#1
000096  d006              BEQ      |L9.166|
;;;792    		P24 = 1;
;;;793    	else if(port2States[4] == 0)
000098  791c              LDRB     r4,[r3,#4]  ; port2States
00009a  2c00              CMP      r4,#0
00009c  d005              BEQ      |L9.170|
;;;794    		P24 = 0;
;;;795    	else if(port2States[4] == 6)
00009e  791c              LDRB     r4,[r3,#4]  ; port2States
0000a0  2c06              CMP      r4,#6
0000a2  d004              BEQ      |L9.174|
0000a4  e006              B        |L9.180|
                  |L9.166|
0000a6  6101              STR      r1,[r0,#0x10]         ;792
0000a8  e004              B        |L9.180|
                  |L9.170|
0000aa  6102              STR      r2,[r0,#0x10]         ;794
0000ac  e002              B        |L9.180|
                  |L9.174|
;;;796    		P24 = ~(P24);
0000ae  6904              LDR      r4,[r0,#0x10]
0000b0  43e4              MVNS     r4,r4
0000b2  6104              STR      r4,[r0,#0x10]
                  |L9.180|
;;;797    	
;;;798    	if(port2States[5] == 1)
0000b4  795c              LDRB     r4,[r3,#5]  ; port2States
0000b6  2c01              CMP      r4,#1
0000b8  d006              BEQ      |L9.200|
;;;799    		P25 = 1;
;;;800    	else if(port2States[5] == 0)
0000ba  795c              LDRB     r4,[r3,#5]  ; port2States
0000bc  2c00              CMP      r4,#0
0000be  d005              BEQ      |L9.204|
;;;801    		P25 = 0;
;;;802    	else if(port2States[5] == 6)
0000c0  795c              LDRB     r4,[r3,#5]  ; port2States
0000c2  2c06              CMP      r4,#6
0000c4  d004              BEQ      |L9.208|
0000c6  e006              B        |L9.214|
                  |L9.200|
0000c8  6141              STR      r1,[r0,#0x14]         ;799
0000ca  e004              B        |L9.214|
                  |L9.204|
0000cc  6142              STR      r2,[r0,#0x14]         ;801
0000ce  e002              B        |L9.214|
                  |L9.208|
;;;803    		P25 = ~(P25);
0000d0  6944              LDR      r4,[r0,#0x14]
0000d2  43e4              MVNS     r4,r4
0000d4  6144              STR      r4,[r0,#0x14]
                  |L9.214|
;;;804    	
;;;805    	if(port2States[6] == 1)
0000d6  799c              LDRB     r4,[r3,#6]  ; port2States
0000d8  2c01              CMP      r4,#1
0000da  d006              BEQ      |L9.234|
;;;806    		P26 = 1;
;;;807    	else if(port2States[6] == 0)
0000dc  799c              LDRB     r4,[r3,#6]  ; port2States
0000de  2c00              CMP      r4,#0
0000e0  d005              BEQ      |L9.238|
;;;808    		P26 = 0;
;;;809    	else if(port2States[6] == 6)
0000e2  799c              LDRB     r4,[r3,#6]  ; port2States
0000e4  2c06              CMP      r4,#6
0000e6  d004              BEQ      |L9.242|
0000e8  e006              B        |L9.248|
                  |L9.234|
0000ea  6181              STR      r1,[r0,#0x18]         ;806
0000ec  e004              B        |L9.248|
                  |L9.238|
0000ee  6182              STR      r2,[r0,#0x18]         ;808
0000f0  e002              B        |L9.248|
                  |L9.242|
;;;810    		P26 = ~(P26);
0000f2  6984              LDR      r4,[r0,#0x18]
0000f4  43e4              MVNS     r4,r4
0000f6  6184              STR      r4,[r0,#0x18]
                  |L9.248|
;;;811    	
;;;812    	if(port2States[7] == 1)
0000f8  79dc              LDRB     r4,[r3,#7]  ; port2States
0000fa  2c01              CMP      r4,#1
0000fc  d007              BEQ      |L9.270|
;;;813    		P27 = 1;
;;;814    	else if(port2States[7] == 0)
0000fe  79d9              LDRB     r1,[r3,#7]  ; port2States
000100  2900              CMP      r1,#0
000102  d006              BEQ      |L9.274|
;;;815    		P27 = 0;
;;;816    	else if(port2States[7] == 6)
000104  79d9              LDRB     r1,[r3,#7]  ; port2States
000106  2906              CMP      r1,#6
000108  d102              BNE      |L9.272|
;;;817    		P27 = ~(P27);
00010a  69c1              LDR      r1,[r0,#0x1c]
00010c  43c9              MVNS     r1,r1
                  |L9.270|
00010e  61c1              STR      r1,[r0,#0x1c]         ;813
                  |L9.272|
;;;818    }
000110  bd10              POP      {r4,pc}
                  |L9.274|
000112  61c2              STR      r2,[r0,#0x1c]         ;815
000114  bd10              POP      {r4,pc}
;;;819    
                          ENDP

000116  0000              DCW      0x0000
                  |L9.280|
                          DCD      ||.data||+0x50
                  |L9.284|
                          DCD      0x50004240

                          AREA ||i.changePort2States||, CODE, READONLY, ALIGN=2

                  changePort2States PROC
;;;356    
;;;357    void changePort2States()
000000  b570              PUSH     {r4-r6,lr}
;;;358    {
;;;359    	port2Readings[0] = port2Readings[0] & 0x1F;
000002  4d6c              LDR      r5,|L10.436|
000004  7828              LDRB     r0,[r5,#0]  ; port2Readings
000006  06c0              LSLS     r0,r0,#27
000008  0ec0              LSRS     r0,r0,#27
00000a  7028              STRB     r0,[r5,#0]
;;;360    	if(port2Readings[0] == 0x1F)
00000c  782e              LDRB     r6,[r5,#0]  ; port2Readings
;;;361    		port2States[0] = 1;
00000e  4628              MOV      r0,r5
000010  2101              MOVS     r1,#1
000012  2200              MOVS     r2,#0
;;;362    	else if(port2Readings[0] == 0x00)
;;;363    		port2States[0] = 0;
;;;364    	else
;;;365    		{
;;;366    			port2States[0] = port2States[0] + 1;
;;;367    			if(port2States[0] == 1)
;;;368    				port2States[0] = 2;
000014  2302              MOVS     r3,#2
;;;369    			if(port2States[0] == 7)
;;;370    				port2States[0] = 6;
000016  2406              MOVS     r4,#6
000018  3020              ADDS     r0,r0,#0x20           ;361
00001a  2e1f              CMP      r6,#0x1f              ;360
00001c  d009              BEQ      |L10.50|
00001e  782e              LDRB     r6,[r5,#0]            ;362  ; port2Readings
000020  2e00              CMP      r6,#0                 ;362
000022  d008              BEQ      |L10.54|
000024  7806              LDRB     r6,[r0,#0]            ;366  ; port2States
000026  1c76              ADDS     r6,r6,#1              ;366
000028  7006              STRB     r6,[r0,#0]            ;366
00002a  7806              LDRB     r6,[r0,#0]            ;367  ; port2States
00002c  2e01              CMP      r6,#1                 ;367
00002e  d004              BEQ      |L10.58|
000030  e004              B        |L10.60|
                  |L10.50|
000032  7001              STRB     r1,[r0,#0]            ;361
000034  e006              B        |L10.68|
                  |L10.54|
000036  7002              STRB     r2,[r0,#0]            ;363
000038  e004              B        |L10.68|
                  |L10.58|
00003a  7003              STRB     r3,[r0,#0]            ;368
                  |L10.60|
00003c  7806              LDRB     r6,[r0,#0]            ;369  ; port2States
00003e  2e07              CMP      r6,#7                 ;369
000040  d100              BNE      |L10.68|
000042  7004              STRB     r4,[r0,#0]
                  |L10.68|
;;;371    		}
;;;372    	
;;;373    	port2Readings[1] = port2Readings[1] & 0x1F;
000044  786e              LDRB     r6,[r5,#1]  ; port2Readings
000046  06f6              LSLS     r6,r6,#27
000048  0ef6              LSRS     r6,r6,#27
00004a  706e              STRB     r6,[r5,#1]
;;;374    	if(port2Readings[1] == 0x1F)
00004c  786e              LDRB     r6,[r5,#1]  ; port2Readings
00004e  2e1f              CMP      r6,#0x1f
000050  d009              BEQ      |L10.102|
;;;375    		port2States[1] = 1;
;;;376    	else if(port2Readings[1] == 0x00)
000052  786e              LDRB     r6,[r5,#1]  ; port2Readings
000054  2e00              CMP      r6,#0
000056  d008              BEQ      |L10.106|
;;;377    		port2States[1] = 0;
;;;378    	else
;;;379    		{
;;;380    			port2States[1] = port2States[1] + 1;
000058  7846              LDRB     r6,[r0,#1]  ; port2States
00005a  1c76              ADDS     r6,r6,#1
00005c  7046              STRB     r6,[r0,#1]
;;;381    			if(port2States[1] == 1)
00005e  7846              LDRB     r6,[r0,#1]  ; port2States
000060  2e01              CMP      r6,#1
000062  d004              BEQ      |L10.110|
000064  e004              B        |L10.112|
                  |L10.102|
000066  7041              STRB     r1,[r0,#1]            ;375
000068  e006              B        |L10.120|
                  |L10.106|
00006a  7042              STRB     r2,[r0,#1]            ;377
00006c  e004              B        |L10.120|
                  |L10.110|
;;;382    				port2States[1] = 2;
00006e  7043              STRB     r3,[r0,#1]
                  |L10.112|
;;;383    			if(port2States[1] == 7)
000070  7846              LDRB     r6,[r0,#1]  ; port2States
000072  2e07              CMP      r6,#7
000074  d100              BNE      |L10.120|
;;;384    				port2States[1] = 6;
000076  7044              STRB     r4,[r0,#1]
                  |L10.120|
;;;385    		}
;;;386    		
;;;387    	port2Readings[2] = port2Readings[2] & 0x1F;
000078  78ae              LDRB     r6,[r5,#2]  ; port2Readings
00007a  06f6              LSLS     r6,r6,#27
00007c  0ef6              LSRS     r6,r6,#27
00007e  70ae              STRB     r6,[r5,#2]
;;;388    	if(port2Readings[2] == 0x1F)
000080  78ae              LDRB     r6,[r5,#2]  ; port2Readings
000082  2e1f              CMP      r6,#0x1f
000084  d009              BEQ      |L10.154|
;;;389    		port2States[2] = 1;
;;;390    	else if(port2Readings[2] == 0x00)
000086  78ae              LDRB     r6,[r5,#2]  ; port2Readings
000088  2e00              CMP      r6,#0
00008a  d008              BEQ      |L10.158|
;;;391    		port2States[2] = 0;
;;;392    	else
;;;393    		{
;;;394    			port2States[2] = port2States[2] + 1;
00008c  7886              LDRB     r6,[r0,#2]  ; port2States
00008e  1c76              ADDS     r6,r6,#1
000090  7086              STRB     r6,[r0,#2]
;;;395    			if(port2States[2] == 1)
000092  7886              LDRB     r6,[r0,#2]  ; port2States
000094  2e01              CMP      r6,#1
000096  d004              BEQ      |L10.162|
000098  e004              B        |L10.164|
                  |L10.154|
00009a  7081              STRB     r1,[r0,#2]            ;389
00009c  e006              B        |L10.172|
                  |L10.158|
00009e  7082              STRB     r2,[r0,#2]            ;391
0000a0  e004              B        |L10.172|
                  |L10.162|
;;;396    				port2States[2] = 2;
0000a2  7083              STRB     r3,[r0,#2]
                  |L10.164|
;;;397    			if(port2States[2] == 7)
0000a4  7886              LDRB     r6,[r0,#2]  ; port2States
0000a6  2e07              CMP      r6,#7
0000a8  d100              BNE      |L10.172|
;;;398    				port2States[2] = 6;
0000aa  7084              STRB     r4,[r0,#2]
                  |L10.172|
;;;399    		}
;;;400    		
;;;401    	port2Readings[3] = port2Readings[3] & 0x1F;
0000ac  78ee              LDRB     r6,[r5,#3]  ; port2Readings
0000ae  06f6              LSLS     r6,r6,#27
0000b0  0ef6              LSRS     r6,r6,#27
0000b2  70ee              STRB     r6,[r5,#3]
;;;402    	if(port2Readings[3] == 0x1F)
0000b4  78ee              LDRB     r6,[r5,#3]  ; port2Readings
0000b6  2e1f              CMP      r6,#0x1f
0000b8  d009              BEQ      |L10.206|
;;;403    		port2States[3] = 1;
;;;404    	else if(port2Readings[3] == 0x00)
0000ba  78ee              LDRB     r6,[r5,#3]  ; port2Readings
0000bc  2e00              CMP      r6,#0
0000be  d008              BEQ      |L10.210|
;;;405    		port2States[3] = 0;
;;;406    	else
;;;407    		{
;;;408    			port2States[3] = port2States[3] + 1;
0000c0  78c6              LDRB     r6,[r0,#3]  ; port2States
0000c2  1c76              ADDS     r6,r6,#1
0000c4  70c6              STRB     r6,[r0,#3]
;;;409    			if(port2States[3] == 1)
0000c6  78c6              LDRB     r6,[r0,#3]  ; port2States
0000c8  2e01              CMP      r6,#1
0000ca  d004              BEQ      |L10.214|
0000cc  e004              B        |L10.216|
                  |L10.206|
0000ce  70c1              STRB     r1,[r0,#3]            ;403
0000d0  e006              B        |L10.224|
                  |L10.210|
0000d2  70c2              STRB     r2,[r0,#3]            ;405
0000d4  e004              B        |L10.224|
                  |L10.214|
;;;410    				port2States[3] = 2;
0000d6  70c3              STRB     r3,[r0,#3]
                  |L10.216|
;;;411    			if(port2States[3] == 7)
0000d8  78c6              LDRB     r6,[r0,#3]  ; port2States
0000da  2e07              CMP      r6,#7
0000dc  d100              BNE      |L10.224|
;;;412    				port2States[3] = 6;
0000de  70c4              STRB     r4,[r0,#3]
                  |L10.224|
;;;413    		}
;;;414    		
;;;415    	port2Readings[4] = port2Readings[4] & 0x1F;
0000e0  792e              LDRB     r6,[r5,#4]  ; port2Readings
0000e2  06f6              LSLS     r6,r6,#27
0000e4  0ef6              LSRS     r6,r6,#27
0000e6  712e              STRB     r6,[r5,#4]
;;;416    	if(port2Readings[4] == 0x1F)
0000e8  792e              LDRB     r6,[r5,#4]  ; port2Readings
0000ea  2e1f              CMP      r6,#0x1f
0000ec  d009              BEQ      |L10.258|
;;;417    		port2States[4] = 1;
;;;418    	else if(port2Readings[4] == 0x00)
0000ee  792e              LDRB     r6,[r5,#4]  ; port2Readings
0000f0  2e00              CMP      r6,#0
0000f2  d008              BEQ      |L10.262|
;;;419    		port2States[4] = 0;
;;;420    	else
;;;421    		{
;;;422    			port2States[4] = port2States[4] + 1;
0000f4  7906              LDRB     r6,[r0,#4]  ; port2States
0000f6  1c76              ADDS     r6,r6,#1
0000f8  7106              STRB     r6,[r0,#4]
;;;423    			if(port2States[4] == 1)
0000fa  7906              LDRB     r6,[r0,#4]  ; port2States
0000fc  2e01              CMP      r6,#1
0000fe  d004              BEQ      |L10.266|
000100  e004              B        |L10.268|
                  |L10.258|
000102  7101              STRB     r1,[r0,#4]            ;417
000104  e006              B        |L10.276|
                  |L10.262|
000106  7102              STRB     r2,[r0,#4]            ;419
000108  e004              B        |L10.276|
                  |L10.266|
;;;424    				port2States[4] = 2;
00010a  7103              STRB     r3,[r0,#4]
                  |L10.268|
;;;425    			if(port2States[4]== 7)
00010c  7906              LDRB     r6,[r0,#4]  ; port2States
00010e  2e07              CMP      r6,#7
000110  d100              BNE      |L10.276|
;;;426    				port2States[4] = 6;
000112  7104              STRB     r4,[r0,#4]
                  |L10.276|
;;;427    		}
;;;428    		
;;;429    	port2Readings[5] = port2Readings[5] & 0x1F;
000114  796e              LDRB     r6,[r5,#5]  ; port2Readings
000116  06f6              LSLS     r6,r6,#27
000118  0ef6              LSRS     r6,r6,#27
00011a  716e              STRB     r6,[r5,#5]
;;;430    	if(port2Readings[5] == 0x1F)
00011c  796e              LDRB     r6,[r5,#5]  ; port2Readings
00011e  2e1f              CMP      r6,#0x1f
000120  d009              BEQ      |L10.310|
;;;431    		port2States[5] = 1;
;;;432    	else if(port2Readings[5] == 0x00)
000122  796e              LDRB     r6,[r5,#5]  ; port2Readings
000124  2e00              CMP      r6,#0
000126  d008              BEQ      |L10.314|
;;;433    		port2States[5] = 0;
;;;434    	else
;;;435    		{
;;;436    			port2States[5] = port2States[5] + 1;
000128  7946              LDRB     r6,[r0,#5]  ; port2States
00012a  1c76              ADDS     r6,r6,#1
00012c  7146              STRB     r6,[r0,#5]
;;;437    			if(port2States[5] == 1)
00012e  7946              LDRB     r6,[r0,#5]  ; port2States
000130  2e01              CMP      r6,#1
000132  d004              BEQ      |L10.318|
000134  e004              B        |L10.320|
                  |L10.310|
000136  7141              STRB     r1,[r0,#5]            ;431
000138  e006              B        |L10.328|
                  |L10.314|
00013a  7142              STRB     r2,[r0,#5]            ;433
00013c  e004              B        |L10.328|
                  |L10.318|
;;;438    				port2States[5] = 2;
00013e  7143              STRB     r3,[r0,#5]
                  |L10.320|
;;;439    			if(port2States[5] == 7)
000140  7946              LDRB     r6,[r0,#5]  ; port2States
000142  2e07              CMP      r6,#7
000144  d100              BNE      |L10.328|
;;;440    				port2States[5] = 6;
000146  7144              STRB     r4,[r0,#5]
                  |L10.328|
;;;441    		}
;;;442    		
;;;443    	port2Readings[6] = port2Readings[6] & 0x1F;
000148  79ae              LDRB     r6,[r5,#6]  ; port2Readings
00014a  06f6              LSLS     r6,r6,#27
00014c  0ef6              LSRS     r6,r6,#27
00014e  71ae              STRB     r6,[r5,#6]
;;;444    	if(port2Readings[6] == 0x1F)
000150  79ae              LDRB     r6,[r5,#6]  ; port2Readings
000152  2e1f              CMP      r6,#0x1f
000154  d009              BEQ      |L10.362|
;;;445    		port2States[6] = 1;
;;;446    	else if(port2Readings[6] == 0x00)
000156  79ae              LDRB     r6,[r5,#6]  ; port2Readings
000158  2e00              CMP      r6,#0
00015a  d008              BEQ      |L10.366|
;;;447    		port2States[6] = 0;
;;;448    	else
;;;449    		{
;;;450    			port2States[6] = port2States[6] + 1;
00015c  7986              LDRB     r6,[r0,#6]  ; port2States
00015e  1c76              ADDS     r6,r6,#1
000160  7186              STRB     r6,[r0,#6]
;;;451    			if(port2States[6] == 1)
000162  7986              LDRB     r6,[r0,#6]  ; port2States
000164  2e01              CMP      r6,#1
000166  d004              BEQ      |L10.370|
000168  e004              B        |L10.372|
                  |L10.362|
00016a  7181              STRB     r1,[r0,#6]            ;445
00016c  e006              B        |L10.380|
                  |L10.366|
00016e  7182              STRB     r2,[r0,#6]            ;447
000170  e004              B        |L10.380|
                  |L10.370|
;;;452    				port2States[6] = 2;
000172  7183              STRB     r3,[r0,#6]
                  |L10.372|
;;;453    			if(port2States[6] == 7)
000174  7986              LDRB     r6,[r0,#6]  ; port2States
000176  2e07              CMP      r6,#7
000178  d100              BNE      |L10.380|
;;;454    				port2States[6] = 6;
00017a  7184              STRB     r4,[r0,#6]
                  |L10.380|
;;;455    		}
;;;456    		
;;;457    	port2Readings[7] = port2Readings[7] & 0x1F;
00017c  79ee              LDRB     r6,[r5,#7]  ; port2Readings
00017e  06f6              LSLS     r6,r6,#27
000180  0ef6              LSRS     r6,r6,#27
000182  71ee              STRB     r6,[r5,#7]
;;;458    	if(port2Readings[7] == 0x1F)
000184  79ee              LDRB     r6,[r5,#7]  ; port2Readings
000186  2e1f              CMP      r6,#0x1f
000188  d009              BEQ      |L10.414|
;;;459    		port2States[7] = 1;
;;;460    	else if(port2Readings[7] == 0x00)
00018a  79e9              LDRB     r1,[r5,#7]  ; port2Readings
00018c  2900              CMP      r1,#0
00018e  d008              BEQ      |L10.418|
;;;461    		port2States[7] = 0;
;;;462    	else
;;;463    		{
;;;464    			port2States[7] = port2States[7] + 1;
000190  79c1              LDRB     r1,[r0,#7]  ; port2States
000192  1c49              ADDS     r1,r1,#1
000194  71c1              STRB     r1,[r0,#7]
;;;465    			if(port2States[7] == 1)
000196  79c1              LDRB     r1,[r0,#7]  ; port2States
000198  2901              CMP      r1,#1
00019a  d004              BEQ      |L10.422|
00019c  e004              B        |L10.424|
                  |L10.414|
00019e  71c1              STRB     r1,[r0,#7]            ;459
;;;466    				port2States[7] = 2;
;;;467    			if(port2States[7] == 7)
;;;468    				port2States[7] = 6;
;;;469    		}
;;;470    }
0001a0  bd70              POP      {r4-r6,pc}
                  |L10.418|
0001a2  71c2              STRB     r2,[r0,#7]            ;461
                  |L10.420|
0001a4  bd70              POP      {r4-r6,pc}
                  |L10.422|
0001a6  71c3              STRB     r3,[r0,#7]            ;466
                  |L10.424|
0001a8  79c1              LDRB     r1,[r0,#7]            ;467  ; port2States
0001aa  2907              CMP      r1,#7                 ;467
0001ac  d1fa              BNE      |L10.420|
0001ae  71c4              STRB     r4,[r0,#7]            ;468
0001b0  bd70              POP      {r4-r6,pc}
;;;471    
                          ENDP

0001b2  0000              DCW      0x0000
                  |L10.436|
                          DCD      ||.data||+0x30

                          AREA ||i.changePort3||, CODE, READONLY, ALIGN=2

                  changePort3 PROC
;;;819    
;;;820    void changePort3()
000000  b510              PUSH     {r4,lr}
;;;821    {
;;;822    	if(port3States[0] == 1)
000002  4b45              LDR      r3,|L11.280|
000004  781c              LDRB     r4,[r3,#0]  ; port3States
;;;823    		P30 = 1;
000006  2101              MOVS     r1,#1
000008  2200              MOVS     r2,#0
00000a  4844              LDR      r0,|L11.284|
00000c  2c01              CMP      r4,#1                 ;822
00000e  d006              BEQ      |L11.30|
;;;824    	else if(port3States[0] == 0)
000010  781c              LDRB     r4,[r3,#0]  ; port3States
000012  2c00              CMP      r4,#0
000014  d005              BEQ      |L11.34|
;;;825    		P30 = 0;
;;;826    	else if(port3States[0] == 6)
000016  781c              LDRB     r4,[r3,#0]  ; port3States
000018  2c06              CMP      r4,#6
00001a  d004              BEQ      |L11.38|
00001c  e006              B        |L11.44|
                  |L11.30|
00001e  6201              STR      r1,[r0,#0x20]         ;823
000020  e004              B        |L11.44|
                  |L11.34|
000022  6202              STR      r2,[r0,#0x20]         ;825
000024  e002              B        |L11.44|
                  |L11.38|
;;;827    		P30 = ~(P30);
000026  6a04              LDR      r4,[r0,#0x20]
000028  43e4              MVNS     r4,r4
00002a  6204              STR      r4,[r0,#0x20]
                  |L11.44|
;;;828    	
;;;829    	if(port3States[1] == 1)
00002c  785c              LDRB     r4,[r3,#1]  ; port3States
00002e  2c01              CMP      r4,#1
000030  d006              BEQ      |L11.64|
;;;830    		P31 = 1;
;;;831    	else if(port3States[1] == 0)
000032  785c              LDRB     r4,[r3,#1]  ; port3States
000034  2c00              CMP      r4,#0
000036  d005              BEQ      |L11.68|
;;;832    		P31 = 0;
;;;833    	else if(port3States[1] == 6)
000038  785c              LDRB     r4,[r3,#1]  ; port3States
00003a  2c06              CMP      r4,#6
00003c  d004              BEQ      |L11.72|
00003e  e006              B        |L11.78|
                  |L11.64|
000040  6241              STR      r1,[r0,#0x24]         ;830
000042  e004              B        |L11.78|
                  |L11.68|
000044  6242              STR      r2,[r0,#0x24]         ;832
000046  e002              B        |L11.78|
                  |L11.72|
;;;834    		P31 = ~(P31);
000048  6a44              LDR      r4,[r0,#0x24]
00004a  43e4              MVNS     r4,r4
00004c  6244              STR      r4,[r0,#0x24]
                  |L11.78|
;;;835    	
;;;836    	if(port3States[2] == 1)
00004e  789c              LDRB     r4,[r3,#2]  ; port3States
000050  2c01              CMP      r4,#1
000052  d006              BEQ      |L11.98|
;;;837    		P32 = 1;
;;;838    	else if(port3States[2] == 0)
000054  789c              LDRB     r4,[r3,#2]  ; port3States
000056  2c00              CMP      r4,#0
000058  d005              BEQ      |L11.102|
;;;839    		P32 = 0;
;;;840    	else if(port3States[2] == 6)
00005a  789c              LDRB     r4,[r3,#2]  ; port3States
00005c  2c06              CMP      r4,#6
00005e  d004              BEQ      |L11.106|
000060  e006              B        |L11.112|
                  |L11.98|
000062  6281              STR      r1,[r0,#0x28]         ;837
000064  e004              B        |L11.112|
                  |L11.102|
000066  6282              STR      r2,[r0,#0x28]         ;839
000068  e002              B        |L11.112|
                  |L11.106|
;;;841    		P32 = ~(P32);
00006a  6a84              LDR      r4,[r0,#0x28]
00006c  43e4              MVNS     r4,r4
00006e  6284              STR      r4,[r0,#0x28]
                  |L11.112|
;;;842    	
;;;843    	if(port3States[3] == 1)
000070  78dc              LDRB     r4,[r3,#3]  ; port3States
000072  2c01              CMP      r4,#1
000074  d006              BEQ      |L11.132|
;;;844    		P33 = 1;
;;;845    	else if(port3States[3] == 0)
000076  78dc              LDRB     r4,[r3,#3]  ; port3States
000078  2c00              CMP      r4,#0
00007a  d005              BEQ      |L11.136|
;;;846    		P33 = 0;
;;;847    	else if(port3States[3] == 6)
00007c  78dc              LDRB     r4,[r3,#3]  ; port3States
00007e  2c06              CMP      r4,#6
000080  d004              BEQ      |L11.140|
000082  e006              B        |L11.146|
                  |L11.132|
000084  62c1              STR      r1,[r0,#0x2c]         ;844
000086  e004              B        |L11.146|
                  |L11.136|
000088  62c2              STR      r2,[r0,#0x2c]         ;846
00008a  e002              B        |L11.146|
                  |L11.140|
;;;848    		P33 = ~(P33);
00008c  6ac4              LDR      r4,[r0,#0x2c]
00008e  43e4              MVNS     r4,r4
000090  62c4              STR      r4,[r0,#0x2c]
                  |L11.146|
;;;849    	
;;;850    	if(port3States[4] == 1)
000092  791c              LDRB     r4,[r3,#4]  ; port3States
000094  2c01              CMP      r4,#1
000096  d006              BEQ      |L11.166|
;;;851    		P34 = 1;
;;;852    	else if(port3States[4] == 0)
000098  791c              LDRB     r4,[r3,#4]  ; port3States
00009a  2c00              CMP      r4,#0
00009c  d005              BEQ      |L11.170|
;;;853    		P34 = 0;
;;;854    	else if(port3States[4] == 6)
00009e  791c              LDRB     r4,[r3,#4]  ; port3States
0000a0  2c06              CMP      r4,#6
0000a2  d004              BEQ      |L11.174|
0000a4  e006              B        |L11.180|
                  |L11.166|
0000a6  6301              STR      r1,[r0,#0x30]         ;851
0000a8  e004              B        |L11.180|
                  |L11.170|
0000aa  6302              STR      r2,[r0,#0x30]         ;853
0000ac  e002              B        |L11.180|
                  |L11.174|
;;;855    		P34 = ~(P34);
0000ae  6b04              LDR      r4,[r0,#0x30]
0000b0  43e4              MVNS     r4,r4
0000b2  6304              STR      r4,[r0,#0x30]
                  |L11.180|
;;;856    	
;;;857    	if(port3States[5] == 1)
0000b4  795c              LDRB     r4,[r3,#5]  ; port3States
0000b6  2c01              CMP      r4,#1
0000b8  d006              BEQ      |L11.200|
;;;858    		P35 = 1;
;;;859    	else if(port3States[5] == 0)
0000ba  795c              LDRB     r4,[r3,#5]  ; port3States
0000bc  2c00              CMP      r4,#0
0000be  d005              BEQ      |L11.204|
;;;860    		P35 = 0;
;;;861    	else if(port3States[5] == 6)
0000c0  795c              LDRB     r4,[r3,#5]  ; port3States
0000c2  2c06              CMP      r4,#6
0000c4  d004              BEQ      |L11.208|
0000c6  e006              B        |L11.214|
                  |L11.200|
0000c8  6341              STR      r1,[r0,#0x34]         ;858
0000ca  e004              B        |L11.214|
                  |L11.204|
0000cc  6342              STR      r2,[r0,#0x34]         ;860
0000ce  e002              B        |L11.214|
                  |L11.208|
;;;862    		P35 = ~(P35);
0000d0  6b44              LDR      r4,[r0,#0x34]
0000d2  43e4              MVNS     r4,r4
0000d4  6344              STR      r4,[r0,#0x34]
                  |L11.214|
;;;863    	
;;;864    	if(port3States[6] == 1)
0000d6  799c              LDRB     r4,[r3,#6]  ; port3States
0000d8  2c01              CMP      r4,#1
0000da  d006              BEQ      |L11.234|
;;;865    		P36 = 1;
;;;866    	else if(port3States[6] == 0)
0000dc  799c              LDRB     r4,[r3,#6]  ; port3States
0000de  2c00              CMP      r4,#0
0000e0  d005              BEQ      |L11.238|
;;;867    		P36 = 0;
;;;868    	else if(port3States[6] == 6)
0000e2  799c              LDRB     r4,[r3,#6]  ; port3States
0000e4  2c06              CMP      r4,#6
0000e6  d004              BEQ      |L11.242|
0000e8  e006              B        |L11.248|
                  |L11.234|
0000ea  6381              STR      r1,[r0,#0x38]         ;865
0000ec  e004              B        |L11.248|
                  |L11.238|
0000ee  6382              STR      r2,[r0,#0x38]         ;867
0000f0  e002              B        |L11.248|
                  |L11.242|
;;;869    		P36 = ~(P36);
0000f2  6b84              LDR      r4,[r0,#0x38]
0000f4  43e4              MVNS     r4,r4
0000f6  6384              STR      r4,[r0,#0x38]
                  |L11.248|
;;;870    	
;;;871    	if(port3States[7] == 1)
0000f8  79dc              LDRB     r4,[r3,#7]  ; port3States
0000fa  2c01              CMP      r4,#1
0000fc  d007              BEQ      |L11.270|
;;;872    		P37 = 1;
;;;873    	else if(port3States[7] == 0)
0000fe  79d9              LDRB     r1,[r3,#7]  ; port3States
000100  2900              CMP      r1,#0
000102  d006              BEQ      |L11.274|
;;;874    		P37 = 0;
;;;875    	else if(port3States[7] == 6)
000104  79d9              LDRB     r1,[r3,#7]  ; port3States
000106  2906              CMP      r1,#6
000108  d102              BNE      |L11.272|
;;;876    		P37 = ~(P37);
00010a  6bc1              LDR      r1,[r0,#0x3c]
00010c  43c9              MVNS     r1,r1
                  |L11.270|
00010e  63c1              STR      r1,[r0,#0x3c]         ;872
                  |L11.272|
;;;877    }
000110  bd10              POP      {r4,pc}
                  |L11.274|
000112  63c2              STR      r2,[r0,#0x3c]         ;874
000114  bd10              POP      {r4,pc}
;;;878    
                          ENDP

000116  0000              DCW      0x0000
                  |L11.280|
                          DCD      ||.data||+0x58
                  |L11.284|
                          DCD      0x50004240

                          AREA ||i.changePort3States||, CODE, READONLY, ALIGN=2

                  changePort3States PROC
;;;471    
;;;472    void changePort3States()
000000  b570              PUSH     {r4-r6,lr}
;;;473    {
;;;474    	port3Readings[0] = port3Readings[0] & 0x1F;
000002  4d6c              LDR      r5,|L12.436|
000004  7828              LDRB     r0,[r5,#0]  ; port3Readings
000006  06c0              LSLS     r0,r0,#27
000008  0ec0              LSRS     r0,r0,#27
00000a  7028              STRB     r0,[r5,#0]
;;;475    	if(port3Readings[0] == 0x1F)
00000c  782e              LDRB     r6,[r5,#0]  ; port3Readings
;;;476    		port3States[0] = 1;
00000e  4628              MOV      r0,r5
000010  2101              MOVS     r1,#1
000012  2200              MOVS     r2,#0
;;;477    	else if(port3Readings[0] == 0x00)
;;;478    		port3States[0] = 0;
;;;479    	else
;;;480    		{
;;;481    			port3States[0] = port3States[0] + 1;
;;;482    			if(port3States[0] == 1)
;;;483    				port3States[0] = 2;
000014  2302              MOVS     r3,#2
;;;484    			if(port3States[0] == 7)
;;;485    				port3States[0] = 6;
000016  2406              MOVS     r4,#6
000018  3020              ADDS     r0,r0,#0x20           ;476
00001a  2e1f              CMP      r6,#0x1f              ;475
00001c  d009              BEQ      |L12.50|
00001e  782e              LDRB     r6,[r5,#0]            ;477  ; port3Readings
000020  2e00              CMP      r6,#0                 ;477
000022  d008              BEQ      |L12.54|
000024  7806              LDRB     r6,[r0,#0]            ;481  ; port3States
000026  1c76              ADDS     r6,r6,#1              ;481
000028  7006              STRB     r6,[r0,#0]            ;481
00002a  7806              LDRB     r6,[r0,#0]            ;482  ; port3States
00002c  2e01              CMP      r6,#1                 ;482
00002e  d004              BEQ      |L12.58|
000030  e004              B        |L12.60|
                  |L12.50|
000032  7001              STRB     r1,[r0,#0]            ;476
000034  e006              B        |L12.68|
                  |L12.54|
000036  7002              STRB     r2,[r0,#0]            ;478
000038  e004              B        |L12.68|
                  |L12.58|
00003a  7003              STRB     r3,[r0,#0]            ;483
                  |L12.60|
00003c  7806              LDRB     r6,[r0,#0]            ;484  ; port3States
00003e  2e07              CMP      r6,#7                 ;484
000040  d100              BNE      |L12.68|
000042  7004              STRB     r4,[r0,#0]
                  |L12.68|
;;;486    		}
;;;487    	
;;;488    	port3Readings[1] = port3Readings[1] & 0x1F;
000044  786e              LDRB     r6,[r5,#1]  ; port3Readings
000046  06f6              LSLS     r6,r6,#27
000048  0ef6              LSRS     r6,r6,#27
00004a  706e              STRB     r6,[r5,#1]
;;;489    	if(port3Readings[1] == 0x1F)
00004c  786e              LDRB     r6,[r5,#1]  ; port3Readings
00004e  2e1f              CMP      r6,#0x1f
000050  d009              BEQ      |L12.102|
;;;490    		port3States[1] = 1;
;;;491    	else if(port3Readings[1] == 0x00)
000052  786e              LDRB     r6,[r5,#1]  ; port3Readings
000054  2e00              CMP      r6,#0
000056  d008              BEQ      |L12.106|
;;;492    		port3States[1] = 0;
;;;493    	else
;;;494    		{
;;;495    			port3States[1] = port3States[1] + 1;
000058  7846              LDRB     r6,[r0,#1]  ; port3States
00005a  1c76              ADDS     r6,r6,#1
00005c  7046              STRB     r6,[r0,#1]
;;;496    			if(port3States[1] == 1)
00005e  7846              LDRB     r6,[r0,#1]  ; port3States
000060  2e01              CMP      r6,#1
000062  d004              BEQ      |L12.110|
000064  e004              B        |L12.112|
                  |L12.102|
000066  7041              STRB     r1,[r0,#1]            ;490
000068  e006              B        |L12.120|
                  |L12.106|
00006a  7042              STRB     r2,[r0,#1]            ;492
00006c  e004              B        |L12.120|
                  |L12.110|
;;;497    				port3States[1] = 2;
00006e  7043              STRB     r3,[r0,#1]
                  |L12.112|
;;;498    			if(port3States[1] == 7)
000070  7846              LDRB     r6,[r0,#1]  ; port3States
000072  2e07              CMP      r6,#7
000074  d100              BNE      |L12.120|
;;;499    				port3States[1] = 6;
000076  7044              STRB     r4,[r0,#1]
                  |L12.120|
;;;500    		}
;;;501    		
;;;502    	port3Readings[2] = port3Readings[2] & 0x1F;
000078  78ae              LDRB     r6,[r5,#2]  ; port3Readings
00007a  06f6              LSLS     r6,r6,#27
00007c  0ef6              LSRS     r6,r6,#27
00007e  70ae              STRB     r6,[r5,#2]
;;;503    	if(port3Readings[2] == 0x1F)
000080  78ae              LDRB     r6,[r5,#2]  ; port3Readings
000082  2e1f              CMP      r6,#0x1f
000084  d009              BEQ      |L12.154|
;;;504    		port3States[2] = 1;
;;;505    	else if(port3Readings[2] == 0x00)
000086  78ae              LDRB     r6,[r5,#2]  ; port3Readings
000088  2e00              CMP      r6,#0
00008a  d008              BEQ      |L12.158|
;;;506    		port3States[2] = 0;
;;;507    	else
;;;508    		{
;;;509    			port3States[2] = port3States[2] + 1;
00008c  7886              LDRB     r6,[r0,#2]  ; port3States
00008e  1c76              ADDS     r6,r6,#1
000090  7086              STRB     r6,[r0,#2]
;;;510    			if(port3States[2] == 1)
000092  7886              LDRB     r6,[r0,#2]  ; port3States
000094  2e01              CMP      r6,#1
000096  d004              BEQ      |L12.162|
000098  e004              B        |L12.164|
                  |L12.154|
00009a  7081              STRB     r1,[r0,#2]            ;504
00009c  e006              B        |L12.172|
                  |L12.158|
00009e  7082              STRB     r2,[r0,#2]            ;506
0000a0  e004              B        |L12.172|
                  |L12.162|
;;;511    				port3States[2] = 2;
0000a2  7083              STRB     r3,[r0,#2]
                  |L12.164|
;;;512    			if(port3States[2] == 7)
0000a4  7886              LDRB     r6,[r0,#2]  ; port3States
0000a6  2e07              CMP      r6,#7
0000a8  d100              BNE      |L12.172|
;;;513    				port3States[2] = 6;
0000aa  7084              STRB     r4,[r0,#2]
                  |L12.172|
;;;514    		}
;;;515    		
;;;516    	port3Readings[3] = port3Readings[3] & 0x1F;
0000ac  78ee              LDRB     r6,[r5,#3]  ; port3Readings
0000ae  06f6              LSLS     r6,r6,#27
0000b0  0ef6              LSRS     r6,r6,#27
0000b2  70ee              STRB     r6,[r5,#3]
;;;517    	if(port3Readings[3] == 0x1F)
0000b4  78ee              LDRB     r6,[r5,#3]  ; port3Readings
0000b6  2e1f              CMP      r6,#0x1f
0000b8  d009              BEQ      |L12.206|
;;;518    		port3States[3] = 1;
;;;519    	else if(port3Readings[3] == 0x00)
0000ba  78ee              LDRB     r6,[r5,#3]  ; port3Readings
0000bc  2e00              CMP      r6,#0
0000be  d008              BEQ      |L12.210|
;;;520    		port3States[3] = 0;
;;;521    	else
;;;522    		{
;;;523    			port3States[3] = port3States[3] + 1;
0000c0  78c6              LDRB     r6,[r0,#3]  ; port3States
0000c2  1c76              ADDS     r6,r6,#1
0000c4  70c6              STRB     r6,[r0,#3]
;;;524    			if(port3States[3] == 1)
0000c6  78c6              LDRB     r6,[r0,#3]  ; port3States
0000c8  2e01              CMP      r6,#1
0000ca  d004              BEQ      |L12.214|
0000cc  e004              B        |L12.216|
                  |L12.206|
0000ce  70c1              STRB     r1,[r0,#3]            ;518
0000d0  e006              B        |L12.224|
                  |L12.210|
0000d2  70c2              STRB     r2,[r0,#3]            ;520
0000d4  e004              B        |L12.224|
                  |L12.214|
;;;525    				port3States[3] = 2;
0000d6  70c3              STRB     r3,[r0,#3]
                  |L12.216|
;;;526    			if(port3States[3] == 7)
0000d8  78c6              LDRB     r6,[r0,#3]  ; port3States
0000da  2e07              CMP      r6,#7
0000dc  d100              BNE      |L12.224|
;;;527    				port3States[3] = 6;
0000de  70c4              STRB     r4,[r0,#3]
                  |L12.224|
;;;528    		}
;;;529    		
;;;530    	port3Readings[4] = port3Readings[4] & 0x1F;
0000e0  792e              LDRB     r6,[r5,#4]  ; port3Readings
0000e2  06f6              LSLS     r6,r6,#27
0000e4  0ef6              LSRS     r6,r6,#27
0000e6  712e              STRB     r6,[r5,#4]
;;;531    	if(port3Readings[4] == 0x1F)
0000e8  792e              LDRB     r6,[r5,#4]  ; port3Readings
0000ea  2e1f              CMP      r6,#0x1f
0000ec  d009              BEQ      |L12.258|
;;;532    		port3States[4] = 1;
;;;533    	else if(port3Readings[4] == 0x00)
0000ee  792e              LDRB     r6,[r5,#4]  ; port3Readings
0000f0  2e00              CMP      r6,#0
0000f2  d008              BEQ      |L12.262|
;;;534    		port3States[4] = 0;
;;;535    	else
;;;536    		{
;;;537    			port3States[4] = port3States[4] + 1;
0000f4  7906              LDRB     r6,[r0,#4]  ; port3States
0000f6  1c76              ADDS     r6,r6,#1
0000f8  7106              STRB     r6,[r0,#4]
;;;538    			if(port3States[4] == 1)
0000fa  7906              LDRB     r6,[r0,#4]  ; port3States
0000fc  2e01              CMP      r6,#1
0000fe  d004              BEQ      |L12.266|
000100  e004              B        |L12.268|
                  |L12.258|
000102  7101              STRB     r1,[r0,#4]            ;532
000104  e006              B        |L12.276|
                  |L12.262|
000106  7102              STRB     r2,[r0,#4]            ;534
000108  e004              B        |L12.276|
                  |L12.266|
;;;539    				port3States[4] = 2;
00010a  7103              STRB     r3,[r0,#4]
                  |L12.268|
;;;540    			if(port3States[4] == 7)
00010c  7906              LDRB     r6,[r0,#4]  ; port3States
00010e  2e07              CMP      r6,#7
000110  d100              BNE      |L12.276|
;;;541    				port3States[4] = 6;
000112  7104              STRB     r4,[r0,#4]
                  |L12.276|
;;;542    		}
;;;543    		
;;;544    	port3Readings[5] = port3Readings[5] & 0x1F;
000114  796e              LDRB     r6,[r5,#5]  ; port3Readings
000116  06f6              LSLS     r6,r6,#27
000118  0ef6              LSRS     r6,r6,#27
00011a  716e              STRB     r6,[r5,#5]
;;;545    	if(port3Readings[5] == 0x1F)
00011c  796e              LDRB     r6,[r5,#5]  ; port3Readings
00011e  2e1f              CMP      r6,#0x1f
000120  d009              BEQ      |L12.310|
;;;546    		port3States[5] = 1;
;;;547    	else if(port3Readings[5] == 0x00)
000122  796e              LDRB     r6,[r5,#5]  ; port3Readings
000124  2e00              CMP      r6,#0
000126  d008              BEQ      |L12.314|
;;;548    		port3States[5] = 0;
;;;549    	else
;;;550    		{
;;;551    			port3States[5] = port3States[5] + 1;
000128  7946              LDRB     r6,[r0,#5]  ; port3States
00012a  1c76              ADDS     r6,r6,#1
00012c  7146              STRB     r6,[r0,#5]
;;;552    			if(port3States[5] == 1)
00012e  7946              LDRB     r6,[r0,#5]  ; port3States
000130  2e01              CMP      r6,#1
000132  d004              BEQ      |L12.318|
000134  e004              B        |L12.320|
                  |L12.310|
000136  7141              STRB     r1,[r0,#5]            ;546
000138  e006              B        |L12.328|
                  |L12.314|
00013a  7142              STRB     r2,[r0,#5]            ;548
00013c  e004              B        |L12.328|
                  |L12.318|
;;;553    				port3States[5] = 2;
00013e  7143              STRB     r3,[r0,#5]
                  |L12.320|
;;;554    			if(port3States[5] == 7)
000140  7946              LDRB     r6,[r0,#5]  ; port3States
000142  2e07              CMP      r6,#7
000144  d100              BNE      |L12.328|
;;;555    				port3States[5] = 6;
000146  7144              STRB     r4,[r0,#5]
                  |L12.328|
;;;556    		}
;;;557    		
;;;558    	port3Readings[6] = port3Readings[6] & 0x1F;
000148  79ae              LDRB     r6,[r5,#6]  ; port3Readings
00014a  06f6              LSLS     r6,r6,#27
00014c  0ef6              LSRS     r6,r6,#27
00014e  71ae              STRB     r6,[r5,#6]
;;;559    	if(port3Readings[6] == 0x1F)
000150  79ae              LDRB     r6,[r5,#6]  ; port3Readings
000152  2e1f              CMP      r6,#0x1f
000154  d009              BEQ      |L12.362|
;;;560    		port3States[6] = 1;
;;;561    	else if(port3Readings[6] == 0x00)
000156  79ae              LDRB     r6,[r5,#6]  ; port3Readings
000158  2e00              CMP      r6,#0
00015a  d008              BEQ      |L12.366|
;;;562    		port3States[6] = 0;
;;;563    	else
;;;564    		{
;;;565    			port3States[6] = port3States[6] + 1;
00015c  7986              LDRB     r6,[r0,#6]  ; port3States
00015e  1c76              ADDS     r6,r6,#1
000160  7186              STRB     r6,[r0,#6]
;;;566    			if(port3States[6] == 1)
000162  7986              LDRB     r6,[r0,#6]  ; port3States
000164  2e01              CMP      r6,#1
000166  d004              BEQ      |L12.370|
000168  e004              B        |L12.372|
                  |L12.362|
00016a  7181              STRB     r1,[r0,#6]            ;560
00016c  e006              B        |L12.380|
                  |L12.366|
00016e  7182              STRB     r2,[r0,#6]            ;562
000170  e004              B        |L12.380|
                  |L12.370|
;;;567    				port3States[6] = 2;
000172  7183              STRB     r3,[r0,#6]
                  |L12.372|
;;;568    			if(port3States[6] == 7)
000174  7986              LDRB     r6,[r0,#6]  ; port3States
000176  2e07              CMP      r6,#7
000178  d100              BNE      |L12.380|
;;;569    				port3States[6] = 6;
00017a  7184              STRB     r4,[r0,#6]
                  |L12.380|
;;;570    		}
;;;571    		
;;;572    	port3Readings[7] = port3Readings[7] & 0x1F;
00017c  79ee              LDRB     r6,[r5,#7]  ; port3Readings
00017e  06f6              LSLS     r6,r6,#27
000180  0ef6              LSRS     r6,r6,#27
000182  71ee              STRB     r6,[r5,#7]
;;;573    	if(port3Readings[7] == 0x1F)
000184  79ee              LDRB     r6,[r5,#7]  ; port3Readings
000186  2e1f              CMP      r6,#0x1f
000188  d009              BEQ      |L12.414|
;;;574    		port3States[7] = 1;
;;;575    	else if(port3Readings[7] == 0x00)
00018a  79e9              LDRB     r1,[r5,#7]  ; port3Readings
00018c  2900              CMP      r1,#0
00018e  d008              BEQ      |L12.418|
;;;576    		port3States[7] = 0;
;;;577    	else
;;;578    		{
;;;579    			port3States[7] = port3States[7] + 1;
000190  79c1              LDRB     r1,[r0,#7]  ; port3States
000192  1c49              ADDS     r1,r1,#1
000194  71c1              STRB     r1,[r0,#7]
;;;580    			if(port3States[7] == 1)
000196  79c1              LDRB     r1,[r0,#7]  ; port3States
000198  2901              CMP      r1,#1
00019a  d004              BEQ      |L12.422|
00019c  e004              B        |L12.424|
                  |L12.414|
00019e  71c1              STRB     r1,[r0,#7]            ;574
;;;581    				port3States[7] = 2;
;;;582    			if(port3States[7] == 7)
;;;583    				port3States[7] = 6;
;;;584    		}
;;;585    }
0001a0  bd70              POP      {r4-r6,pc}
                  |L12.418|
0001a2  71c2              STRB     r2,[r0,#7]            ;576
                  |L12.420|
0001a4  bd70              POP      {r4-r6,pc}
                  |L12.422|
0001a6  71c3              STRB     r3,[r0,#7]            ;581
                  |L12.424|
0001a8  79c1              LDRB     r1,[r0,#7]            ;582  ; port3States
0001aa  2907              CMP      r1,#7                 ;582
0001ac  d1fa              BNE      |L12.420|
0001ae  71c4              STRB     r4,[r0,#7]            ;583
0001b0  bd70              POP      {r4-r6,pc}
;;;586    
                          ENDP

0001b2  0000              DCW      0x0000
                  |L12.436|
                          DCD      ||.data||+0x38

                          AREA ||i.changePort4||, CODE, READONLY, ALIGN=2

                  changePort4 PROC
;;;878    
;;;879    void changePort4()
000000  b510              PUSH     {r4,lr}
;;;880    {
;;;881    	if(port4States[0] == 1)
000002  4b45              LDR      r3,|L13.280|
000004  781c              LDRB     r4,[r3,#0]  ; port4States
;;;882    		P40 = 1;
000006  2101              MOVS     r1,#1
000008  2200              MOVS     r2,#0
00000a  4844              LDR      r0,|L13.284|
00000c  2c01              CMP      r4,#1                 ;881
00000e  d006              BEQ      |L13.30|
;;;883    	else if(port4States[0] == 0)
000010  781c              LDRB     r4,[r3,#0]  ; port4States
000012  2c00              CMP      r4,#0
000014  d005              BEQ      |L13.34|
;;;884    		P40 = 0;
;;;885    	else if(port4States[0] == 6)
000016  781c              LDRB     r4,[r3,#0]  ; port4States
000018  2c06              CMP      r4,#6
00001a  d004              BEQ      |L13.38|
00001c  e006              B        |L13.44|
                  |L13.30|
00001e  6001              STR      r1,[r0,#0]            ;882
000020  e004              B        |L13.44|
                  |L13.34|
000022  6002              STR      r2,[r0,#0]            ;884
000024  e002              B        |L13.44|
                  |L13.38|
;;;886    		P40 = ~(P40);
000026  6804              LDR      r4,[r0,#0]
000028  43e4              MVNS     r4,r4
00002a  6004              STR      r4,[r0,#0]
                  |L13.44|
;;;887    	
;;;888    	if(port4States[1] == 1)
00002c  785c              LDRB     r4,[r3,#1]  ; port4States
00002e  2c01              CMP      r4,#1
000030  d006              BEQ      |L13.64|
;;;889    		P41 = 1;
;;;890    	else if(port4States[1] == 0)
000032  785c              LDRB     r4,[r3,#1]  ; port4States
000034  2c00              CMP      r4,#0
000036  d005              BEQ      |L13.68|
;;;891    		P41 = 0;
;;;892    	else if(port4States[1] == 6)
000038  785c              LDRB     r4,[r3,#1]  ; port4States
00003a  2c06              CMP      r4,#6
00003c  d004              BEQ      |L13.72|
00003e  e006              B        |L13.78|
                  |L13.64|
000040  6041              STR      r1,[r0,#4]            ;889
000042  e004              B        |L13.78|
                  |L13.68|
000044  6042              STR      r2,[r0,#4]            ;891
000046  e002              B        |L13.78|
                  |L13.72|
;;;893    		P41 = ~(P41);
000048  6844              LDR      r4,[r0,#4]
00004a  43e4              MVNS     r4,r4
00004c  6044              STR      r4,[r0,#4]
                  |L13.78|
;;;894    	
;;;895    	if(port4States[2] == 1)
00004e  789c              LDRB     r4,[r3,#2]  ; port4States
000050  2c01              CMP      r4,#1
000052  d006              BEQ      |L13.98|
;;;896    		P42 = 1;
;;;897    	else if(port4States[2] == 0)
000054  789c              LDRB     r4,[r3,#2]  ; port4States
000056  2c00              CMP      r4,#0
000058  d005              BEQ      |L13.102|
;;;898    		P42 = 0;
;;;899    	else if(port4States[2] == 6)
00005a  789c              LDRB     r4,[r3,#2]  ; port4States
00005c  2c06              CMP      r4,#6
00005e  d004              BEQ      |L13.106|
000060  e006              B        |L13.112|
                  |L13.98|
000062  6081              STR      r1,[r0,#8]            ;896
000064  e004              B        |L13.112|
                  |L13.102|
000066  6082              STR      r2,[r0,#8]            ;898
000068  e002              B        |L13.112|
                  |L13.106|
;;;900    		P42 = ~(P42);
00006a  6884              LDR      r4,[r0,#8]
00006c  43e4              MVNS     r4,r4
00006e  6084              STR      r4,[r0,#8]
                  |L13.112|
;;;901    	
;;;902    	if(port4States[3] == 1)
000070  78dc              LDRB     r4,[r3,#3]  ; port4States
000072  2c01              CMP      r4,#1
000074  d006              BEQ      |L13.132|
;;;903    		P43 = 1;
;;;904    	else if(port4States[3] == 0)
000076  78dc              LDRB     r4,[r3,#3]  ; port4States
000078  2c00              CMP      r4,#0
00007a  d005              BEQ      |L13.136|
;;;905    		P43 = 0;
;;;906    	else if(port4States[3] == 6)
00007c  78dc              LDRB     r4,[r3,#3]  ; port4States
00007e  2c06              CMP      r4,#6
000080  d004              BEQ      |L13.140|
000082  e006              B        |L13.146|
                  |L13.132|
000084  60c1              STR      r1,[r0,#0xc]          ;903
000086  e004              B        |L13.146|
                  |L13.136|
000088  60c2              STR      r2,[r0,#0xc]          ;905
00008a  e002              B        |L13.146|
                  |L13.140|
;;;907    		P43 = ~(P43);
00008c  68c4              LDR      r4,[r0,#0xc]
00008e  43e4              MVNS     r4,r4
000090  60c4              STR      r4,[r0,#0xc]
                  |L13.146|
;;;908    	
;;;909    	if(port4States[4] == 1)
000092  791c              LDRB     r4,[r3,#4]  ; port4States
000094  2c01              CMP      r4,#1
000096  d006              BEQ      |L13.166|
;;;910    		P44 = 1;
;;;911    	else if(port4States[4] == 0)
000098  791c              LDRB     r4,[r3,#4]  ; port4States
00009a  2c00              CMP      r4,#0
00009c  d005              BEQ      |L13.170|
;;;912    		P44 = 0;
;;;913    	else if(port4States[4] == 6)
00009e  791c              LDRB     r4,[r3,#4]  ; port4States
0000a0  2c06              CMP      r4,#6
0000a2  d004              BEQ      |L13.174|
0000a4  e006              B        |L13.180|
                  |L13.166|
0000a6  6101              STR      r1,[r0,#0x10]         ;910
0000a8  e004              B        |L13.180|
                  |L13.170|
0000aa  6102              STR      r2,[r0,#0x10]         ;912
0000ac  e002              B        |L13.180|
                  |L13.174|
;;;914    		P44 = ~(P44);
0000ae  6904              LDR      r4,[r0,#0x10]
0000b0  43e4              MVNS     r4,r4
0000b2  6104              STR      r4,[r0,#0x10]
                  |L13.180|
;;;915    	
;;;916    	if(port4States[5] == 1)
0000b4  795c              LDRB     r4,[r3,#5]  ; port4States
0000b6  2c01              CMP      r4,#1
0000b8  d006              BEQ      |L13.200|
;;;917    		P45 = 1;
;;;918    	else if(port4States[5] == 0)
0000ba  795c              LDRB     r4,[r3,#5]  ; port4States
0000bc  2c00              CMP      r4,#0
0000be  d005              BEQ      |L13.204|
;;;919    		P45 = 0;
;;;920    	else if(port4States[5] == 6)
0000c0  795c              LDRB     r4,[r3,#5]  ; port4States
0000c2  2c06              CMP      r4,#6
0000c4  d004              BEQ      |L13.208|
0000c6  e006              B        |L13.214|
                  |L13.200|
0000c8  6141              STR      r1,[r0,#0x14]         ;917
0000ca  e004              B        |L13.214|
                  |L13.204|
0000cc  6142              STR      r2,[r0,#0x14]         ;919
0000ce  e002              B        |L13.214|
                  |L13.208|
;;;921    		P45 = ~(P45);
0000d0  6944              LDR      r4,[r0,#0x14]
0000d2  43e4              MVNS     r4,r4
0000d4  6144              STR      r4,[r0,#0x14]
                  |L13.214|
;;;922    	
;;;923    	if(port4States[6] == 1)
0000d6  799c              LDRB     r4,[r3,#6]  ; port4States
0000d8  2c01              CMP      r4,#1
0000da  d006              BEQ      |L13.234|
;;;924    		P46 = 1;
;;;925    	else if(port4States[6] == 0)
0000dc  799c              LDRB     r4,[r3,#6]  ; port4States
0000de  2c00              CMP      r4,#0
0000e0  d005              BEQ      |L13.238|
;;;926    		P46 = 0;
;;;927    	else if(port4States[6] == 6)
0000e2  799c              LDRB     r4,[r3,#6]  ; port4States
0000e4  2c06              CMP      r4,#6
0000e6  d004              BEQ      |L13.242|
0000e8  e006              B        |L13.248|
                  |L13.234|
0000ea  6181              STR      r1,[r0,#0x18]         ;924
0000ec  e004              B        |L13.248|
                  |L13.238|
0000ee  6182              STR      r2,[r0,#0x18]         ;926
0000f0  e002              B        |L13.248|
                  |L13.242|
;;;928    		P46 = ~(P46);
0000f2  6984              LDR      r4,[r0,#0x18]
0000f4  43e4              MVNS     r4,r4
0000f6  6184              STR      r4,[r0,#0x18]
                  |L13.248|
;;;929    	
;;;930    	if(port4States[7] == 1)
0000f8  79dc              LDRB     r4,[r3,#7]  ; port4States
0000fa  2c01              CMP      r4,#1
0000fc  d007              BEQ      |L13.270|
;;;931    		P47 = 1;
;;;932    	else if(port4States[7] == 0)
0000fe  79d9              LDRB     r1,[r3,#7]  ; port4States
000100  2900              CMP      r1,#0
000102  d006              BEQ      |L13.274|
;;;933    		P47 = 0;
;;;934    	else if(port4States[7] == 6)
000104  79d9              LDRB     r1,[r3,#7]  ; port4States
000106  2906              CMP      r1,#6
000108  d102              BNE      |L13.272|
;;;935    		P47 = ~(P47);
00010a  69c1              LDR      r1,[r0,#0x1c]
00010c  43c9              MVNS     r1,r1
                  |L13.270|
00010e  61c1              STR      r1,[r0,#0x1c]         ;931
                  |L13.272|
;;;936    }
000110  bd10              POP      {r4,pc}
                  |L13.274|
000112  61c2              STR      r2,[r0,#0x1c]         ;933
000114  bd10              POP      {r4,pc}
;;;937    
                          ENDP

000116  0000              DCW      0x0000
                  |L13.280|
                          DCD      ||.data||+0x60
                  |L13.284|
                          DCD      0x50004280

                          AREA ||i.changePort4States||, CODE, READONLY, ALIGN=2

                  changePort4States PROC
;;;586    
;;;587    void changePort4States()
000000  b570              PUSH     {r4-r6,lr}
;;;588    {
;;;589    	port4Readings[0] = port4Readings[0] & 0x1F;
000002  4d6c              LDR      r5,|L14.436|
000004  7828              LDRB     r0,[r5,#0]  ; port4Readings
000006  06c0              LSLS     r0,r0,#27
000008  0ec0              LSRS     r0,r0,#27
00000a  7028              STRB     r0,[r5,#0]
;;;590    	if(port4Readings[0] == 0x1F)
00000c  782e              LDRB     r6,[r5,#0]  ; port4Readings
;;;591    		port4States[0] = 1;
00000e  4628              MOV      r0,r5
000010  2101              MOVS     r1,#1
000012  2200              MOVS     r2,#0
;;;592    	else if(port4Readings[0] == 0x00)
;;;593    		port4States[0] = 0;
;;;594    	else
;;;595    		{
;;;596    			port4States[0] = port4States[0] + 1;
;;;597    			if(port4States[0] == 1)
;;;598    				port4States[0] = 2;
000014  2302              MOVS     r3,#2
;;;599    			if(port4States[0] == 7)
;;;600    				port4States[0] = 6;
000016  2406              MOVS     r4,#6
000018  3020              ADDS     r0,r0,#0x20           ;591
00001a  2e1f              CMP      r6,#0x1f              ;590
00001c  d009              BEQ      |L14.50|
00001e  782e              LDRB     r6,[r5,#0]            ;592  ; port4Readings
000020  2e00              CMP      r6,#0                 ;592
000022  d008              BEQ      |L14.54|
000024  7806              LDRB     r6,[r0,#0]            ;596  ; port4States
000026  1c76              ADDS     r6,r6,#1              ;596
000028  7006              STRB     r6,[r0,#0]            ;596
00002a  7806              LDRB     r6,[r0,#0]            ;597  ; port4States
00002c  2e01              CMP      r6,#1                 ;597
00002e  d004              BEQ      |L14.58|
000030  e004              B        |L14.60|
                  |L14.50|
000032  7001              STRB     r1,[r0,#0]            ;591
000034  e006              B        |L14.68|
                  |L14.54|
000036  7002              STRB     r2,[r0,#0]            ;593
000038  e004              B        |L14.68|
                  |L14.58|
00003a  7003              STRB     r3,[r0,#0]            ;598
                  |L14.60|
00003c  7806              LDRB     r6,[r0,#0]            ;599  ; port4States
00003e  2e07              CMP      r6,#7                 ;599
000040  d100              BNE      |L14.68|
000042  7004              STRB     r4,[r0,#0]
                  |L14.68|
;;;601    		}
;;;602    	
;;;603    	port4Readings[1] = port4Readings[1] & 0x1F;
000044  786e              LDRB     r6,[r5,#1]  ; port4Readings
000046  06f6              LSLS     r6,r6,#27
000048  0ef6              LSRS     r6,r6,#27
00004a  706e              STRB     r6,[r5,#1]
;;;604    	if(port4Readings[1] == 0x1F)
00004c  786e              LDRB     r6,[r5,#1]  ; port4Readings
00004e  2e1f              CMP      r6,#0x1f
000050  d009              BEQ      |L14.102|
;;;605    		port4States[1] = 1;
;;;606    	else if(port4Readings[1] == 0x00)
000052  786e              LDRB     r6,[r5,#1]  ; port4Readings
000054  2e00              CMP      r6,#0
000056  d008              BEQ      |L14.106|
;;;607    		port4States[1] = 0;
;;;608    	else
;;;609    		{
;;;610    			port4States[1] = port4States[1] + 1;
000058  7846              LDRB     r6,[r0,#1]  ; port4States
00005a  1c76              ADDS     r6,r6,#1
00005c  7046              STRB     r6,[r0,#1]
;;;611    			if(port4States[1] == 1)
00005e  7846              LDRB     r6,[r0,#1]  ; port4States
000060  2e01              CMP      r6,#1
000062  d004              BEQ      |L14.110|
000064  e004              B        |L14.112|
                  |L14.102|
000066  7041              STRB     r1,[r0,#1]            ;605
000068  e006              B        |L14.120|
                  |L14.106|
00006a  7042              STRB     r2,[r0,#1]            ;607
00006c  e004              B        |L14.120|
                  |L14.110|
;;;612    				port4States[1] = 2;
00006e  7043              STRB     r3,[r0,#1]
                  |L14.112|
;;;613    			if(port4States[1] == 7)
000070  7846              LDRB     r6,[r0,#1]  ; port4States
000072  2e07              CMP      r6,#7
000074  d100              BNE      |L14.120|
;;;614    				port4States[1] = 6;
000076  7044              STRB     r4,[r0,#1]
                  |L14.120|
;;;615    		}
;;;616    		
;;;617    	port4Readings[2] = port4Readings[2] & 0x1F;
000078  78ae              LDRB     r6,[r5,#2]  ; port4Readings
00007a  06f6              LSLS     r6,r6,#27
00007c  0ef6              LSRS     r6,r6,#27
00007e  70ae              STRB     r6,[r5,#2]
;;;618    	if(port4Readings[2] == 0x1F)
000080  78ae              LDRB     r6,[r5,#2]  ; port4Readings
000082  2e1f              CMP      r6,#0x1f
000084  d009              BEQ      |L14.154|
;;;619    		port4States[2] = 1;
;;;620    	else if(port4Readings[2] == 0x00)
000086  78ae              LDRB     r6,[r5,#2]  ; port4Readings
000088  2e00              CMP      r6,#0
00008a  d008              BEQ      |L14.158|
;;;621    		port4States[2] = 0;
;;;622    	else
;;;623    		{
;;;624    			port4States[2] = port4States[2] + 1;
00008c  7886              LDRB     r6,[r0,#2]  ; port4States
00008e  1c76              ADDS     r6,r6,#1
000090  7086              STRB     r6,[r0,#2]
;;;625    			if(port4States[2] == 1)
000092  7886              LDRB     r6,[r0,#2]  ; port4States
000094  2e01              CMP      r6,#1
000096  d004              BEQ      |L14.162|
000098  e004              B        |L14.164|
                  |L14.154|
00009a  7081              STRB     r1,[r0,#2]            ;619
00009c  e006              B        |L14.172|
                  |L14.158|
00009e  7082              STRB     r2,[r0,#2]            ;621
0000a0  e004              B        |L14.172|
                  |L14.162|
;;;626    				port4States[2] = 2;
0000a2  7083              STRB     r3,[r0,#2]
                  |L14.164|
;;;627    			if(port4States[2] == 7)
0000a4  7886              LDRB     r6,[r0,#2]  ; port4States
0000a6  2e07              CMP      r6,#7
0000a8  d100              BNE      |L14.172|
;;;628    				port4States[2] = 6;
0000aa  7084              STRB     r4,[r0,#2]
                  |L14.172|
;;;629    		}
;;;630    		
;;;631    	port4Readings[3] = port4Readings[3] & 0x1F;
0000ac  78ee              LDRB     r6,[r5,#3]  ; port4Readings
0000ae  06f6              LSLS     r6,r6,#27
0000b0  0ef6              LSRS     r6,r6,#27
0000b2  70ee              STRB     r6,[r5,#3]
;;;632    	if(port4Readings[3] == 0x1F)
0000b4  78ee              LDRB     r6,[r5,#3]  ; port4Readings
0000b6  2e1f              CMP      r6,#0x1f
0000b8  d009              BEQ      |L14.206|
;;;633    		port4States[3] = 1;
;;;634    	else if(port4Readings[3] == 0x00)
0000ba  78ee              LDRB     r6,[r5,#3]  ; port4Readings
0000bc  2e00              CMP      r6,#0
0000be  d008              BEQ      |L14.210|
;;;635    		port4States[3] = 0;
;;;636    	else
;;;637    		{
;;;638    			port4States[3] = port4States[3] + 1;
0000c0  78c6              LDRB     r6,[r0,#3]  ; port4States
0000c2  1c76              ADDS     r6,r6,#1
0000c4  70c6              STRB     r6,[r0,#3]
;;;639    			if(port4States[3] == 1)
0000c6  78c6              LDRB     r6,[r0,#3]  ; port4States
0000c8  2e01              CMP      r6,#1
0000ca  d004              BEQ      |L14.214|
0000cc  e004              B        |L14.216|
                  |L14.206|
0000ce  70c1              STRB     r1,[r0,#3]            ;633
0000d0  e006              B        |L14.224|
                  |L14.210|
0000d2  70c2              STRB     r2,[r0,#3]            ;635
0000d4  e004              B        |L14.224|
                  |L14.214|
;;;640    				port4States[3] = 2;
0000d6  70c3              STRB     r3,[r0,#3]
                  |L14.216|
;;;641    			if(port4States[3] == 7)
0000d8  78c6              LDRB     r6,[r0,#3]  ; port4States
0000da  2e07              CMP      r6,#7
0000dc  d100              BNE      |L14.224|
;;;642    				port4States[3] = 6;
0000de  70c4              STRB     r4,[r0,#3]
                  |L14.224|
;;;643    		}
;;;644    		
;;;645    	port4Readings[4] = port4Readings[4] & 0x1F;
0000e0  792e              LDRB     r6,[r5,#4]  ; port4Readings
0000e2  06f6              LSLS     r6,r6,#27
0000e4  0ef6              LSRS     r6,r6,#27
0000e6  712e              STRB     r6,[r5,#4]
;;;646    	if(port4Readings[4] == 0x1F)
0000e8  792e              LDRB     r6,[r5,#4]  ; port4Readings
0000ea  2e1f              CMP      r6,#0x1f
0000ec  d009              BEQ      |L14.258|
;;;647    		port4States[4] = 1;
;;;648    	else if(port4Readings[4] == 0x00)
0000ee  792e              LDRB     r6,[r5,#4]  ; port4Readings
0000f0  2e00              CMP      r6,#0
0000f2  d008              BEQ      |L14.262|
;;;649    		port4States[4] = 0;
;;;650    	else
;;;651    		{
;;;652    			port4States[4] = port4States[4] + 1;
0000f4  7906              LDRB     r6,[r0,#4]  ; port4States
0000f6  1c76              ADDS     r6,r6,#1
0000f8  7106              STRB     r6,[r0,#4]
;;;653    			if(port4States[4] == 1)
0000fa  7906              LDRB     r6,[r0,#4]  ; port4States
0000fc  2e01              CMP      r6,#1
0000fe  d004              BEQ      |L14.266|
000100  e004              B        |L14.268|
                  |L14.258|
000102  7101              STRB     r1,[r0,#4]            ;647
000104  e006              B        |L14.276|
                  |L14.262|
000106  7102              STRB     r2,[r0,#4]            ;649
000108  e004              B        |L14.276|
                  |L14.266|
;;;654    				port4States[4] = 2;
00010a  7103              STRB     r3,[r0,#4]
                  |L14.268|
;;;655    			if(port4States[4] == 7)
00010c  7906              LDRB     r6,[r0,#4]  ; port4States
00010e  2e07              CMP      r6,#7
000110  d100              BNE      |L14.276|
;;;656    				port4States[4] = 6;
000112  7104              STRB     r4,[r0,#4]
                  |L14.276|
;;;657    		}
;;;658    		
;;;659    	port4Readings[5] = port4Readings[5] & 0x1F;
000114  796e              LDRB     r6,[r5,#5]  ; port4Readings
000116  06f6              LSLS     r6,r6,#27
000118  0ef6              LSRS     r6,r6,#27
00011a  716e              STRB     r6,[r5,#5]
;;;660    	if(port4Readings[5] == 0x1F)
00011c  796e              LDRB     r6,[r5,#5]  ; port4Readings
00011e  2e1f              CMP      r6,#0x1f
000120  d009              BEQ      |L14.310|
;;;661    		port4States[5] = 1;
;;;662    	else if(port4Readings[5] == 0x00)
000122  796e              LDRB     r6,[r5,#5]  ; port4Readings
000124  2e00              CMP      r6,#0
000126  d008              BEQ      |L14.314|
;;;663    		port4States[5] = 0;
;;;664    	else
;;;665    		{
;;;666    			port4States[5] = port4States[5] + 1;
000128  7946              LDRB     r6,[r0,#5]  ; port4States
00012a  1c76              ADDS     r6,r6,#1
00012c  7146              STRB     r6,[r0,#5]
;;;667    			if(port4States[5] == 1)
00012e  7946              LDRB     r6,[r0,#5]  ; port4States
000130  2e01              CMP      r6,#1
000132  d004              BEQ      |L14.318|
000134  e004              B        |L14.320|
                  |L14.310|
000136  7141              STRB     r1,[r0,#5]            ;661
000138  e006              B        |L14.328|
                  |L14.314|
00013a  7142              STRB     r2,[r0,#5]            ;663
00013c  e004              B        |L14.328|
                  |L14.318|
;;;668    				port4States[5] = 2;
00013e  7143              STRB     r3,[r0,#5]
                  |L14.320|
;;;669    			if(port4States[5] == 7)
000140  7946              LDRB     r6,[r0,#5]  ; port4States
000142  2e07              CMP      r6,#7
000144  d100              BNE      |L14.328|
;;;670    				port4States[5] = 6;
000146  7144              STRB     r4,[r0,#5]
                  |L14.328|
;;;671    		}
;;;672    		
;;;673    	port4Readings[6] = port4Readings[6] & 0x1F;
000148  79ae              LDRB     r6,[r5,#6]  ; port4Readings
00014a  06f6              LSLS     r6,r6,#27
00014c  0ef6              LSRS     r6,r6,#27
00014e  71ae              STRB     r6,[r5,#6]
;;;674    	if(port4Readings[6] == 0x1F)
000150  79ae              LDRB     r6,[r5,#6]  ; port4Readings
000152  2e1f              CMP      r6,#0x1f
000154  d009              BEQ      |L14.362|
;;;675    		port4States[6] = 1;
;;;676    	else if(port4Readings[6] == 0x00)
000156  79ae              LDRB     r6,[r5,#6]  ; port4Readings
000158  2e00              CMP      r6,#0
00015a  d008              BEQ      |L14.366|
;;;677    		port4States[6] = 0;
;;;678    	else
;;;679    		{
;;;680    			port4States[6] = port4States[6] + 1;
00015c  7986              LDRB     r6,[r0,#6]  ; port4States
00015e  1c76              ADDS     r6,r6,#1
000160  7186              STRB     r6,[r0,#6]
;;;681    			if(port4States[6] == 1)
000162  7986              LDRB     r6,[r0,#6]  ; port4States
000164  2e01              CMP      r6,#1
000166  d004              BEQ      |L14.370|
000168  e004              B        |L14.372|
                  |L14.362|
00016a  7181              STRB     r1,[r0,#6]            ;675
00016c  e006              B        |L14.380|
                  |L14.366|
00016e  7182              STRB     r2,[r0,#6]            ;677
000170  e004              B        |L14.380|
                  |L14.370|
;;;682    				port4States[6] = 2;
000172  7183              STRB     r3,[r0,#6]
                  |L14.372|
;;;683    			if(port4States[6] == 7)
000174  7986              LDRB     r6,[r0,#6]  ; port4States
000176  2e07              CMP      r6,#7
000178  d100              BNE      |L14.380|
;;;684    				port4States[6] = 6;
00017a  7184              STRB     r4,[r0,#6]
                  |L14.380|
;;;685    		}
;;;686    		
;;;687    	port4Readings[7] = port4Readings[7] & 0x1F;
00017c  79ee              LDRB     r6,[r5,#7]  ; port4Readings
00017e  06f6              LSLS     r6,r6,#27
000180  0ef6              LSRS     r6,r6,#27
000182  71ee              STRB     r6,[r5,#7]
;;;688    	if(port4Readings[7] == 0x1F)
000184  79ee              LDRB     r6,[r5,#7]  ; port4Readings
000186  2e1f              CMP      r6,#0x1f
000188  d009              BEQ      |L14.414|
;;;689    		port4States[7] = 1;
;;;690    	else if(port4Readings[7] == 0x00)
00018a  79e9              LDRB     r1,[r5,#7]  ; port4Readings
00018c  2900              CMP      r1,#0
00018e  d008              BEQ      |L14.418|
;;;691    		port4States[7] = 0;
;;;692    	else
;;;693    		{
;;;694    			port4States[7] = port4States[7] + 1;
000190  79c1              LDRB     r1,[r0,#7]  ; port4States
000192  1c49              ADDS     r1,r1,#1
000194  71c1              STRB     r1,[r0,#7]
;;;695    			if(port4States[7] == 1)
000196  79c1              LDRB     r1,[r0,#7]  ; port4States
000198  2901              CMP      r1,#1
00019a  d004              BEQ      |L14.422|
00019c  e004              B        |L14.424|
                  |L14.414|
00019e  71c1              STRB     r1,[r0,#7]            ;689
;;;696    				port4States[7] = 2;
;;;697    			if(port4States[7] == 7)
;;;698    				port4States[7] = 6;
;;;699    		}
;;;700    }
0001a0  bd70              POP      {r4-r6,pc}
                  |L14.418|
0001a2  71c2              STRB     r2,[r0,#7]            ;691
                  |L14.420|
0001a4  bd70              POP      {r4-r6,pc}
                  |L14.422|
0001a6  71c3              STRB     r3,[r0,#7]            ;696
                  |L14.424|
0001a8  79c1              LDRB     r1,[r0,#7]            ;697  ; port4States
0001aa  2907              CMP      r1,#7                 ;697
0001ac  d1fa              BNE      |L14.420|
0001ae  71c4              STRB     r4,[r0,#7]            ;698
0001b0  bd70              POP      {r4-r6,pc}
;;;701    
                          ENDP

0001b2  0000              DCW      0x0000
                  |L14.436|
                          DCD      ||.data||+0x40

                          AREA ||i.delay||, CODE, READONLY, ALIGN=2

                  delay PROC
;;;64     
;;;65     void delay(uint32_t count)
000000  4904              LDR      r1,|L15.20|
;;;66     {
;;;67     	for(i = 0; i < count; i++);
000002  2200              MOVS     r2,#0
                  |L15.4|
000004  624a              STR      r2,[r1,#0x24]  ; i
000006  6a4a              LDR      r2,[r1,#0x24]  ; i
000008  4282              CMP      r2,r0
00000a  d202              BCS      |L15.18|
00000c  6a4a              LDR      r2,[r1,#0x24]  ; i
00000e  1c52              ADDS     r2,r2,#1
000010  e7f8              B        |L15.4|
                  |L15.18|
;;;68     }
000012  4770              BX       lr
;;;69     
                          ENDP

                  |L15.20|
                          DCD      ||.data||

                          AREA ||i.main||, CODE, READONLY, ALIGN=2

                  main PROC
;;;1169   /*---------------------------------------------------------------------------------------------------------*/
;;;1170   int main(void)
000000  2059              MOVS     r0,#0x59
000002  2116              MOVS     r1,#0x16
000004  4c32              LDR      r4,|L16.208|
000006  2288              MOVS     r2,#0x88
000008  e002              B        |L16.16|
                  |L16.10|
00000a  6020              STR      r0,[r4,#0]
00000c  6021              STR      r1,[r4,#0]
00000e  6022              STR      r2,[r4,#0]
                  |L16.16|
000010  6823              LDR      r3,[r4,#0]
000012  2b01              CMP      r3,#1
000014  d1f9              BNE      |L16.10|
;;;1171   	{
;;;1172   			/* Unlock protected registers */
;;;1173   			SYS_UnlockReg();
;;;1174   
;;;1175   			/* Init System, peripheral clock and multi-function I/O */
;;;1176   			SYS_Init();
000016  f7fffffe          BL       SYS_Init
00001a  2600              MOVS     r6,#0
00001c  6026              STR      r6,[r4,#0]
;;;1177   
;;;1178   			/* Lock protected registers */
;;;1179   			SYS_LockReg();
;;;1180   		
;;;1181   			/* Init UART0 for printf */
;;;1182   			UART0_Init();	
00001e  f7fffffe          BL       UART0_Init
;;;1183   			
;;;1184   			/* Open Timer0 frequency to 4 Hz in periodic mode, and enable interrupt */
;;;1185   			TIMER_Open(TIMER0, TIMER_PERIODIC_MODE, 4);
000022  4c2c              LDR      r4,|L16.212|
000024  2204              MOVS     r2,#4
000026  0651              LSLS     r1,r2,#25
000028  4620              MOV      r0,r4
00002a  f7fffffe          BL       TIMER_Open
00002e  6820              LDR      r0,[r4,#0]
000030  0361              LSLS     r1,r4,#13
000032  4308              ORRS     r0,r0,r1
000034  6020              STR      r0,[r4,#0]
000036  4d28              LDR      r5,|L16.216|
000038  1548              ASRS     r0,r1,#21
00003a  6028              STR      r0,[r5,#0]
00003c  6820              LDR      r0,[r4,#0]
00003e  0049              LSLS     r1,r1,#1
000040  4308              ORRS     r0,r0,r1
000042  6020              STR      r0,[r4,#0]
;;;1186   			TIMER_EnableInt(TIMER0);		
;;;1187   			
;;;1188   			/* Enable Timer0 ~ Timer1 NVIC */
;;;1189   			NVIC_EnableIRQ(TMR0_IRQn);
;;;1190   			
;;;1191   			/* Start Timer0 ~ Timer1 counting */
;;;1192   			TIMER_Start(TIMER0);
;;;1193   			
;;;1194   			GPIO_SetMode(P0, BIT0 | BIT1 | BIT4 | BIT5 | BIT6, GPIO_PMD_INPUT);
000044  4c25              LDR      r4,|L16.220|
000046  2200              MOVS     r2,#0
000048  2173              MOVS     r1,#0x73
00004a  4620              MOV      r0,r4
00004c  f7fffffe          BL       GPIO_SetMode
;;;1195   			GPIO_SetMode(P0, BIT7, GPIO_PMD_OUTPUT);
000050  2201              MOVS     r2,#1
000052  2180              MOVS     r1,#0x80
000054  4620              MOV      r0,r4
000056  f7fffffe          BL       GPIO_SetMode
;;;1196   			GPIO_SetMode(P1, BIT0 | BIT1 | BIT2 | BIT3 | BIT4 | BIT5 | BIT6 | BIT7, GPIO_PMD_OUTPUT);
00005a  4820              LDR      r0,|L16.220|
00005c  2201              MOVS     r2,#1
00005e  21ff              MOVS     r1,#0xff
000060  3040              ADDS     r0,r0,#0x40
000062  f7fffffe          BL       GPIO_SetMode
;;;1197   			GPIO_SetMode(P2, BIT0 | BIT1 | BIT2 | BIT3 | BIT4 | BIT5 | BIT6 | BIT7, GPIO_PMD_OUTPUT);
000066  481d              LDR      r0,|L16.220|
000068  2201              MOVS     r2,#1
00006a  21ff              MOVS     r1,#0xff
00006c  3080              ADDS     r0,r0,#0x80
00006e  f7fffffe          BL       GPIO_SetMode
;;;1198   			GPIO_SetMode(P3, BIT0 | BIT1 | BIT2 | BIT3 | BIT4 | BIT5 | BIT6 | BIT7, GPIO_PMD_OUTPUT);
000072  481a              LDR      r0,|L16.220|
000074  2201              MOVS     r2,#1
000076  21ff              MOVS     r1,#0xff
000078  30c0              ADDS     r0,r0,#0xc0
00007a  f7fffffe          BL       GPIO_SetMode
;;;1199   			GPIO_SetMode(P4, BIT0 | BIT1 | BIT2 | BIT3 | BIT4 | BIT5 | BIT6 | BIT7, GPIO_PMD_OUTPUT);
00007e  2201              MOVS     r2,#1
000080  21ff              MOVS     r1,#0xff
000082  4817              LDR      r0,|L16.224|
000084  f7fffffe          BL       GPIO_SetMode
;;;1200   			
;;;1201   			P07 = 0;
000088  4816              LDR      r0,|L16.228|
00008a  61c6              STR      r6,[r0,#0x1c]
;;;1202   			
;;;1203   			GetBoardID();
00008c  f7fffffe          BL       GetBoardID
;;;1204   			
;;;1205   			setPort_4(0x00);
000090  2000              MOVS     r0,#0
000092  f7fffffe          BL       setPort_4
;;;1206   			setPort_2(0x00);
000096  2000              MOVS     r0,#0
000098  f7fffffe          BL       setPort_2
;;;1207   			setPort_3(0x00);
00009c  2000              MOVS     r0,#0
00009e  f7fffffe          BL       setPort_3
;;;1208   			setPort_1(0x00);
0000a2  2000              MOVS     r0,#0
0000a4  f7fffffe          BL       setPort_1
;;;1209   			
;;;1210   			//Variable Initialization
;;;1211   			toatalDataBytesToReceived = 2 * totalRegsToRead;
0000a8  480f              LDR      r0,|L16.232|
0000aa  7801              LDRB     r1,[r0,#0]  ; totalRegsToRead
0000ac  0049              LSLS     r1,r1,#1
0000ae  7041              STRB     r1,[r0,#1]
;;;1212   			responceSize = toatalDataBytesToReceived + 3;
0000b0  7841              LDRB     r1,[r0,#1]  ; toatalDataBytesToReceived
0000b2  1cc9              ADDS     r1,r1,#3
0000b4  7081              STRB     r1,[r0,#2]
;;;1213   			masterCommand[11] = totalRegsToRead;
0000b6  7800              LDRB     r0,[r0,#0]  ; totalRegsToRead
0000b8  490b              LDR      r1,|L16.232|
0000ba  3168              ADDS     r1,r1,#0x68
0000bc  72c8              STRB     r0,[r1,#0xb]
;;;1214   			
;;;1215   			/* Enable Interrupt and install the call back function */
;;;1216   			UART_ENABLE_INT(UART0, (UART_IER_RDA_IEN_Msk | UART_IER_THRE_IEN_Msk | UART_IER_RTO_IEN_Msk));
0000be  480b              LDR      r0,|L16.236|
0000c0  6841              LDR      r1,[r0,#4]
0000c2  2213              MOVS     r2,#0x13
0000c4  4311              ORRS     r1,r1,r2
0000c6  6041              STR      r1,[r0,#4]
0000c8  2001              MOVS     r0,#1
0000ca  0300              LSLS     r0,r0,#12
0000cc  6028              STR      r0,[r5,#0]
                  |L16.206|
;;;1217   			NVIC_EnableIRQ(UART0_IRQn);
;;;1218   			
;;;1219   			while(1)
0000ce  e7fe              B        |L16.206|
;;;1220   				{					
;;;1221   					
;;;1222   				}
;;;1223   	}
;;;1224   
                          ENDP

                  |L16.208|
                          DCD      0x50000100
                  |L16.212|
                          DCD      0x40010000
                  |L16.216|
                          DCD      0xe000e100
                  |L16.220|
                          DCD      0x50004000
                  |L16.224|
                          DCD      0x50004100
                  |L16.228|
                          DCD      0x50004200
                  |L16.232|
                          DCD      ||.data||
                  |L16.236|
                          DCD      0x40050000

                          AREA ||i.setPort_1||, CODE, READONLY, ALIGN=2

                  setPort_1 PROC
;;;69     
;;;70     void setPort_1(char value)
000000  b518              PUSH     {r3,r4,lr}
;;;71     {
;;;72     	volatile char res = value & 0x01;
000002  07c1              LSLS     r1,r0,#31
000004  0fc9              LSRS     r1,r1,#31
000006  466b              MOV      r3,sp
000008  7019              STRB     r1,[r3,#0]
;;;73     	port1Readings[0] = port1Readings[0] << 1;
00000a  4a30              LDR      r2,|L17.204|
00000c  7811              LDRB     r1,[r2,#0]  ; port1Readings
00000e  0049              LSLS     r1,r1,#1
000010  7011              STRB     r1,[r2,#0]
;;;74     	if(res != 0)
000012  781b              LDRB     r3,[r3,#0]
;;;75     		port1Readings[0] = port1Readings[0] | 0x01;
000014  2101              MOVS     r1,#1
000016  2b00              CMP      r3,#0                 ;74
000018  d002              BEQ      |L17.32|
00001a  7813              LDRB     r3,[r2,#0]  ; port1Readings
00001c  430b              ORRS     r3,r3,r1
00001e  7013              STRB     r3,[r2,#0]
                  |L17.32|
;;;76     	
;;;77     	res = value & 0x02;
000020  2302              MOVS     r3,#2
000022  4003              ANDS     r3,r3,r0
000024  466c              MOV      r4,sp
000026  7023              STRB     r3,[r4,#0]
;;;78     	port1Readings[1] = port1Readings[1] << 1;
000028  7853              LDRB     r3,[r2,#1]  ; port1Readings
00002a  005b              LSLS     r3,r3,#1
00002c  7053              STRB     r3,[r2,#1]
;;;79     	if(res != 0)
00002e  7823              LDRB     r3,[r4,#0]
000030  2b00              CMP      r3,#0
000032  d002              BEQ      |L17.58|
;;;80     		port1Readings[1] = port1Readings[1] | 0x01;
000034  7853              LDRB     r3,[r2,#1]  ; port1Readings
000036  430b              ORRS     r3,r3,r1
000038  7053              STRB     r3,[r2,#1]
                  |L17.58|
;;;81     	
;;;82     	res = value & 0x04;
00003a  2304              MOVS     r3,#4
00003c  4003              ANDS     r3,r3,r0
00003e  7023              STRB     r3,[r4,#0]
;;;83     	port1Readings[2] = port1Readings[2] << 1;
000040  7893              LDRB     r3,[r2,#2]  ; port1Readings
000042  005b              LSLS     r3,r3,#1
000044  7093              STRB     r3,[r2,#2]
;;;84     	if(res != 0)
000046  7823              LDRB     r3,[r4,#0]
000048  2b00              CMP      r3,#0
00004a  d002              BEQ      |L17.82|
;;;85     		port1Readings[2] = port1Readings[2] | 0x01;
00004c  7893              LDRB     r3,[r2,#2]  ; port1Readings
00004e  430b              ORRS     r3,r3,r1
000050  7093              STRB     r3,[r2,#2]
                  |L17.82|
;;;86     	
;;;87     	res = value & 0x08;
000052  2308              MOVS     r3,#8
000054  4003              ANDS     r3,r3,r0
000056  7023              STRB     r3,[r4,#0]
;;;88     	port1Readings[3] = port1Readings[3] << 1;
000058  78d3              LDRB     r3,[r2,#3]  ; port1Readings
00005a  005b              LSLS     r3,r3,#1
00005c  70d3              STRB     r3,[r2,#3]
;;;89     	if(res != 0)
00005e  7823              LDRB     r3,[r4,#0]
000060  2b00              CMP      r3,#0
000062  d002              BEQ      |L17.106|
;;;90     		port1Readings[3] = port1Readings[3] | 0x01;
000064  78d3              LDRB     r3,[r2,#3]  ; port1Readings
000066  430b              ORRS     r3,r3,r1
000068  70d3              STRB     r3,[r2,#3]
                  |L17.106|
;;;91     	
;;;92     	res = value & 0x10;
00006a  2310              MOVS     r3,#0x10
00006c  4003              ANDS     r3,r3,r0
00006e  7023              STRB     r3,[r4,#0]
;;;93     	port1Readings[4] = port1Readings[4] << 1;
000070  7913              LDRB     r3,[r2,#4]  ; port1Readings
000072  005b              LSLS     r3,r3,#1
000074  7113              STRB     r3,[r2,#4]
;;;94     	if(res != 0)
000076  7823              LDRB     r3,[r4,#0]
000078  2b00              CMP      r3,#0
00007a  d002              BEQ      |L17.130|
;;;95     		port1Readings[4] = port1Readings[4] | 0x01;
00007c  7913              LDRB     r3,[r2,#4]  ; port1Readings
00007e  430b              ORRS     r3,r3,r1
000080  7113              STRB     r3,[r2,#4]
                  |L17.130|
;;;96     		
;;;97     	res = value & 0x20;
000082  2320              MOVS     r3,#0x20
000084  4003              ANDS     r3,r3,r0
000086  7023              STRB     r3,[r4,#0]
;;;98     	port1Readings[5] = port1Readings[5] << 1;
000088  7953              LDRB     r3,[r2,#5]  ; port1Readings
00008a  005b              LSLS     r3,r3,#1
00008c  7153              STRB     r3,[r2,#5]
;;;99     	if(res != 0)
00008e  7823              LDRB     r3,[r4,#0]
000090  2b00              CMP      r3,#0
000092  d002              BEQ      |L17.154|
;;;100    		port1Readings[5] = port1Readings[5] | 0x01;
000094  7953              LDRB     r3,[r2,#5]  ; port1Readings
000096  430b              ORRS     r3,r3,r1
000098  7153              STRB     r3,[r2,#5]
                  |L17.154|
;;;101    	
;;;102    	res = value & 0x40;
00009a  2340              MOVS     r3,#0x40
00009c  4003              ANDS     r3,r3,r0
00009e  7023              STRB     r3,[r4,#0]
;;;103    	port1Readings[6] = port1Readings[6] << 1;
0000a0  7993              LDRB     r3,[r2,#6]  ; port1Readings
0000a2  005b              LSLS     r3,r3,#1
0000a4  7193              STRB     r3,[r2,#6]
;;;104    	if(res != 0)
0000a6  7823              LDRB     r3,[r4,#0]
0000a8  2b00              CMP      r3,#0
0000aa  d002              BEQ      |L17.178|
;;;105    		port1Readings[6] = port1Readings[6] | 0x01;
0000ac  7993              LDRB     r3,[r2,#6]  ; port1Readings
0000ae  430b              ORRS     r3,r3,r1
0000b0  7193              STRB     r3,[r2,#6]
                  |L17.178|
;;;106    	
;;;107    	res = value & 0x80;
0000b2  09c0              LSRS     r0,r0,#7
0000b4  01c0              LSLS     r0,r0,#7
0000b6  7020              STRB     r0,[r4,#0]
;;;108    	port1Readings[7] = port1Readings[7] << 1;
0000b8  79d0              LDRB     r0,[r2,#7]  ; port1Readings
0000ba  0040              LSLS     r0,r0,#1
0000bc  71d0              STRB     r0,[r2,#7]
;;;109    	if(res != 0)
0000be  7820              LDRB     r0,[r4,#0]
0000c0  2800              CMP      r0,#0
0000c2  d002              BEQ      |L17.202|
;;;110    		port1Readings[7] = port1Readings[7] | 0x01;
0000c4  79d0              LDRB     r0,[r2,#7]  ; port1Readings
0000c6  4308              ORRS     r0,r0,r1
0000c8  71d0              STRB     r0,[r2,#7]
                  |L17.202|
;;;111    }
0000ca  bd18              POP      {r3,r4,pc}
;;;112    
                          ENDP

                  |L17.204|
                          DCD      ||.data||+0x28

                          AREA ||i.setPort_2||, CODE, READONLY, ALIGN=2

                  setPort_2 PROC
;;;112    
;;;113    void setPort_2(char value)
000000  b518              PUSH     {r3,r4,lr}
;;;114    {
;;;115    	volatile char res = value & 0x01;
000002  07c1              LSLS     r1,r0,#31
000004  0fc9              LSRS     r1,r1,#31
000006  466b              MOV      r3,sp
000008  7019              STRB     r1,[r3,#0]
;;;116    	port2Readings[0] = port2Readings[0] << 1;
00000a  4a30              LDR      r2,|L18.204|
00000c  7811              LDRB     r1,[r2,#0]  ; port2Readings
00000e  0049              LSLS     r1,r1,#1
000010  7011              STRB     r1,[r2,#0]
;;;117    	if(res != 0)
000012  781b              LDRB     r3,[r3,#0]
;;;118    		port2Readings[0] = port2Readings[0] | 0x01;
000014  2101              MOVS     r1,#1
000016  2b00              CMP      r3,#0                 ;117
000018  d002              BEQ      |L18.32|
00001a  7813              LDRB     r3,[r2,#0]  ; port2Readings
00001c  430b              ORRS     r3,r3,r1
00001e  7013              STRB     r3,[r2,#0]
                  |L18.32|
;;;119    	
;;;120    	res = value & 0x02;
000020  2302              MOVS     r3,#2
000022  4003              ANDS     r3,r3,r0
000024  466c              MOV      r4,sp
000026  7023              STRB     r3,[r4,#0]
;;;121    	port2Readings[1] = port2Readings[1] << 1;
000028  7853              LDRB     r3,[r2,#1]  ; port2Readings
00002a  005b              LSLS     r3,r3,#1
00002c  7053              STRB     r3,[r2,#1]
;;;122    	if(res != 0)
00002e  7823              LDRB     r3,[r4,#0]
000030  2b00              CMP      r3,#0
000032  d002              BEQ      |L18.58|
;;;123    		port2Readings[1] = port2Readings[1] | 0x01;
000034  7853              LDRB     r3,[r2,#1]  ; port2Readings
000036  430b              ORRS     r3,r3,r1
000038  7053              STRB     r3,[r2,#1]
                  |L18.58|
;;;124    	
;;;125    	res = value & 0x04;
00003a  2304              MOVS     r3,#4
00003c  4003              ANDS     r3,r3,r0
00003e  7023              STRB     r3,[r4,#0]
;;;126    	port2Readings[2] = port2Readings[2] << 1;
000040  7893              LDRB     r3,[r2,#2]  ; port2Readings
000042  005b              LSLS     r3,r3,#1
000044  7093              STRB     r3,[r2,#2]
;;;127    	if(res != 0)
000046  7823              LDRB     r3,[r4,#0]
000048  2b00              CMP      r3,#0
00004a  d002              BEQ      |L18.82|
;;;128    		port2Readings[2] = port2Readings[2] | 0x01;
00004c  7893              LDRB     r3,[r2,#2]  ; port2Readings
00004e  430b              ORRS     r3,r3,r1
000050  7093              STRB     r3,[r2,#2]
                  |L18.82|
;;;129    	
;;;130    	res = value & 0x08;
000052  2308              MOVS     r3,#8
000054  4003              ANDS     r3,r3,r0
000056  7023              STRB     r3,[r4,#0]
;;;131    	port2Readings[3] = port2Readings[3] << 1;
000058  78d3              LDRB     r3,[r2,#3]  ; port2Readings
00005a  005b              LSLS     r3,r3,#1
00005c  70d3              STRB     r3,[r2,#3]
;;;132    	if(res != 0)
00005e  7823              LDRB     r3,[r4,#0]
000060  2b00              CMP      r3,#0
000062  d002              BEQ      |L18.106|
;;;133    		port2Readings[3] = port2Readings[3] | 0x01;
000064  78d3              LDRB     r3,[r2,#3]  ; port2Readings
000066  430b              ORRS     r3,r3,r1
000068  70d3              STRB     r3,[r2,#3]
                  |L18.106|
;;;134    	
;;;135    	res = value & 0x10;
00006a  2310              MOVS     r3,#0x10
00006c  4003              ANDS     r3,r3,r0
00006e  7023              STRB     r3,[r4,#0]
;;;136    	port2Readings[4] = port2Readings[4] << 1;
000070  7913              LDRB     r3,[r2,#4]  ; port2Readings
000072  005b              LSLS     r3,r3,#1
000074  7113              STRB     r3,[r2,#4]
;;;137    	if(res != 0)
000076  7823              LDRB     r3,[r4,#0]
000078  2b00              CMP      r3,#0
00007a  d002              BEQ      |L18.130|
;;;138    		port2Readings[4] = port2Readings[4] | 0x01;
00007c  7913              LDRB     r3,[r2,#4]  ; port2Readings
00007e  430b              ORRS     r3,r3,r1
000080  7113              STRB     r3,[r2,#4]
                  |L18.130|
;;;139    		
;;;140    	res = value & 0x20;
000082  2320              MOVS     r3,#0x20
000084  4003              ANDS     r3,r3,r0
000086  7023              STRB     r3,[r4,#0]
;;;141    	port2Readings[5] = port2Readings[5] << 1;
000088  7953              LDRB     r3,[r2,#5]  ; port2Readings
00008a  005b              LSLS     r3,r3,#1
00008c  7153              STRB     r3,[r2,#5]
;;;142    	if(res != 0)
00008e  7823              LDRB     r3,[r4,#0]
000090  2b00              CMP      r3,#0
000092  d002              BEQ      |L18.154|
;;;143    		port2Readings[5] = port2Readings[5] | 0x01;
000094  7953              LDRB     r3,[r2,#5]  ; port2Readings
000096  430b              ORRS     r3,r3,r1
000098  7153              STRB     r3,[r2,#5]
                  |L18.154|
;;;144    	
;;;145    	res = value & 0x40;
00009a  2340              MOVS     r3,#0x40
00009c  4003              ANDS     r3,r3,r0
00009e  7023              STRB     r3,[r4,#0]
;;;146    	port2Readings[6] = port2Readings[6] << 1;
0000a0  7993              LDRB     r3,[r2,#6]  ; port2Readings
0000a2  005b              LSLS     r3,r3,#1
0000a4  7193              STRB     r3,[r2,#6]
;;;147    	if(res != 0)
0000a6  7823              LDRB     r3,[r4,#0]
0000a8  2b00              CMP      r3,#0
0000aa  d002              BEQ      |L18.178|
;;;148    		port2Readings[6] = port2Readings[6] | 0x01;
0000ac  7993              LDRB     r3,[r2,#6]  ; port2Readings
0000ae  430b              ORRS     r3,r3,r1
0000b0  7193              STRB     r3,[r2,#6]
                  |L18.178|
;;;149    	
;;;150    	res = value & 0x80;
0000b2  09c0              LSRS     r0,r0,#7
0000b4  01c0              LSLS     r0,r0,#7
0000b6  7020              STRB     r0,[r4,#0]
;;;151    	port2Readings[7] = port2Readings[7] << 1;
0000b8  79d0              LDRB     r0,[r2,#7]  ; port2Readings
0000ba  0040              LSLS     r0,r0,#1
0000bc  71d0              STRB     r0,[r2,#7]
;;;152    	if(res != 0)
0000be  7820              LDRB     r0,[r4,#0]
0000c0  2800              CMP      r0,#0
0000c2  d002              BEQ      |L18.202|
;;;153    		port2Readings[7] = port2Readings[7] | 0x01;
0000c4  79d0              LDRB     r0,[r2,#7]  ; port2Readings
0000c6  4308              ORRS     r0,r0,r1
0000c8  71d0              STRB     r0,[r2,#7]
                  |L18.202|
;;;154    }
0000ca  bd18              POP      {r3,r4,pc}
;;;155    
                          ENDP

                  |L18.204|
                          DCD      ||.data||+0x30

                          AREA ||i.setPort_3||, CODE, READONLY, ALIGN=2

                  setPort_3 PROC
;;;155    
;;;156    void setPort_3(char value)
000000  b518              PUSH     {r3,r4,lr}
;;;157    {
;;;158    	volatile char res = value & 0x01;
000002  07c1              LSLS     r1,r0,#31
000004  0fc9              LSRS     r1,r1,#31
000006  466b              MOV      r3,sp
000008  7019              STRB     r1,[r3,#0]
;;;159    	port3Readings[0] = port3Readings[0] << 1;
00000a  4a30              LDR      r2,|L19.204|
00000c  7811              LDRB     r1,[r2,#0]  ; port3Readings
00000e  0049              LSLS     r1,r1,#1
000010  7011              STRB     r1,[r2,#0]
;;;160    	if(res != 0)
000012  781b              LDRB     r3,[r3,#0]
;;;161    		port3Readings[0] = port3Readings[0] | 0x01;
000014  2101              MOVS     r1,#1
000016  2b00              CMP      r3,#0                 ;160
000018  d002              BEQ      |L19.32|
00001a  7813              LDRB     r3,[r2,#0]  ; port3Readings
00001c  430b              ORRS     r3,r3,r1
00001e  7013              STRB     r3,[r2,#0]
                  |L19.32|
;;;162    	
;;;163    	res = value & 0x02;
000020  2302              MOVS     r3,#2
000022  4003              ANDS     r3,r3,r0
000024  466c              MOV      r4,sp
000026  7023              STRB     r3,[r4,#0]
;;;164    	port3Readings[1] = port3Readings[1] << 1;
000028  7853              LDRB     r3,[r2,#1]  ; port3Readings
00002a  005b              LSLS     r3,r3,#1
00002c  7053              STRB     r3,[r2,#1]
;;;165    	if(res != 0)
00002e  7823              LDRB     r3,[r4,#0]
000030  2b00              CMP      r3,#0
000032  d002              BEQ      |L19.58|
;;;166    		port3Readings[1] = port3Readings[1] | 0x01;
000034  7853              LDRB     r3,[r2,#1]  ; port3Readings
000036  430b              ORRS     r3,r3,r1
000038  7053              STRB     r3,[r2,#1]
                  |L19.58|
;;;167    	
;;;168    	res = value & 0x04;
00003a  2304              MOVS     r3,#4
00003c  4003              ANDS     r3,r3,r0
00003e  7023              STRB     r3,[r4,#0]
;;;169    	port3Readings[2] = port3Readings[2] << 1;
000040  7893              LDRB     r3,[r2,#2]  ; port3Readings
000042  005b              LSLS     r3,r3,#1
000044  7093              STRB     r3,[r2,#2]
;;;170    	if(res != 0)
000046  7823              LDRB     r3,[r4,#0]
000048  2b00              CMP      r3,#0
00004a  d002              BEQ      |L19.82|
;;;171    		port3Readings[2] = port3Readings[2] | 0x01;
00004c  7893              LDRB     r3,[r2,#2]  ; port3Readings
00004e  430b              ORRS     r3,r3,r1
000050  7093              STRB     r3,[r2,#2]
                  |L19.82|
;;;172    	
;;;173    	res = value & 0x08;
000052  2308              MOVS     r3,#8
000054  4003              ANDS     r3,r3,r0
000056  7023              STRB     r3,[r4,#0]
;;;174    	port3Readings[3] = port3Readings[3] << 1;
000058  78d3              LDRB     r3,[r2,#3]  ; port3Readings
00005a  005b              LSLS     r3,r3,#1
00005c  70d3              STRB     r3,[r2,#3]
;;;175    	if(res != 0)
00005e  7823              LDRB     r3,[r4,#0]
000060  2b00              CMP      r3,#0
000062  d002              BEQ      |L19.106|
;;;176    		port3Readings[3] = port3Readings[3] | 0x01;
000064  78d3              LDRB     r3,[r2,#3]  ; port3Readings
000066  430b              ORRS     r3,r3,r1
000068  70d3              STRB     r3,[r2,#3]
                  |L19.106|
;;;177    	
;;;178    	res = value & 0x10;
00006a  2310              MOVS     r3,#0x10
00006c  4003              ANDS     r3,r3,r0
00006e  7023              STRB     r3,[r4,#0]
;;;179    	port3Readings[4] = port3Readings[4] << 1;
000070  7913              LDRB     r3,[r2,#4]  ; port3Readings
000072  005b              LSLS     r3,r3,#1
000074  7113              STRB     r3,[r2,#4]
;;;180    	if(res != 0)
000076  7823              LDRB     r3,[r4,#0]
000078  2b00              CMP      r3,#0
00007a  d002              BEQ      |L19.130|
;;;181    		port3Readings[4] = port3Readings[4] | 0x01;
00007c  7913              LDRB     r3,[r2,#4]  ; port3Readings
00007e  430b              ORRS     r3,r3,r1
000080  7113              STRB     r3,[r2,#4]
                  |L19.130|
;;;182    		
;;;183    	res = value & 0x20;
000082  2320              MOVS     r3,#0x20
000084  4003              ANDS     r3,r3,r0
000086  7023              STRB     r3,[r4,#0]
;;;184    	port3Readings[5] = port3Readings[5] << 1;
000088  7953              LDRB     r3,[r2,#5]  ; port3Readings
00008a  005b              LSLS     r3,r3,#1
00008c  7153              STRB     r3,[r2,#5]
;;;185    	if(res != 0)
00008e  7823              LDRB     r3,[r4,#0]
000090  2b00              CMP      r3,#0
000092  d002              BEQ      |L19.154|
;;;186    		port3Readings[5] = port3Readings[5] | 0x01;
000094  7953              LDRB     r3,[r2,#5]  ; port3Readings
000096  430b              ORRS     r3,r3,r1
000098  7153              STRB     r3,[r2,#5]
                  |L19.154|
;;;187    	
;;;188    	res = value & 0x40;
00009a  2340              MOVS     r3,#0x40
00009c  4003              ANDS     r3,r3,r0
00009e  7023              STRB     r3,[r4,#0]
;;;189    	port3Readings[6] = port3Readings[6] << 1;
0000a0  7993              LDRB     r3,[r2,#6]  ; port3Readings
0000a2  005b              LSLS     r3,r3,#1
0000a4  7193              STRB     r3,[r2,#6]
;;;190    	if(res != 0)
0000a6  7823              LDRB     r3,[r4,#0]
0000a8  2b00              CMP      r3,#0
0000aa  d002              BEQ      |L19.178|
;;;191    		port3Readings[6] = port3Readings[6] | 0x01;
0000ac  7993              LDRB     r3,[r2,#6]  ; port3Readings
0000ae  430b              ORRS     r3,r3,r1
0000b0  7193              STRB     r3,[r2,#6]
                  |L19.178|
;;;192    	
;;;193    	res = value & 0x80;
0000b2  09c0              LSRS     r0,r0,#7
0000b4  01c0              LSLS     r0,r0,#7
0000b6  7020              STRB     r0,[r4,#0]
;;;194    	port3Readings[7] = port3Readings[7] << 1;
0000b8  79d0              LDRB     r0,[r2,#7]  ; port3Readings
0000ba  0040              LSLS     r0,r0,#1
0000bc  71d0              STRB     r0,[r2,#7]
;;;195    	if(res != 0)
0000be  7820              LDRB     r0,[r4,#0]
0000c0  2800              CMP      r0,#0
0000c2  d002              BEQ      |L19.202|
;;;196    		port3Readings[7] = port3Readings[7] | 0x01;
0000c4  79d0              LDRB     r0,[r2,#7]  ; port3Readings
0000c6  4308              ORRS     r0,r0,r1
0000c8  71d0              STRB     r0,[r2,#7]
                  |L19.202|
;;;197    }
0000ca  bd18              POP      {r3,r4,pc}
;;;198    
                          ENDP

                  |L19.204|
                          DCD      ||.data||+0x38

                          AREA ||i.setPort_4||, CODE, READONLY, ALIGN=2

                  setPort_4 PROC
;;;198    
;;;199    void setPort_4(char value)
000000  b518              PUSH     {r3,r4,lr}
;;;200    {
;;;201    	volatile char res = value & 0x01;
000002  07c1              LSLS     r1,r0,#31
000004  0fc9              LSRS     r1,r1,#31
000006  466b              MOV      r3,sp
000008  7019              STRB     r1,[r3,#0]
;;;202    	port4Readings[0] = port4Readings[0] << 1;
00000a  4a30              LDR      r2,|L20.204|
00000c  7811              LDRB     r1,[r2,#0]  ; port4Readings
00000e  0049              LSLS     r1,r1,#1
000010  7011              STRB     r1,[r2,#0]
;;;203    	if(res != 0)
000012  781b              LDRB     r3,[r3,#0]
;;;204    		port4Readings[0] = port4Readings[0] | 0x01;
000014  2101              MOVS     r1,#1
000016  2b00              CMP      r3,#0                 ;203
000018  d002              BEQ      |L20.32|
00001a  7813              LDRB     r3,[r2,#0]  ; port4Readings
00001c  430b              ORRS     r3,r3,r1
00001e  7013              STRB     r3,[r2,#0]
                  |L20.32|
;;;205    	
;;;206    	res = value & 0x02;
000020  2302              MOVS     r3,#2
000022  4003              ANDS     r3,r3,r0
000024  466c              MOV      r4,sp
000026  7023              STRB     r3,[r4,#0]
;;;207    	port4Readings[1] = port4Readings[1] << 1;
000028  7853              LDRB     r3,[r2,#1]  ; port4Readings
00002a  005b              LSLS     r3,r3,#1
00002c  7053              STRB     r3,[r2,#1]
;;;208    	if(res != 0)
00002e  7823              LDRB     r3,[r4,#0]
000030  2b00              CMP      r3,#0
000032  d002              BEQ      |L20.58|
;;;209    		port4Readings[1] = port4Readings[1] | 0x01;
000034  7853              LDRB     r3,[r2,#1]  ; port4Readings
000036  430b              ORRS     r3,r3,r1
000038  7053              STRB     r3,[r2,#1]
                  |L20.58|
;;;210    	
;;;211    	res = value & 0x04;
00003a  2304              MOVS     r3,#4
00003c  4003              ANDS     r3,r3,r0
00003e  7023              STRB     r3,[r4,#0]
;;;212    	port4Readings[2] = port4Readings[2] << 1;
000040  7893              LDRB     r3,[r2,#2]  ; port4Readings
000042  005b              LSLS     r3,r3,#1
000044  7093              STRB     r3,[r2,#2]
;;;213    	if(res != 0)
000046  7823              LDRB     r3,[r4,#0]
000048  2b00              CMP      r3,#0
00004a  d002              BEQ      |L20.82|
;;;214    		port4Readings[2] = port4Readings[2] | 0x01;
00004c  7893              LDRB     r3,[r2,#2]  ; port4Readings
00004e  430b              ORRS     r3,r3,r1
000050  7093              STRB     r3,[r2,#2]
                  |L20.82|
;;;215    	
;;;216    	res = value & 0x08;
000052  2308              MOVS     r3,#8
000054  4003              ANDS     r3,r3,r0
000056  7023              STRB     r3,[r4,#0]
;;;217    	port4Readings[3] = port4Readings[3] << 1;
000058  78d3              LDRB     r3,[r2,#3]  ; port4Readings
00005a  005b              LSLS     r3,r3,#1
00005c  70d3              STRB     r3,[r2,#3]
;;;218    	if(res != 0)
00005e  7823              LDRB     r3,[r4,#0]
000060  2b00              CMP      r3,#0
000062  d002              BEQ      |L20.106|
;;;219    		port4Readings[3] = port4Readings[3] | 0x01;
000064  78d3              LDRB     r3,[r2,#3]  ; port4Readings
000066  430b              ORRS     r3,r3,r1
000068  70d3              STRB     r3,[r2,#3]
                  |L20.106|
;;;220    	
;;;221    	res = value & 0x10;
00006a  2310              MOVS     r3,#0x10
00006c  4003              ANDS     r3,r3,r0
00006e  7023              STRB     r3,[r4,#0]
;;;222    	port4Readings[4] = port4Readings[4] << 1;
000070  7913              LDRB     r3,[r2,#4]  ; port4Readings
000072  005b              LSLS     r3,r3,#1
000074  7113              STRB     r3,[r2,#4]
;;;223    	if(res != 0)
000076  7823              LDRB     r3,[r4,#0]
000078  2b00              CMP      r3,#0
00007a  d002              BEQ      |L20.130|
;;;224    		port4Readings[4] = port4Readings[4] | 0x01;
00007c  7913              LDRB     r3,[r2,#4]  ; port4Readings
00007e  430b              ORRS     r3,r3,r1
000080  7113              STRB     r3,[r2,#4]
                  |L20.130|
;;;225    		
;;;226    	res = value & 0x20;
000082  2320              MOVS     r3,#0x20
000084  4003              ANDS     r3,r3,r0
000086  7023              STRB     r3,[r4,#0]
;;;227    	port4Readings[5] = port4Readings[5] << 1;
000088  7953              LDRB     r3,[r2,#5]  ; port4Readings
00008a  005b              LSLS     r3,r3,#1
00008c  7153              STRB     r3,[r2,#5]
;;;228    	if(res != 0)
00008e  7823              LDRB     r3,[r4,#0]
000090  2b00              CMP      r3,#0
000092  d002              BEQ      |L20.154|
;;;229    		port4Readings[5] = port4Readings[5] | 0x01;
000094  7953              LDRB     r3,[r2,#5]  ; port4Readings
000096  430b              ORRS     r3,r3,r1
000098  7153              STRB     r3,[r2,#5]
                  |L20.154|
;;;230    	
;;;231    	res = value & 0x40;
00009a  2340              MOVS     r3,#0x40
00009c  4003              ANDS     r3,r3,r0
00009e  7023              STRB     r3,[r4,#0]
;;;232    	port4Readings[6] = port4Readings[6] << 1;
0000a0  7993              LDRB     r3,[r2,#6]  ; port4Readings
0000a2  005b              LSLS     r3,r3,#1
0000a4  7193              STRB     r3,[r2,#6]
;;;233    	if(res != 0)
0000a6  7823              LDRB     r3,[r4,#0]
0000a8  2b00              CMP      r3,#0
0000aa  d002              BEQ      |L20.178|
;;;234    		port4Readings[6] = port4Readings[6] | 0x01;
0000ac  7993              LDRB     r3,[r2,#6]  ; port4Readings
0000ae  430b              ORRS     r3,r3,r1
0000b0  7193              STRB     r3,[r2,#6]
                  |L20.178|
;;;235    	
;;;236    	res = value & 0x80;
0000b2  09c0              LSRS     r0,r0,#7
0000b4  01c0              LSLS     r0,r0,#7
0000b6  7020              STRB     r0,[r4,#0]
;;;237    	port4Readings[7] = port4Readings[7] << 1;
0000b8  79d0              LDRB     r0,[r2,#7]  ; port4Readings
0000ba  0040              LSLS     r0,r0,#1
0000bc  71d0              STRB     r0,[r2,#7]
;;;238    	if(res != 0)
0000be  7820              LDRB     r0,[r4,#0]
0000c0  2800              CMP      r0,#0
0000c2  d002              BEQ      |L20.202|
;;;239    		port4Readings[7] = port4Readings[7] | 0x01;
0000c4  79d0              LDRB     r0,[r2,#7]  ; port4Readings
0000c6  4308              ORRS     r0,r0,r1
0000c8  71d0              STRB     r0,[r2,#7]
                  |L20.202|
;;;240    }
0000ca  bd18              POP      {r3,r4,pc}
;;;241    
                          ENDP

                  |L20.204|
                          DCD      ||.data||+0x40

                          AREA ||.bss||, DATA, NOINIT, ALIGN=0

                  g_u8RecData
                          %        1024
                  responce
                          %        107

                          AREA ||.data||, DATA, ALIGN=2

                  totalRegsToRead
000000  14                DCB      0x14
                  toatalDataBytesToReceived
000001  28                DCB      0x28
                  responceSize
000002  2b                DCB      0x2b
                  boardID
000003  00                DCB      0x00
                  First_Reg_L
000004  00                DCB      0x00
                  First_Reg_H
000005  00                DCB      0x00
                  Second_Reg_L
000006  00                DCB      0x00
                  Second_Reg_H
000007  00                DCB      0x00
                  g_u32comRbytes
                          DCD      0x00000000
                  g_u32comRhead
                          DCD      0x00000000
                  g_u32comRtail
                          DCD      0x00000000
                  arrayIndex
                          DCD      0x00000000
                  dataReceiving
                          DCD      0x00000000
                  seconds
                          DCD      0x00000000
                  ticks
                          DCD      0x00000000
                  i
                          DCD      0x00000000
                  port1Readings
000028  00000000          DCB      0x00,0x00,0x00,0x00
00002c  00000000          DCB      0x00,0x00,0x00,0x00
                  port2Readings
000030  00000000          DCB      0x00,0x00,0x00,0x00
000034  00000000          DCB      0x00,0x00,0x00,0x00
                  port3Readings
000038  00000000          DCB      0x00,0x00,0x00,0x00
00003c  00000000          DCB      0x00,0x00,0x00,0x00
                  port4Readings
000040  00000000          DCB      0x00,0x00,0x00,0x00
000044  00000000          DCB      0x00,0x00,0x00,0x00
                  port1States
000048  00000000          DCB      0x00,0x00,0x00,0x00
00004c  00000000          DCB      0x00,0x00,0x00,0x00
                  port2States
000050  00000000          DCB      0x00,0x00,0x00,0x00
000054  00000000          DCB      0x00,0x00,0x00,0x00
                  port3States
000058  00000000          DCB      0x00,0x00,0x00,0x00
00005c  00000000          DCB      0x00,0x00,0x00,0x00
                  port4States
000060  00000000          DCB      0x00,0x00,0x00,0x00
000064  00000000          DCB      0x00,0x00,0x00,0x00
                  masterCommand
000068  00010000          DCB      0x00,0x01,0x00,0x00
00006c  00060103          DCB      0x00,0x06,0x01,0x03
000070  00010014          DCB      0x00,0x01,0x00,0x14

;*** Start embedded assembler ***

#line 1 "..\\main.c"
	AREA ||.rev16_text||, CODE
	THUMB
	EXPORT |__asm___6_main_c_a80fc96b____REV16|
#line 118 "..\\..\\..\\Library\\CMSIS\\Include\\core_cmInstr.h"
|__asm___6_main_c_a80fc96b____REV16| PROC
#line 119

 rev16 r0, r0
 bx lr
	ENDP
	AREA ||.revsh_text||, CODE
	THUMB
	EXPORT |__asm___6_main_c_a80fc96b____REVSH|
#line 132
|__asm___6_main_c_a80fc96b____REVSH| PROC
#line 133

 revsh r0, r0
 bx lr
	ENDP

;*** End   embedded assembler ***

                  __ARM_use_no_argv EQU 0
